
LEDCube.elf:     file format elf32-avr

Sections:
Idx Name          Size      VMA       LMA       File off  Algn
  0 .data         00000004  00800200  0000245e  000024f2  2**0
                  CONTENTS, ALLOC, LOAD, DATA
  1 .text         0000245e  00000000  00000000  00000094  2**1
                  CONTENTS, ALLOC, LOAD, READONLY, CODE
  2 .bss          00000002  00800204  00800204  000024f6  2**0
                  ALLOC
  3 .comment      00000030  00000000  00000000  000024f6  2**0
                  CONTENTS, READONLY
  4 .debug_aranges 000000a8  00000000  00000000  00002526  2**0
                  CONTENTS, READONLY, DEBUGGING
  5 .debug_info   00003fe2  00000000  00000000  000025ce  2**0
                  CONTENTS, READONLY, DEBUGGING
  6 .debug_abbrev 00000234  00000000  00000000  000065b0  2**0
                  CONTENTS, READONLY, DEBUGGING
  7 .debug_line   000009c1  00000000  00000000  000067e4  2**0
                  CONTENTS, READONLY, DEBUGGING
  8 .debug_frame  000002ac  00000000  00000000  000071a8  2**2
                  CONTENTS, READONLY, DEBUGGING
  9 .debug_str    00000231  00000000  00000000  00007454  2**0
                  CONTENTS, READONLY, DEBUGGING
 10 .debug_loc    000011c8  00000000  00000000  00007685  2**0
                  CONTENTS, READONLY, DEBUGGING
 11 .debug_ranges 00000180  00000000  00000000  0000884d  2**0
                  CONTENTS, READONLY, DEBUGGING

Disassembly of section .text:

00000000 <__vectors>:
       0:	0c 94 8e 00 	jmp	0x11c	; 0x11c <__ctors_end>
       4:	0c 94 ab 00 	jmp	0x156	; 0x156 <__bad_interrupt>
       8:	0c 94 ab 00 	jmp	0x156	; 0x156 <__bad_interrupt>
       c:	0c 94 ab 00 	jmp	0x156	; 0x156 <__bad_interrupt>
      10:	0c 94 ab 00 	jmp	0x156	; 0x156 <__bad_interrupt>
      14:	0c 94 ab 00 	jmp	0x156	; 0x156 <__bad_interrupt>
      18:	0c 94 ab 00 	jmp	0x156	; 0x156 <__bad_interrupt>
      1c:	0c 94 ab 00 	jmp	0x156	; 0x156 <__bad_interrupt>
      20:	0c 94 ab 00 	jmp	0x156	; 0x156 <__bad_interrupt>
      24:	0c 94 ab 00 	jmp	0x156	; 0x156 <__bad_interrupt>
      28:	0c 94 ab 00 	jmp	0x156	; 0x156 <__bad_interrupt>
      2c:	0c 94 ab 00 	jmp	0x156	; 0x156 <__bad_interrupt>
      30:	0c 94 ab 00 	jmp	0x156	; 0x156 <__bad_interrupt>
      34:	0c 94 ab 00 	jmp	0x156	; 0x156 <__bad_interrupt>
      38:	0c 94 ab 00 	jmp	0x156	; 0x156 <__bad_interrupt>
      3c:	0c 94 ab 00 	jmp	0x156	; 0x156 <__bad_interrupt>
      40:	0c 94 ab 00 	jmp	0x156	; 0x156 <__bad_interrupt>
      44:	0c 94 ab 00 	jmp	0x156	; 0x156 <__bad_interrupt>
      48:	0c 94 ab 00 	jmp	0x156	; 0x156 <__bad_interrupt>
      4c:	0c 94 ab 00 	jmp	0x156	; 0x156 <__bad_interrupt>
      50:	0c 94 ab 00 	jmp	0x156	; 0x156 <__bad_interrupt>
      54:	0c 94 ab 00 	jmp	0x156	; 0x156 <__bad_interrupt>
      58:	0c 94 ab 00 	jmp	0x156	; 0x156 <__bad_interrupt>
      5c:	0c 94 ab 00 	jmp	0x156	; 0x156 <__bad_interrupt>
      60:	0c 94 ab 00 	jmp	0x156	; 0x156 <__bad_interrupt>
      64:	0c 94 ab 00 	jmp	0x156	; 0x156 <__bad_interrupt>
      68:	0c 94 ab 00 	jmp	0x156	; 0x156 <__bad_interrupt>
      6c:	0c 94 ab 00 	jmp	0x156	; 0x156 <__bad_interrupt>
      70:	0c 94 ab 00 	jmp	0x156	; 0x156 <__bad_interrupt>
      74:	0c 94 ab 00 	jmp	0x156	; 0x156 <__bad_interrupt>
      78:	0c 94 ab 00 	jmp	0x156	; 0x156 <__bad_interrupt>
      7c:	0c 94 ab 00 	jmp	0x156	; 0x156 <__bad_interrupt>
      80:	0c 94 ab 00 	jmp	0x156	; 0x156 <__bad_interrupt>
      84:	0c 94 ab 00 	jmp	0x156	; 0x156 <__bad_interrupt>
      88:	0c 94 ab 00 	jmp	0x156	; 0x156 <__bad_interrupt>
      8c:	0c 94 ab 00 	jmp	0x156	; 0x156 <__bad_interrupt>
      90:	0c 94 ab 00 	jmp	0x156	; 0x156 <__bad_interrupt>
      94:	0c 94 ab 00 	jmp	0x156	; 0x156 <__bad_interrupt>
      98:	0c 94 ab 00 	jmp	0x156	; 0x156 <__bad_interrupt>
      9c:	0c 94 ab 00 	jmp	0x156	; 0x156 <__bad_interrupt>
      a0:	0c 94 ab 00 	jmp	0x156	; 0x156 <__bad_interrupt>
      a4:	0c 94 ab 00 	jmp	0x156	; 0x156 <__bad_interrupt>
      a8:	0c 94 ab 00 	jmp	0x156	; 0x156 <__bad_interrupt>
      ac:	0c 94 ab 00 	jmp	0x156	; 0x156 <__bad_interrupt>
      b0:	0c 94 ab 00 	jmp	0x156	; 0x156 <__bad_interrupt>
      b4:	0c 94 ab 00 	jmp	0x156	; 0x156 <__bad_interrupt>
      b8:	0c 94 ab 00 	jmp	0x156	; 0x156 <__bad_interrupt>
      bc:	0c 94 ab 00 	jmp	0x156	; 0x156 <__bad_interrupt>
      c0:	0c 94 ab 00 	jmp	0x156	; 0x156 <__bad_interrupt>
      c4:	0c 94 ab 00 	jmp	0x156	; 0x156 <__bad_interrupt>
      c8:	0c 94 ab 00 	jmp	0x156	; 0x156 <__bad_interrupt>
      cc:	0c 94 ab 00 	jmp	0x156	; 0x156 <__bad_interrupt>
      d0:	0c 94 ab 00 	jmp	0x156	; 0x156 <__bad_interrupt>
      d4:	0c 94 ab 00 	jmp	0x156	; 0x156 <__bad_interrupt>
      d8:	0c 94 ab 00 	jmp	0x156	; 0x156 <__bad_interrupt>
      dc:	0c 94 ab 00 	jmp	0x156	; 0x156 <__bad_interrupt>
      e0:	0c 94 ab 00 	jmp	0x156	; 0x156 <__bad_interrupt>
      e4:	bd 00       	.word	0x00bd	; ????
      e6:	bf 00       	.word	0x00bf	; ????
      e8:	c1 00       	.word	0x00c1	; ????
      ea:	c3 00       	.word	0x00c3	; ????
      ec:	c5 00       	.word	0x00c5	; ????
      ee:	c7 00       	.word	0x00c7	; ????
      f0:	c9 00       	.word	0x00c9	; ????
      f2:	cb 00       	.word	0x00cb	; ????
      f4:	cd 00       	.word	0x00cd	; ????
      f6:	d8 00       	.word	0x00d8	; ????
      f8:	da 00       	.word	0x00da	; ????
      fa:	dc 00       	.word	0x00dc	; ????
      fc:	de 00       	.word	0x00de	; ????
      fe:	e0 00       	.word	0x00e0	; ????
     100:	e2 00       	.word	0x00e2	; ????
     102:	e4 00       	.word	0x00e4	; ????
     104:	e6 00       	.word	0x00e6	; ????
     106:	e8 00       	.word	0x00e8	; ????
     108:	ed 10       	cpse	r14, r13
     10a:	f7 10       	cpse	r15, r7
     10c:	fa 10       	cpse	r15, r10
     10e:	fd 10       	cpse	r15, r13
     110:	00 11       	cpse	r16, r0
     112:	0b 11       	cpse	r16, r11
     114:	15 11       	cpse	r17, r5
     116:	1f 11       	cpse	r17, r15
     118:	29 11       	cpse	r18, r9
     11a:	2c 11       	cpse	r18, r12

0000011c <__ctors_end>:
     11c:	11 24       	eor	r1, r1
     11e:	1f be       	out	0x3f, r1	; 63
     120:	cf ef       	ldi	r28, 0xFF	; 255
     122:	d1 e2       	ldi	r29, 0x21	; 33
     124:	de bf       	out	0x3e, r29	; 62
     126:	cd bf       	out	0x3d, r28	; 61

00000128 <__do_clear_bss>:
     128:	22 e0       	ldi	r18, 0x02	; 2
     12a:	a4 e0       	ldi	r26, 0x04	; 4
     12c:	b2 e0       	ldi	r27, 0x02	; 2
     12e:	01 c0       	rjmp	.+2      	; 0x132 <.do_clear_bss_start>

00000130 <.do_clear_bss_loop>:
     130:	1d 92       	st	X+, r1

00000132 <.do_clear_bss_start>:
     132:	a6 30       	cpi	r26, 0x06	; 6
     134:	b2 07       	cpc	r27, r18
     136:	e1 f7       	brne	.-8      	; 0x130 <.do_clear_bss_loop>

00000138 <__do_copy_data>:
     138:	12 e0       	ldi	r17, 0x02	; 2
     13a:	a0 e0       	ldi	r26, 0x00	; 0
     13c:	b2 e0       	ldi	r27, 0x02	; 2
     13e:	ee e5       	ldi	r30, 0x5E	; 94
     140:	f4 e2       	ldi	r31, 0x24	; 36
     142:	02 c0       	rjmp	.+4      	; 0x148 <__do_copy_data+0x10>
     144:	05 90       	lpm	r0, Z+
     146:	0d 92       	st	X+, r0
     148:	a4 30       	cpi	r26, 0x04	; 4
     14a:	b1 07       	cpc	r27, r17
     14c:	d9 f7       	brne	.-10     	; 0x144 <__do_copy_data+0xc>
     14e:	0e 94 cf 10 	call	0x219e	; 0x219e <main>
     152:	0c 94 2d 12 	jmp	0x245a	; 0x245a <_exit>

00000156 <__bad_interrupt>:
     156:	0c 94 00 00 	jmp	0	; 0x0 <__vectors>

0000015a <Cube_init>:
#define TOGGLEBIT(x,b)  x^=(1<<(b));


void Cube_init(void)
{
	DDRD = 0xFF;
     15a:	8f ef       	ldi	r24, 0xFF	; 255
     15c:	8a b9       	out	0x0a, r24	; 10
	DDRC = 0xFF;
     15e:	87 b9       	out	0x07, r24	; 7
	PORTD = 0xFF;
     160:	8b b9       	out	0x0b, r24	; 11
	PORTC = 0x02;
     162:	82 e0       	ldi	r24, 0x02	; 2
     164:	88 b9       	out	0x08, r24	; 8
     166:	08 95       	ret

00000168 <LED_num_off>:
}
	//8 9 7 1 3 5 6 4 2
void LED_num_off(int num)
{
	switch (num)
     168:	01 97       	sbiw	r24, 0x01	; 1
     16a:	89 30       	cpi	r24, 0x09	; 9
     16c:	91 05       	cpc	r25, r1
     16e:	b0 f4       	brcc	.+44     	; 0x19c <LED_num_off+0x34>
     170:	8e 58       	subi	r24, 0x8E	; 142
     172:	9f 4f       	sbci	r25, 0xFF	; 255
     174:	fc 01       	movw	r30, r24
     176:	0c 94 52 11 	jmp	0x22a4	; 0x22a4 <__tablejump2__>
	{
		case 1:	SETBIT(PORTD,7);
     17a:	5f 9a       	sbi	0x0b, 7	; 11
		break;
     17c:	08 95       	ret
		case 2:	SETBIT(PORTC,1);
     17e:	41 9a       	sbi	0x08, 1	; 8
		break;
     180:	08 95       	ret
		case 3:	SETBIT(PORTD,6);
     182:	5e 9a       	sbi	0x0b, 6	; 11
		break;
     184:	08 95       	ret
		case 4:	SETBIT(PORTD,0);
     186:	58 9a       	sbi	0x0b, 0	; 11
		break;
     188:	08 95       	ret
		case 5:	SETBIT(PORTD,2);
     18a:	5a 9a       	sbi	0x0b, 2	; 11
		break;
     18c:	08 95       	ret
		case 6:	SETBIT(PORTD,4);
     18e:	5c 9a       	sbi	0x0b, 4	; 11
		break;
     190:	08 95       	ret
		case 7:	SETBIT(PORTD,5);
     192:	5d 9a       	sbi	0x0b, 5	; 11
		break;
     194:	08 95       	ret
		case 8:	SETBIT(PORTD,3);
     196:	5b 9a       	sbi	0x0b, 3	; 11
		break;
     198:	08 95       	ret
		case 9:	SETBIT(PORTD,1);
     19a:	59 9a       	sbi	0x0b, 1	; 11
     19c:	08 95       	ret

0000019e <LED_num_on>:
	}
}

void LED_num_on(int num)
{
	switch (num)
     19e:	01 97       	sbiw	r24, 0x01	; 1
     1a0:	89 30       	cpi	r24, 0x09	; 9
     1a2:	91 05       	cpc	r25, r1
     1a4:	b0 f4       	brcc	.+44     	; 0x1d2 <LED_num_on+0x34>
     1a6:	85 58       	subi	r24, 0x85	; 133
     1a8:	9f 4f       	sbci	r25, 0xFF	; 255
     1aa:	fc 01       	movw	r30, r24
     1ac:	0c 94 52 11 	jmp	0x22a4	; 0x22a4 <__tablejump2__>
	{
		case 1:	CLEARBIT(PORTD,7);
     1b0:	5f 98       	cbi	0x0b, 7	; 11
		break;
     1b2:	08 95       	ret
		case 2:	CLEARBIT(PORTC,1);
     1b4:	41 98       	cbi	0x08, 1	; 8
		break;
     1b6:	08 95       	ret
		case 3:	CLEARBIT(PORTD,6);
     1b8:	5e 98       	cbi	0x0b, 6	; 11
		break;
     1ba:	08 95       	ret
		case 4:	CLEARBIT(PORTD,0);
     1bc:	58 98       	cbi	0x0b, 0	; 11
		break;
     1be:	08 95       	ret
		case 5:	CLEARBIT(PORTD,2);
     1c0:	5a 98       	cbi	0x0b, 2	; 11
		break;
     1c2:	08 95       	ret
		case 6:	CLEARBIT(PORTD,4);
     1c4:	5c 98       	cbi	0x0b, 4	; 11
		break;
     1c6:	08 95       	ret
		case 7:	CLEARBIT(PORTD,5);
     1c8:	5d 98       	cbi	0x0b, 5	; 11
		break;
     1ca:	08 95       	ret
		case 8:	CLEARBIT(PORTD,3);
     1cc:	5b 98       	cbi	0x0b, 3	; 11
		break;
     1ce:	08 95       	ret
		case 9:	CLEARBIT(PORTD,1);
     1d0:	59 98       	cbi	0x0b, 1	; 11
     1d2:	08 95       	ret

000001d4 <LED_off>:
	}
}

void LED_off(int level, int num)
{
	switch (level)
     1d4:	81 30       	cpi	r24, 0x01	; 1
     1d6:	91 05       	cpc	r25, r1
     1d8:	51 f0       	breq	.+20     	; 0x1ee <LED_off+0x1a>
     1da:	82 30       	cpi	r24, 0x02	; 2
     1dc:	91 05       	cpc	r25, r1
     1de:	61 f0       	breq	.+24     	; 0x1f8 <LED_off+0x24>
     1e0:	89 2b       	or	r24, r25
     1e2:	71 f4       	brne	.+28     	; 0x200 <LED_off+0x2c>
	{
		case 0:
			CLEARBIT(PORTC,0);
     1e4:	40 98       	cbi	0x08, 0	; 8
			LED_num_off(num);
     1e6:	cb 01       	movw	r24, r22
     1e8:	0e 94 b4 00 	call	0x168	; 0x168 <LED_num_off>
		break;
     1ec:	08 95       	ret
		case 1:
			CLEARBIT(PORTC,2);
     1ee:	42 98       	cbi	0x08, 2	; 8
			LED_num_off(num);
     1f0:	cb 01       	movw	r24, r22
     1f2:	0e 94 b4 00 	call	0x168	; 0x168 <LED_num_off>
		break;
     1f6:	08 95       	ret
		case 2:
			CLEARBIT(PORTC,4);
     1f8:	44 98       	cbi	0x08, 4	; 8
			LED_num_off(num);
     1fa:	cb 01       	movw	r24, r22
     1fc:	0e 94 b4 00 	call	0x168	; 0x168 <LED_num_off>
     200:	08 95       	ret

00000202 <LED_On>:
		break;
	}
}

void LED_On(int level, int num)
{
     202:	0f 93       	push	r16
     204:	1f 93       	push	r17
     206:	cf 93       	push	r28
     208:	df 93       	push	r29
     20a:	ec 01       	movw	r28, r24
     20c:	8b 01       	movw	r16, r22
	switch (level)
     20e:	81 30       	cpi	r24, 0x01	; 1
     210:	91 05       	cpc	r25, r1
     212:	61 f0       	breq	.+24     	; 0x22c <LED_On+0x2a>
     214:	82 30       	cpi	r24, 0x02	; 2
     216:	91 05       	cpc	r25, r1
     218:	81 f0       	breq	.+32     	; 0x23a <LED_On+0x38>
     21a:	00 97       	sbiw	r24, 0x00	; 0
     21c:	a1 f4       	brne	.+40     	; 0x246 <LED_On+0x44>
	{
		case 0:
			SETBIT(PORTC,0);
     21e:	40 9a       	sbi	0x08, 0	; 8
			CLEARBIT(PORTC,2);
     220:	42 98       	cbi	0x08, 2	; 8
			CLEARBIT(PORTC,4);
     222:	44 98       	cbi	0x08, 4	; 8
			LED_num_on(num);
     224:	cb 01       	movw	r24, r22
     226:	0e 94 cf 00 	call	0x19e	; 0x19e <LED_num_on>
		break;
     22a:	0d c0       	rjmp	.+26     	; 0x246 <LED_On+0x44>
		case 1:
			CLEARBIT(PORTC,0);
     22c:	40 98       	cbi	0x08, 0	; 8
			SETBIT(PORTC,2);
     22e:	42 9a       	sbi	0x08, 2	; 8
			CLEARBIT(PORTC,4);
     230:	44 98       	cbi	0x08, 4	; 8
			LED_num_on(num);
     232:	cb 01       	movw	r24, r22
     234:	0e 94 cf 00 	call	0x19e	; 0x19e <LED_num_on>
		break;
     238:	06 c0       	rjmp	.+12     	; 0x246 <LED_On+0x44>
		case 2:
			CLEARBIT(PORTC,0);
     23a:	40 98       	cbi	0x08, 0	; 8
			CLEARBIT(PORTC,2);
     23c:	42 98       	cbi	0x08, 2	; 8
			SETBIT(PORTC,4);
     23e:	44 9a       	sbi	0x08, 4	; 8
			LED_num_on(num);
     240:	cb 01       	movw	r24, r22
     242:	0e 94 cf 00 	call	0x19e	; 0x19e <LED_num_on>
	#else
		//round up by default
		__ticks_dc = (uint32_t)(ceil(fabs(__tmp)));
	#endif

	__builtin_avr_delay_cycles(__ticks_dc);
     246:	85 e8       	ldi	r24, 0x85	; 133
     248:	9b e0       	ldi	r25, 0x0B	; 11
     24a:	01 97       	sbiw	r24, 0x01	; 1
     24c:	f1 f7       	brne	.-4      	; 0x24a <LED_On+0x48>
		break;
	}
	_delay_us(800);
	LED_off(level,num);
     24e:	b8 01       	movw	r22, r16
     250:	ce 01       	movw	r24, r28
     252:	0e 94 ea 00 	call	0x1d4	; 0x1d4 <LED_off>
}
     256:	df 91       	pop	r29
     258:	cf 91       	pop	r28
     25a:	1f 91       	pop	r17
     25c:	0f 91       	pop	r16
     25e:	08 95       	ret

00000260 <LED_hor_plane_on>:

void LED_hor_plane_on(int level)
{
     260:	0f 93       	push	r16
     262:	1f 93       	push	r17
     264:	cf 93       	push	r28
     266:	df 93       	push	r29
     268:	8c 01       	movw	r16, r24
	for (int i = 1; i <10; i++)
     26a:	c1 e0       	ldi	r28, 0x01	; 1
     26c:	d0 e0       	ldi	r29, 0x00	; 0
	{
		LED_On(level,i);
     26e:	be 01       	movw	r22, r28
     270:	c8 01       	movw	r24, r16
     272:	0e 94 01 01 	call	0x202	; 0x202 <LED_On>
	LED_off(level,num);
}

void LED_hor_plane_on(int level)
{
	for (int i = 1; i <10; i++)
     276:	21 96       	adiw	r28, 0x01	; 1
     278:	ca 30       	cpi	r28, 0x0A	; 10
     27a:	d1 05       	cpc	r29, r1
     27c:	c1 f7       	brne	.-16     	; 0x26e <LED_hor_plane_on+0xe>
	{
		LED_On(level,i);
	}	
}
     27e:	df 91       	pop	r29
     280:	cf 91       	pop	r28
     282:	1f 91       	pop	r17
     284:	0f 91       	pop	r16
     286:	08 95       	ret

00000288 <Test_all_LEDs>:
#define FillCubedel 40
#define OneByOneLEDOndel 10
#define DrawLinedel 100
int cnt = 0;
void Test_all_LEDs()
{
     288:	af 92       	push	r10
     28a:	bf 92       	push	r11
     28c:	cf 92       	push	r12
     28e:	df 92       	push	r13
     290:	ef 92       	push	r14
     292:	ff 92       	push	r15
     294:	0f 93       	push	r16
     296:	1f 93       	push	r17
     298:	cf 93       	push	r28
     29a:	df 93       	push	r29
	for(int j = 0 ; j< 3;j++)
     29c:	e1 2c       	mov	r14, r1
     29e:	f1 2c       	mov	r15, r1
#define FillCubedel 40
#define OneByOneLEDOndel 10
#define DrawLinedel 100
int cnt = 0;
void Test_all_LEDs()
{
     2a0:	aa 24       	eor	r10, r10
     2a2:	a3 94       	inc	r10
     2a4:	b1 2c       	mov	r11, r1
     2a6:	0f 2e       	mov	r0, r31
     2a8:	f6 e9       	ldi	r31, 0x96	; 150
     2aa:	cf 2e       	mov	r12, r31
     2ac:	f0 2d       	mov	r31, r0
     2ae:	d1 2c       	mov	r13, r1
     2b0:	16 c0       	rjmp	.+44     	; 0x2de <Test_all_LEDs+0x56>
	{
		for (int i = 1; i <=9; i++)
		{
			for (int cnt = 0; cnt < del*10; cnt++)
			{
				LED_On(j,i);
     2b2:	b8 01       	movw	r22, r16
     2b4:	c7 01       	movw	r24, r14
     2b6:	0e 94 01 01 	call	0x202	; 0x202 <LED_On>
     2ba:	21 97       	sbiw	r28, 0x01	; 1
{
	for(int j = 0 ; j< 3;j++)
	{
		for (int i = 1; i <=9; i++)
		{
			for (int cnt = 0; cnt < del*10; cnt++)
     2bc:	20 97       	sbiw	r28, 0x00	; 0
     2be:	c9 f7       	brne	.-14     	; 0x2b2 <Test_all_LEDs+0x2a>
int cnt = 0;
void Test_all_LEDs()
{
	for(int j = 0 ; j< 3;j++)
	{
		for (int i = 1; i <=9; i++)
     2c0:	0f 5f       	subi	r16, 0xFF	; 255
     2c2:	1f 4f       	sbci	r17, 0xFF	; 255
     2c4:	0a 30       	cpi	r16, 0x0A	; 10
     2c6:	11 05       	cpc	r17, r1
     2c8:	19 f0       	breq	.+6      	; 0x2d0 <Test_all_LEDs+0x48>
#define FillCubedel 40
#define OneByOneLEDOndel 10
#define DrawLinedel 100
int cnt = 0;
void Test_all_LEDs()
{
     2ca:	cc 2d       	mov	r28, r12
     2cc:	dd 2d       	mov	r29, r13
     2ce:	f1 cf       	rjmp	.-30     	; 0x2b2 <Test_all_LEDs+0x2a>
	for(int j = 0 ; j< 3;j++)
     2d0:	8f ef       	ldi	r24, 0xFF	; 255
     2d2:	e8 1a       	sub	r14, r24
     2d4:	f8 0a       	sbc	r15, r24
     2d6:	83 e0       	ldi	r24, 0x03	; 3
     2d8:	e8 16       	cp	r14, r24
     2da:	f1 04       	cpc	r15, r1
     2dc:	19 f0       	breq	.+6      	; 0x2e4 <Test_all_LEDs+0x5c>
#define FillCubedel 40
#define OneByOneLEDOndel 10
#define DrawLinedel 100
int cnt = 0;
void Test_all_LEDs()
{
     2de:	0a 2d       	mov	r16, r10
     2e0:	1b 2d       	mov	r17, r11
     2e2:	f3 cf       	rjmp	.-26     	; 0x2ca <Test_all_LEDs+0x42>
				LED_On(j,i);
			}
		}
		
	}
}
     2e4:	df 91       	pop	r29
     2e6:	cf 91       	pop	r28
     2e8:	1f 91       	pop	r17
     2ea:	0f 91       	pop	r16
     2ec:	ff 90       	pop	r15
     2ee:	ef 90       	pop	r14
     2f0:	df 90       	pop	r13
     2f2:	cf 90       	pop	r12
     2f4:	bf 90       	pop	r11
     2f6:	af 90       	pop	r10
     2f8:	08 95       	ret

000002fa <Rectangle_loop>:

void Rectangle_loop()
{	
     2fa:	cf 93       	push	r28
     2fc:	df 93       	push	r29
     2fe:	cf e0       	ldi	r28, 0x0F	; 15
     300:	d0 e0       	ldi	r29, 0x00	; 0
	for (int cnt = 0; cnt < del; cnt++)
	{
		LED_hor_plane_on(1);
     302:	81 e0       	ldi	r24, 0x01	; 1
     304:	90 e0       	ldi	r25, 0x00	; 0
     306:	0e 94 30 01 	call	0x260	; 0x260 <LED_hor_plane_on>
     30a:	21 97       	sbiw	r28, 0x01	; 1
	}
}

void Rectangle_loop()
{	
	for (int cnt = 0; cnt < del; cnt++)
     30c:	20 97       	sbiw	r28, 0x00	; 0
     30e:	c9 f7       	brne	.-14     	; 0x302 <Rectangle_loop+0x8>
     310:	cf e0       	ldi	r28, 0x0F	; 15
     312:	d0 e0       	ldi	r29, 0x00	; 0
	}
	
	
	for (int cnt = 0; cnt < del; cnt++)
	{
		LED_On(0,1);
     314:	61 e0       	ldi	r22, 0x01	; 1
     316:	70 e0       	ldi	r23, 0x00	; 0
     318:	80 e0       	ldi	r24, 0x00	; 0
     31a:	90 e0       	ldi	r25, 0x00	; 0
     31c:	0e 94 01 01 	call	0x202	; 0x202 <LED_On>
		LED_On(0,2);
     320:	62 e0       	ldi	r22, 0x02	; 2
     322:	70 e0       	ldi	r23, 0x00	; 0
     324:	80 e0       	ldi	r24, 0x00	; 0
     326:	90 e0       	ldi	r25, 0x00	; 0
     328:	0e 94 01 01 	call	0x202	; 0x202 <LED_On>
		LED_On(0,3);
     32c:	63 e0       	ldi	r22, 0x03	; 3
     32e:	70 e0       	ldi	r23, 0x00	; 0
     330:	80 e0       	ldi	r24, 0x00	; 0
     332:	90 e0       	ldi	r25, 0x00	; 0
     334:	0e 94 01 01 	call	0x202	; 0x202 <LED_On>
		LED_On(1,4);
     338:	64 e0       	ldi	r22, 0x04	; 4
     33a:	70 e0       	ldi	r23, 0x00	; 0
     33c:	81 e0       	ldi	r24, 0x01	; 1
     33e:	90 e0       	ldi	r25, 0x00	; 0
     340:	0e 94 01 01 	call	0x202	; 0x202 <LED_On>
		LED_On(1,5);
     344:	65 e0       	ldi	r22, 0x05	; 5
     346:	70 e0       	ldi	r23, 0x00	; 0
     348:	81 e0       	ldi	r24, 0x01	; 1
     34a:	90 e0       	ldi	r25, 0x00	; 0
     34c:	0e 94 01 01 	call	0x202	; 0x202 <LED_On>
		LED_On(1,6);
     350:	66 e0       	ldi	r22, 0x06	; 6
     352:	70 e0       	ldi	r23, 0x00	; 0
     354:	81 e0       	ldi	r24, 0x01	; 1
     356:	90 e0       	ldi	r25, 0x00	; 0
     358:	0e 94 01 01 	call	0x202	; 0x202 <LED_On>
		LED_On(2,7);
     35c:	67 e0       	ldi	r22, 0x07	; 7
     35e:	70 e0       	ldi	r23, 0x00	; 0
     360:	82 e0       	ldi	r24, 0x02	; 2
     362:	90 e0       	ldi	r25, 0x00	; 0
     364:	0e 94 01 01 	call	0x202	; 0x202 <LED_On>
		LED_On(2,8);
     368:	68 e0       	ldi	r22, 0x08	; 8
     36a:	70 e0       	ldi	r23, 0x00	; 0
     36c:	82 e0       	ldi	r24, 0x02	; 2
     36e:	90 e0       	ldi	r25, 0x00	; 0
     370:	0e 94 01 01 	call	0x202	; 0x202 <LED_On>
		LED_On(2,9);
     374:	69 e0       	ldi	r22, 0x09	; 9
     376:	70 e0       	ldi	r23, 0x00	; 0
     378:	82 e0       	ldi	r24, 0x02	; 2
     37a:	90 e0       	ldi	r25, 0x00	; 0
     37c:	0e 94 01 01 	call	0x202	; 0x202 <LED_On>
     380:	21 97       	sbiw	r28, 0x01	; 1
	{
		LED_hor_plane_on(1);
	}
	
	
	for (int cnt = 0; cnt < del; cnt++)
     382:	20 97       	sbiw	r28, 0x00	; 0
     384:	39 f6       	brne	.-114    	; 0x314 <Rectangle_loop+0x1a>
     386:	cf e0       	ldi	r28, 0x0F	; 15
     388:	d0 e0       	ldi	r29, 0x00	; 0
		LED_On(2,9);
	}
	
	for (int cnt = 0; cnt < del; cnt++)
	{
		LED_On(0,4);
     38a:	64 e0       	ldi	r22, 0x04	; 4
     38c:	70 e0       	ldi	r23, 0x00	; 0
     38e:	80 e0       	ldi	r24, 0x00	; 0
     390:	90 e0       	ldi	r25, 0x00	; 0
     392:	0e 94 01 01 	call	0x202	; 0x202 <LED_On>
		LED_On(0,5);
     396:	65 e0       	ldi	r22, 0x05	; 5
     398:	70 e0       	ldi	r23, 0x00	; 0
     39a:	80 e0       	ldi	r24, 0x00	; 0
     39c:	90 e0       	ldi	r25, 0x00	; 0
     39e:	0e 94 01 01 	call	0x202	; 0x202 <LED_On>
		LED_On(0,6);
     3a2:	66 e0       	ldi	r22, 0x06	; 6
     3a4:	70 e0       	ldi	r23, 0x00	; 0
     3a6:	80 e0       	ldi	r24, 0x00	; 0
     3a8:	90 e0       	ldi	r25, 0x00	; 0
     3aa:	0e 94 01 01 	call	0x202	; 0x202 <LED_On>
		LED_On(1,4);
     3ae:	64 e0       	ldi	r22, 0x04	; 4
     3b0:	70 e0       	ldi	r23, 0x00	; 0
     3b2:	81 e0       	ldi	r24, 0x01	; 1
     3b4:	90 e0       	ldi	r25, 0x00	; 0
     3b6:	0e 94 01 01 	call	0x202	; 0x202 <LED_On>
		LED_On(1,5);
     3ba:	65 e0       	ldi	r22, 0x05	; 5
     3bc:	70 e0       	ldi	r23, 0x00	; 0
     3be:	81 e0       	ldi	r24, 0x01	; 1
     3c0:	90 e0       	ldi	r25, 0x00	; 0
     3c2:	0e 94 01 01 	call	0x202	; 0x202 <LED_On>
		LED_On(1,6);
     3c6:	66 e0       	ldi	r22, 0x06	; 6
     3c8:	70 e0       	ldi	r23, 0x00	; 0
     3ca:	81 e0       	ldi	r24, 0x01	; 1
     3cc:	90 e0       	ldi	r25, 0x00	; 0
     3ce:	0e 94 01 01 	call	0x202	; 0x202 <LED_On>
		LED_On(2,4);
     3d2:	64 e0       	ldi	r22, 0x04	; 4
     3d4:	70 e0       	ldi	r23, 0x00	; 0
     3d6:	82 e0       	ldi	r24, 0x02	; 2
     3d8:	90 e0       	ldi	r25, 0x00	; 0
     3da:	0e 94 01 01 	call	0x202	; 0x202 <LED_On>
		LED_On(2,5);
     3de:	65 e0       	ldi	r22, 0x05	; 5
     3e0:	70 e0       	ldi	r23, 0x00	; 0
     3e2:	82 e0       	ldi	r24, 0x02	; 2
     3e4:	90 e0       	ldi	r25, 0x00	; 0
     3e6:	0e 94 01 01 	call	0x202	; 0x202 <LED_On>
		LED_On(2,6);
     3ea:	66 e0       	ldi	r22, 0x06	; 6
     3ec:	70 e0       	ldi	r23, 0x00	; 0
     3ee:	82 e0       	ldi	r24, 0x02	; 2
     3f0:	90 e0       	ldi	r25, 0x00	; 0
     3f2:	0e 94 01 01 	call	0x202	; 0x202 <LED_On>
     3f6:	21 97       	sbiw	r28, 0x01	; 1
		LED_On(2,7);
		LED_On(2,8);
		LED_On(2,9);
	}
	
	for (int cnt = 0; cnt < del; cnt++)
     3f8:	20 97       	sbiw	r28, 0x00	; 0
     3fa:	39 f6       	brne	.-114    	; 0x38a <Rectangle_loop+0x90>
     3fc:	cf e0       	ldi	r28, 0x0F	; 15
     3fe:	d0 e0       	ldi	r29, 0x00	; 0
		LED_On(2,6);
	}
	
	for (int cnt = 0; cnt < del; cnt++)
	{
		LED_On(0,7);
     400:	67 e0       	ldi	r22, 0x07	; 7
     402:	70 e0       	ldi	r23, 0x00	; 0
     404:	80 e0       	ldi	r24, 0x00	; 0
     406:	90 e0       	ldi	r25, 0x00	; 0
     408:	0e 94 01 01 	call	0x202	; 0x202 <LED_On>
		LED_On(0,8);
     40c:	68 e0       	ldi	r22, 0x08	; 8
     40e:	70 e0       	ldi	r23, 0x00	; 0
     410:	80 e0       	ldi	r24, 0x00	; 0
     412:	90 e0       	ldi	r25, 0x00	; 0
     414:	0e 94 01 01 	call	0x202	; 0x202 <LED_On>
		LED_On(0,9);
     418:	69 e0       	ldi	r22, 0x09	; 9
     41a:	70 e0       	ldi	r23, 0x00	; 0
     41c:	80 e0       	ldi	r24, 0x00	; 0
     41e:	90 e0       	ldi	r25, 0x00	; 0
     420:	0e 94 01 01 	call	0x202	; 0x202 <LED_On>
		LED_On(1,4);
     424:	64 e0       	ldi	r22, 0x04	; 4
     426:	70 e0       	ldi	r23, 0x00	; 0
     428:	81 e0       	ldi	r24, 0x01	; 1
     42a:	90 e0       	ldi	r25, 0x00	; 0
     42c:	0e 94 01 01 	call	0x202	; 0x202 <LED_On>
		LED_On(1,5);
     430:	65 e0       	ldi	r22, 0x05	; 5
     432:	70 e0       	ldi	r23, 0x00	; 0
     434:	81 e0       	ldi	r24, 0x01	; 1
     436:	90 e0       	ldi	r25, 0x00	; 0
     438:	0e 94 01 01 	call	0x202	; 0x202 <LED_On>
		LED_On(1,6);
     43c:	66 e0       	ldi	r22, 0x06	; 6
     43e:	70 e0       	ldi	r23, 0x00	; 0
     440:	81 e0       	ldi	r24, 0x01	; 1
     442:	90 e0       	ldi	r25, 0x00	; 0
     444:	0e 94 01 01 	call	0x202	; 0x202 <LED_On>
		LED_On(2,1);
     448:	61 e0       	ldi	r22, 0x01	; 1
     44a:	70 e0       	ldi	r23, 0x00	; 0
     44c:	82 e0       	ldi	r24, 0x02	; 2
     44e:	90 e0       	ldi	r25, 0x00	; 0
     450:	0e 94 01 01 	call	0x202	; 0x202 <LED_On>
		LED_On(2,2);
     454:	62 e0       	ldi	r22, 0x02	; 2
     456:	70 e0       	ldi	r23, 0x00	; 0
     458:	82 e0       	ldi	r24, 0x02	; 2
     45a:	90 e0       	ldi	r25, 0x00	; 0
     45c:	0e 94 01 01 	call	0x202	; 0x202 <LED_On>
		LED_On(2,3);
     460:	63 e0       	ldi	r22, 0x03	; 3
     462:	70 e0       	ldi	r23, 0x00	; 0
     464:	82 e0       	ldi	r24, 0x02	; 2
     466:	90 e0       	ldi	r25, 0x00	; 0
     468:	0e 94 01 01 	call	0x202	; 0x202 <LED_On>
     46c:	21 97       	sbiw	r28, 0x01	; 1
		LED_On(2,4);
		LED_On(2,5);
		LED_On(2,6);
	}
	
	for (int cnt = 0; cnt < del; cnt++)
     46e:	20 97       	sbiw	r28, 0x00	; 0
     470:	39 f6       	brne	.-114    	; 0x400 <Rectangle_loop+0x106>
		LED_On(2,1);
		LED_On(2,2);
		LED_On(2,3);
	}

}
     472:	df 91       	pop	r29
     474:	cf 91       	pop	r28
     476:	08 95       	ret

00000478 <Fall>:

void Fall()
{
     478:	0f 93       	push	r16
     47a:	1f 93       	push	r17
     47c:	cf 93       	push	r28
     47e:	df 93       	push	r29
	cnt = 0;
     480:	10 92 05 02 	sts	0x0205, r1
     484:	10 92 04 02 	sts	0x0204, r1
	while (cnt<fall_dell)
	{
		LED_hor_plane_on(0);
     488:	80 e0       	ldi	r24, 0x00	; 0
     48a:	90 e0       	ldi	r25, 0x00	; 0
     48c:	0e 94 30 01 	call	0x260	; 0x260 <LED_hor_plane_on>
		cnt++;
     490:	80 91 04 02 	lds	r24, 0x0204
     494:	90 91 05 02 	lds	r25, 0x0205
     498:	01 96       	adiw	r24, 0x01	; 1
     49a:	90 93 05 02 	sts	0x0205, r25
     49e:	80 93 04 02 	sts	0x0204, r24
}

void Fall()
{
	cnt = 0;
	while (cnt<fall_dell)
     4a2:	0f 97       	sbiw	r24, 0x0f	; 15
     4a4:	8c f3       	brlt	.-30     	; 0x488 <Fall+0x10>
	{
		LED_hor_plane_on(0);
		cnt++;
	}
	cnt = 0;
     4a6:	10 92 05 02 	sts	0x0205, r1
     4aa:	10 92 04 02 	sts	0x0204, r1
	while (cnt<fall_dell)
	{
		LED_hor_plane_on(1);
     4ae:	81 e0       	ldi	r24, 0x01	; 1
     4b0:	90 e0       	ldi	r25, 0x00	; 0
     4b2:	0e 94 30 01 	call	0x260	; 0x260 <LED_hor_plane_on>
		cnt++;
     4b6:	80 91 04 02 	lds	r24, 0x0204
     4ba:	90 91 05 02 	lds	r25, 0x0205
     4be:	01 96       	adiw	r24, 0x01	; 1
     4c0:	90 93 05 02 	sts	0x0205, r25
     4c4:	80 93 04 02 	sts	0x0204, r24
	{
		LED_hor_plane_on(0);
		cnt++;
	}
	cnt = 0;
	while (cnt<fall_dell)
     4c8:	0f 97       	sbiw	r24, 0x0f	; 15
     4ca:	8c f3       	brlt	.-30     	; 0x4ae <Fall+0x36>
	{
		LED_hor_plane_on(1);
		cnt++;
	}
	cnt = 0;
     4cc:	10 92 05 02 	sts	0x0205, r1
     4d0:	10 92 04 02 	sts	0x0204, r1
     4d4:	c4 e6       	ldi	r28, 0x64	; 100
     4d6:	d0 e0       	ldi	r29, 0x00	; 0
	for (int i = 0;i<100;i++)
	{
		LED_hor_plane_on(2);
     4d8:	82 e0       	ldi	r24, 0x02	; 2
     4da:	90 e0       	ldi	r25, 0x00	; 0
     4dc:	0e 94 30 01 	call	0x260	; 0x260 <LED_hor_plane_on>
     4e0:	21 97       	sbiw	r28, 0x01	; 1
	{
		LED_hor_plane_on(1);
		cnt++;
	}
	cnt = 0;
	for (int i = 0;i<100;i++)
     4e2:	20 97       	sbiw	r28, 0x00	; 0
     4e4:	c9 f7       	brne	.-14     	; 0x4d8 <Fall+0x60>
	{
		LED_hor_plane_on(2);
	}
	
//--------------------------------------	
	while (cnt<fall_dell)
     4e6:	80 91 04 02 	lds	r24, 0x0204
     4ea:	90 91 05 02 	lds	r25, 0x0205
     4ee:	0f 97       	sbiw	r24, 0x0f	; 15
     4f0:	0c f0       	brlt	.+2      	; 0x4f4 <Fall+0x7c>
     4f2:	22 c4       	rjmp	.+2116   	; 0xd38 <Fall+0x8c0>
	{
		LED_On(1,9);
		for (int i = 0; i < 9; i ++)
     4f4:	00 e0       	ldi	r16, 0x00	; 0
     4f6:	10 e0       	ldi	r17, 0x00	; 0
	}
	
//--------------------------------------	
	while (cnt<fall_dell)
	{
		LED_On(1,9);
     4f8:	69 e0       	ldi	r22, 0x09	; 9
     4fa:	70 e0       	ldi	r23, 0x00	; 0
     4fc:	81 e0       	ldi	r24, 0x01	; 1
     4fe:	90 e0       	ldi	r25, 0x00	; 0
     500:	0e 94 01 01 	call	0x202	; 0x202 <LED_On>
		for (int i = 0; i < 9; i ++)
     504:	c0 2f       	mov	r28, r16
     506:	d1 2f       	mov	r29, r17
		{
			LED_On(2,i);
     508:	be 01       	movw	r22, r28
     50a:	82 e0       	ldi	r24, 0x02	; 2
     50c:	90 e0       	ldi	r25, 0x00	; 0
     50e:	0e 94 01 01 	call	0x202	; 0x202 <LED_On>
	
//--------------------------------------	
	while (cnt<fall_dell)
	{
		LED_On(1,9);
		for (int i = 0; i < 9; i ++)
     512:	21 96       	adiw	r28, 0x01	; 1
     514:	c9 30       	cpi	r28, 0x09	; 9
     516:	d1 05       	cpc	r29, r1
     518:	b9 f7       	brne	.-18     	; 0x508 <Fall+0x90>
		{
			LED_On(2,i);
			
		}
		cnt++;
     51a:	80 91 04 02 	lds	r24, 0x0204
     51e:	90 91 05 02 	lds	r25, 0x0205
     522:	01 96       	adiw	r24, 0x01	; 1
     524:	90 93 05 02 	sts	0x0205, r25
     528:	80 93 04 02 	sts	0x0204, r24
	{
		LED_hor_plane_on(2);
	}
	
//--------------------------------------	
	while (cnt<fall_dell)
     52c:	0f 97       	sbiw	r24, 0x0f	; 15
     52e:	24 f3       	brlt	.-56     	; 0x4f8 <Fall+0x80>
			
		}
		cnt++;
		
	}
	cnt = 0;
     530:	10 92 05 02 	sts	0x0205, r1
     534:	10 92 04 02 	sts	0x0204, r1
     538:	03 c4       	rjmp	.+2054   	; 0xd40 <Fall+0x8c8>
	while (cnt<fall_dell)
	{
		for (int i = 0; i < 9; i ++)
		{
			LED_On(2,i);
     53a:	be 01       	movw	r22, r28
     53c:	82 e0       	ldi	r24, 0x02	; 2
     53e:	90 e0       	ldi	r25, 0x00	; 0
     540:	0e 94 01 01 	call	0x202	; 0x202 <LED_On>
		
	}
	cnt = 0;
	while (cnt<fall_dell)
	{
		for (int i = 0; i < 9; i ++)
     544:	21 96       	adiw	r28, 0x01	; 1
     546:	c9 30       	cpi	r28, 0x09	; 9
     548:	d1 05       	cpc	r29, r1
     54a:	b9 f7       	brne	.-18     	; 0x53a <Fall+0xc2>
		{
			LED_On(2,i);
		}
		LED_On(0,9);										//**
     54c:	69 e0       	ldi	r22, 0x09	; 9
     54e:	70 e0       	ldi	r23, 0x00	; 0
     550:	80 2f       	mov	r24, r16
     552:	91 2f       	mov	r25, r17
     554:	0e 94 01 01 	call	0x202	; 0x202 <LED_On>
		cnt++;
     558:	20 91 04 02 	lds	r18, 0x0204
     55c:	30 91 05 02 	lds	r19, 0x0205
     560:	2f 5f       	subi	r18, 0xFF	; 255
     562:	3f 4f       	sbci	r19, 0xFF	; 255
     564:	30 93 05 02 	sts	0x0205, r19
     568:	20 93 04 02 	sts	0x0204, r18
		}
		cnt++;
		
	}
	cnt = 0;
	while (cnt<fall_dell)
     56c:	2f 30       	cpi	r18, 0x0F	; 15
     56e:	31 05       	cpc	r19, r1
     570:	1c f4       	brge	.+6      	; 0x578 <Fall+0x100>
	
//--------------------------------------	
	while (cnt<fall_dell)
	{
		LED_On(1,9);
		for (int i = 0; i < 9; i ++)
     572:	c0 2f       	mov	r28, r16
     574:	d1 2f       	mov	r29, r17
     576:	e1 cf       	rjmp	.-62     	; 0x53a <Fall+0xc2>
			LED_On(2,i);
		}
		LED_On(0,9);										//**
		cnt++;
	}
	cnt = 0;
     578:	10 92 05 02 	sts	0x0205, r1
     57c:	10 92 04 02 	sts	0x0204, r1

//--------------------------------------
while (cnt<fall_dell)
{
	LED_On(0,9);
     580:	69 e0       	ldi	r22, 0x09	; 9
     582:	70 e0       	ldi	r23, 0x00	; 0
     584:	80 e0       	ldi	r24, 0x00	; 0
     586:	90 e0       	ldi	r25, 0x00	; 0
     588:	0e 94 01 01 	call	0x202	; 0x202 <LED_On>
	LED_On(1,8);
     58c:	68 e0       	ldi	r22, 0x08	; 8
     58e:	70 e0       	ldi	r23, 0x00	; 0
     590:	81 e0       	ldi	r24, 0x01	; 1
     592:	90 e0       	ldi	r25, 0x00	; 0
     594:	0e 94 01 01 	call	0x202	; 0x202 <LED_On>
	for (int i = 0; i < 8; i ++)
     598:	c0 e0       	ldi	r28, 0x00	; 0
     59a:	d0 e0       	ldi	r29, 0x00	; 0
	{
		LED_On(2,i);
     59c:	be 01       	movw	r22, r28
     59e:	82 e0       	ldi	r24, 0x02	; 2
     5a0:	90 e0       	ldi	r25, 0x00	; 0
     5a2:	0e 94 01 01 	call	0x202	; 0x202 <LED_On>
//--------------------------------------
while (cnt<fall_dell)
{
	LED_On(0,9);
	LED_On(1,8);
	for (int i = 0; i < 8; i ++)
     5a6:	21 96       	adiw	r28, 0x01	; 1
     5a8:	c8 30       	cpi	r28, 0x08	; 8
     5aa:	d1 05       	cpc	r29, r1
     5ac:	b9 f7       	brne	.-18     	; 0x59c <Fall+0x124>
	{
		LED_On(2,i);
		
	}
	cnt++;
     5ae:	80 91 04 02 	lds	r24, 0x0204
     5b2:	90 91 05 02 	lds	r25, 0x0205
     5b6:	01 96       	adiw	r24, 0x01	; 1
     5b8:	90 93 05 02 	sts	0x0205, r25
     5bc:	80 93 04 02 	sts	0x0204, r24
		cnt++;
	}
	cnt = 0;

//--------------------------------------
while (cnt<fall_dell)
     5c0:	0f 97       	sbiw	r24, 0x0f	; 15
     5c2:	f4 f2       	brlt	.-68     	; 0x580 <Fall+0x108>
		
	}
	cnt++;
	
}
cnt = 0;
     5c4:	10 92 05 02 	sts	0x0205, r1
     5c8:	10 92 04 02 	sts	0x0204, r1
//--------------------------------------
while (cnt<fall_dell)
{
	LED_On(0,9);
	LED_On(1,8);
	for (int i = 0; i < 8; i ++)
     5cc:	00 e0       	ldi	r16, 0x00	; 0
     5ce:	10 e0       	ldi	r17, 0x00	; 0
     5d0:	22 c0       	rjmp	.+68     	; 0x616 <Fall+0x19e>
cnt = 0;
while (cnt<fall_dell)
{
	for (int i = 0; i < 8; i ++)
	{
		LED_On(2,i);
     5d2:	be 01       	movw	r22, r28
     5d4:	82 e0       	ldi	r24, 0x02	; 2
     5d6:	90 e0       	ldi	r25, 0x00	; 0
     5d8:	0e 94 01 01 	call	0x202	; 0x202 <LED_On>
	
}
cnt = 0;
while (cnt<fall_dell)
{
	for (int i = 0; i < 8; i ++)
     5dc:	21 96       	adiw	r28, 0x01	; 1
     5de:	c8 30       	cpi	r28, 0x08	; 8
     5e0:	d1 05       	cpc	r29, r1
     5e2:	b9 f7       	brne	.-18     	; 0x5d2 <Fall+0x15a>
	{
		LED_On(2,i);
	}
	LED_On(0,9);
     5e4:	69 e0       	ldi	r22, 0x09	; 9
     5e6:	70 e0       	ldi	r23, 0x00	; 0
     5e8:	80 2f       	mov	r24, r16
     5ea:	91 2f       	mov	r25, r17
     5ec:	0e 94 01 01 	call	0x202	; 0x202 <LED_On>
	LED_On(0,8);											//**
     5f0:	68 e0       	ldi	r22, 0x08	; 8
     5f2:	70 e0       	ldi	r23, 0x00	; 0
     5f4:	80 2f       	mov	r24, r16
     5f6:	91 2f       	mov	r25, r17
     5f8:	0e 94 01 01 	call	0x202	; 0x202 <LED_On>
	cnt++;
     5fc:	20 91 04 02 	lds	r18, 0x0204
     600:	30 91 05 02 	lds	r19, 0x0205
     604:	2f 5f       	subi	r18, 0xFF	; 255
     606:	3f 4f       	sbci	r19, 0xFF	; 255
     608:	30 93 05 02 	sts	0x0205, r19
     60c:	20 93 04 02 	sts	0x0204, r18
	}
	cnt++;
	
}
cnt = 0;
while (cnt<fall_dell)
     610:	2f 30       	cpi	r18, 0x0F	; 15
     612:	31 05       	cpc	r19, r1
     614:	1c f4       	brge	.+6      	; 0x61c <Fall+0x1a4>
//--------------------------------------
while (cnt<fall_dell)
{
	LED_On(0,9);
	LED_On(1,8);
	for (int i = 0; i < 8; i ++)
     616:	c0 2f       	mov	r28, r16
     618:	d1 2f       	mov	r29, r17
     61a:	db cf       	rjmp	.-74     	; 0x5d2 <Fall+0x15a>
	}
	LED_On(0,9);
	LED_On(0,8);											//**
	cnt++;
}
cnt = 0;
     61c:	10 92 05 02 	sts	0x0205, r1
     620:	10 92 04 02 	sts	0x0204, r1
//--------------------------------------
while (cnt<fall_dell)
{
	LED_On(1,7);
     624:	67 e0       	ldi	r22, 0x07	; 7
     626:	70 e0       	ldi	r23, 0x00	; 0
     628:	81 e0       	ldi	r24, 0x01	; 1
     62a:	90 e0       	ldi	r25, 0x00	; 0
     62c:	0e 94 01 01 	call	0x202	; 0x202 <LED_On>
	LED_On(0,9);
     630:	69 e0       	ldi	r22, 0x09	; 9
     632:	70 e0       	ldi	r23, 0x00	; 0
     634:	80 e0       	ldi	r24, 0x00	; 0
     636:	90 e0       	ldi	r25, 0x00	; 0
     638:	0e 94 01 01 	call	0x202	; 0x202 <LED_On>
	LED_On(0,8);
     63c:	68 e0       	ldi	r22, 0x08	; 8
     63e:	70 e0       	ldi	r23, 0x00	; 0
     640:	80 e0       	ldi	r24, 0x00	; 0
     642:	90 e0       	ldi	r25, 0x00	; 0
     644:	0e 94 01 01 	call	0x202	; 0x202 <LED_On>
	for (int i = 0; i < 7; i ++)
     648:	c0 e0       	ldi	r28, 0x00	; 0
     64a:	d0 e0       	ldi	r29, 0x00	; 0
	{
		LED_On(2,i);
     64c:	be 01       	movw	r22, r28
     64e:	82 e0       	ldi	r24, 0x02	; 2
     650:	90 e0       	ldi	r25, 0x00	; 0
     652:	0e 94 01 01 	call	0x202	; 0x202 <LED_On>
while (cnt<fall_dell)
{
	LED_On(1,7);
	LED_On(0,9);
	LED_On(0,8);
	for (int i = 0; i < 7; i ++)
     656:	21 96       	adiw	r28, 0x01	; 1
     658:	c7 30       	cpi	r28, 0x07	; 7
     65a:	d1 05       	cpc	r29, r1
     65c:	b9 f7       	brne	.-18     	; 0x64c <Fall+0x1d4>
	{
		LED_On(2,i);
		
	}
	cnt++;
     65e:	80 91 04 02 	lds	r24, 0x0204
     662:	90 91 05 02 	lds	r25, 0x0205
     666:	01 96       	adiw	r24, 0x01	; 1
     668:	90 93 05 02 	sts	0x0205, r25
     66c:	80 93 04 02 	sts	0x0204, r24
	LED_On(0,8);											//**
	cnt++;
}
cnt = 0;
//--------------------------------------
while (cnt<fall_dell)
     670:	0f 97       	sbiw	r24, 0x0f	; 15
     672:	c4 f2       	brlt	.-80     	; 0x624 <Fall+0x1ac>
		
	}
	cnt++;
	
}
cnt = 0;
     674:	10 92 05 02 	sts	0x0205, r1
     678:	10 92 04 02 	sts	0x0204, r1
while (cnt<fall_dell)
{
	LED_On(1,7);
	LED_On(0,9);
	LED_On(0,8);
	for (int i = 0; i < 7; i ++)
     67c:	00 e0       	ldi	r16, 0x00	; 0
     67e:	10 e0       	ldi	r17, 0x00	; 0
     680:	28 c0       	rjmp	.+80     	; 0x6d2 <Fall+0x25a>
cnt = 0;
while (cnt<fall_dell)
{
	for (int i = 0; i < 7; i ++)
	{
		LED_On(2,i);
     682:	be 01       	movw	r22, r28
     684:	82 e0       	ldi	r24, 0x02	; 2
     686:	90 e0       	ldi	r25, 0x00	; 0
     688:	0e 94 01 01 	call	0x202	; 0x202 <LED_On>
	
}
cnt = 0;
while (cnt<fall_dell)
{
	for (int i = 0; i < 7; i ++)
     68c:	21 96       	adiw	r28, 0x01	; 1
     68e:	c7 30       	cpi	r28, 0x07	; 7
     690:	d1 05       	cpc	r29, r1
     692:	b9 f7       	brne	.-18     	; 0x682 <Fall+0x20a>
	{
		LED_On(2,i);
	}
	LED_On(0,9);
     694:	69 e0       	ldi	r22, 0x09	; 9
     696:	70 e0       	ldi	r23, 0x00	; 0
     698:	80 2f       	mov	r24, r16
     69a:	91 2f       	mov	r25, r17
     69c:	0e 94 01 01 	call	0x202	; 0x202 <LED_On>
	LED_On(0,8);
     6a0:	68 e0       	ldi	r22, 0x08	; 8
     6a2:	70 e0       	ldi	r23, 0x00	; 0
     6a4:	80 2f       	mov	r24, r16
     6a6:	91 2f       	mov	r25, r17
     6a8:	0e 94 01 01 	call	0x202	; 0x202 <LED_On>
	LED_On(0,7);
     6ac:	67 e0       	ldi	r22, 0x07	; 7
     6ae:	70 e0       	ldi	r23, 0x00	; 0
     6b0:	80 2f       	mov	r24, r16
     6b2:	91 2f       	mov	r25, r17
     6b4:	0e 94 01 01 	call	0x202	; 0x202 <LED_On>
	cnt++;
     6b8:	20 91 04 02 	lds	r18, 0x0204
     6bc:	30 91 05 02 	lds	r19, 0x0205
     6c0:	2f 5f       	subi	r18, 0xFF	; 255
     6c2:	3f 4f       	sbci	r19, 0xFF	; 255
     6c4:	30 93 05 02 	sts	0x0205, r19
     6c8:	20 93 04 02 	sts	0x0204, r18
	}
	cnt++;
	
}
cnt = 0;
while (cnt<fall_dell)
     6cc:	2f 30       	cpi	r18, 0x0F	; 15
     6ce:	31 05       	cpc	r19, r1
     6d0:	1c f4       	brge	.+6      	; 0x6d8 <Fall+0x260>
while (cnt<fall_dell)
{
	LED_On(1,7);
	LED_On(0,9);
	LED_On(0,8);
	for (int i = 0; i < 7; i ++)
     6d2:	c0 2f       	mov	r28, r16
     6d4:	d1 2f       	mov	r29, r17
     6d6:	d5 cf       	rjmp	.-86     	; 0x682 <Fall+0x20a>
	LED_On(0,9);
	LED_On(0,8);
	LED_On(0,7);
	cnt++;
}
cnt = 0;
     6d8:	10 92 05 02 	sts	0x0205, r1
     6dc:	10 92 04 02 	sts	0x0204, r1
//--------------------------------------
while (cnt<fall_dell)
{
	LED_On(1,6);
     6e0:	66 e0       	ldi	r22, 0x06	; 6
     6e2:	70 e0       	ldi	r23, 0x00	; 0
     6e4:	81 e0       	ldi	r24, 0x01	; 1
     6e6:	90 e0       	ldi	r25, 0x00	; 0
     6e8:	0e 94 01 01 	call	0x202	; 0x202 <LED_On>
	LED_On(0,9);
     6ec:	69 e0       	ldi	r22, 0x09	; 9
     6ee:	70 e0       	ldi	r23, 0x00	; 0
     6f0:	80 e0       	ldi	r24, 0x00	; 0
     6f2:	90 e0       	ldi	r25, 0x00	; 0
     6f4:	0e 94 01 01 	call	0x202	; 0x202 <LED_On>
	LED_On(0,8);
     6f8:	68 e0       	ldi	r22, 0x08	; 8
     6fa:	70 e0       	ldi	r23, 0x00	; 0
     6fc:	80 e0       	ldi	r24, 0x00	; 0
     6fe:	90 e0       	ldi	r25, 0x00	; 0
     700:	0e 94 01 01 	call	0x202	; 0x202 <LED_On>
	LED_On(0,7);
     704:	67 e0       	ldi	r22, 0x07	; 7
     706:	70 e0       	ldi	r23, 0x00	; 0
     708:	80 e0       	ldi	r24, 0x00	; 0
     70a:	90 e0       	ldi	r25, 0x00	; 0
     70c:	0e 94 01 01 	call	0x202	; 0x202 <LED_On>
	for (int i = 0; i < 6; i ++)
     710:	c0 e0       	ldi	r28, 0x00	; 0
     712:	d0 e0       	ldi	r29, 0x00	; 0
	{
		LED_On(2,i);
     714:	be 01       	movw	r22, r28
     716:	82 e0       	ldi	r24, 0x02	; 2
     718:	90 e0       	ldi	r25, 0x00	; 0
     71a:	0e 94 01 01 	call	0x202	; 0x202 <LED_On>
{
	LED_On(1,6);
	LED_On(0,9);
	LED_On(0,8);
	LED_On(0,7);
	for (int i = 0; i < 6; i ++)
     71e:	21 96       	adiw	r28, 0x01	; 1
     720:	c6 30       	cpi	r28, 0x06	; 6
     722:	d1 05       	cpc	r29, r1
     724:	b9 f7       	brne	.-18     	; 0x714 <Fall+0x29c>
	{
		LED_On(2,i);
		
	}
	cnt++;
     726:	80 91 04 02 	lds	r24, 0x0204
     72a:	90 91 05 02 	lds	r25, 0x0205
     72e:	01 96       	adiw	r24, 0x01	; 1
     730:	90 93 05 02 	sts	0x0205, r25
     734:	80 93 04 02 	sts	0x0204, r24
	LED_On(0,7);
	cnt++;
}
cnt = 0;
//--------------------------------------
while (cnt<fall_dell)
     738:	0f 97       	sbiw	r24, 0x0f	; 15
     73a:	94 f2       	brlt	.-92     	; 0x6e0 <Fall+0x268>
		
	}
	cnt++;
	
}
cnt = 0;
     73c:	10 92 05 02 	sts	0x0205, r1
     740:	10 92 04 02 	sts	0x0204, r1
{
	LED_On(1,6);
	LED_On(0,9);
	LED_On(0,8);
	LED_On(0,7);
	for (int i = 0; i < 6; i ++)
     744:	00 e0       	ldi	r16, 0x00	; 0
     746:	10 e0       	ldi	r17, 0x00	; 0
     748:	2e c0       	rjmp	.+92     	; 0x7a6 <Fall+0x32e>
cnt = 0;
while (cnt<fall_dell)
{
	for (int i = 0; i < 6; i ++)
	{
		LED_On(2,i);
     74a:	be 01       	movw	r22, r28
     74c:	82 e0       	ldi	r24, 0x02	; 2
     74e:	90 e0       	ldi	r25, 0x00	; 0
     750:	0e 94 01 01 	call	0x202	; 0x202 <LED_On>
	
}
cnt = 0;
while (cnt<fall_dell)
{
	for (int i = 0; i < 6; i ++)
     754:	21 96       	adiw	r28, 0x01	; 1
     756:	c6 30       	cpi	r28, 0x06	; 6
     758:	d1 05       	cpc	r29, r1
     75a:	b9 f7       	brne	.-18     	; 0x74a <Fall+0x2d2>
	{
		LED_On(2,i);
	}
	LED_On(0,9);
     75c:	69 e0       	ldi	r22, 0x09	; 9
     75e:	70 e0       	ldi	r23, 0x00	; 0
     760:	80 2f       	mov	r24, r16
     762:	91 2f       	mov	r25, r17
     764:	0e 94 01 01 	call	0x202	; 0x202 <LED_On>
	LED_On(0,8);
     768:	68 e0       	ldi	r22, 0x08	; 8
     76a:	70 e0       	ldi	r23, 0x00	; 0
     76c:	80 2f       	mov	r24, r16
     76e:	91 2f       	mov	r25, r17
     770:	0e 94 01 01 	call	0x202	; 0x202 <LED_On>
	LED_On(0,7);
     774:	67 e0       	ldi	r22, 0x07	; 7
     776:	70 e0       	ldi	r23, 0x00	; 0
     778:	80 2f       	mov	r24, r16
     77a:	91 2f       	mov	r25, r17
     77c:	0e 94 01 01 	call	0x202	; 0x202 <LED_On>
	LED_On(0,6);
     780:	66 e0       	ldi	r22, 0x06	; 6
     782:	70 e0       	ldi	r23, 0x00	; 0
     784:	80 2f       	mov	r24, r16
     786:	91 2f       	mov	r25, r17
     788:	0e 94 01 01 	call	0x202	; 0x202 <LED_On>
	
	cnt++;
     78c:	20 91 04 02 	lds	r18, 0x0204
     790:	30 91 05 02 	lds	r19, 0x0205
     794:	2f 5f       	subi	r18, 0xFF	; 255
     796:	3f 4f       	sbci	r19, 0xFF	; 255
     798:	30 93 05 02 	sts	0x0205, r19
     79c:	20 93 04 02 	sts	0x0204, r18
	}
	cnt++;
	
}
cnt = 0;
while (cnt<fall_dell)
     7a0:	2f 30       	cpi	r18, 0x0F	; 15
     7a2:	31 05       	cpc	r19, r1
     7a4:	1c f4       	brge	.+6      	; 0x7ac <Fall+0x334>
{
	LED_On(1,6);
	LED_On(0,9);
	LED_On(0,8);
	LED_On(0,7);
	for (int i = 0; i < 6; i ++)
     7a6:	c0 2f       	mov	r28, r16
     7a8:	d1 2f       	mov	r29, r17
     7aa:	cf cf       	rjmp	.-98     	; 0x74a <Fall+0x2d2>
	LED_On(0,7);
	LED_On(0,6);
	
	cnt++;
}
cnt = 0;
     7ac:	10 92 05 02 	sts	0x0205, r1
     7b0:	10 92 04 02 	sts	0x0204, r1
//--------------------------------------
while (cnt<fall_dell)
{
	LED_On(1,5);
     7b4:	65 e0       	ldi	r22, 0x05	; 5
     7b6:	70 e0       	ldi	r23, 0x00	; 0
     7b8:	81 e0       	ldi	r24, 0x01	; 1
     7ba:	90 e0       	ldi	r25, 0x00	; 0
     7bc:	0e 94 01 01 	call	0x202	; 0x202 <LED_On>
	LED_On(0,9);
     7c0:	69 e0       	ldi	r22, 0x09	; 9
     7c2:	70 e0       	ldi	r23, 0x00	; 0
     7c4:	80 e0       	ldi	r24, 0x00	; 0
     7c6:	90 e0       	ldi	r25, 0x00	; 0
     7c8:	0e 94 01 01 	call	0x202	; 0x202 <LED_On>
	LED_On(0,8);
     7cc:	68 e0       	ldi	r22, 0x08	; 8
     7ce:	70 e0       	ldi	r23, 0x00	; 0
     7d0:	80 e0       	ldi	r24, 0x00	; 0
     7d2:	90 e0       	ldi	r25, 0x00	; 0
     7d4:	0e 94 01 01 	call	0x202	; 0x202 <LED_On>
	LED_On(0,7);
     7d8:	67 e0       	ldi	r22, 0x07	; 7
     7da:	70 e0       	ldi	r23, 0x00	; 0
     7dc:	80 e0       	ldi	r24, 0x00	; 0
     7de:	90 e0       	ldi	r25, 0x00	; 0
     7e0:	0e 94 01 01 	call	0x202	; 0x202 <LED_On>
	LED_On(0,6);
     7e4:	66 e0       	ldi	r22, 0x06	; 6
     7e6:	70 e0       	ldi	r23, 0x00	; 0
     7e8:	80 e0       	ldi	r24, 0x00	; 0
     7ea:	90 e0       	ldi	r25, 0x00	; 0
     7ec:	0e 94 01 01 	call	0x202	; 0x202 <LED_On>
	for (int i = 0; i < 5; i ++)
     7f0:	c0 e0       	ldi	r28, 0x00	; 0
     7f2:	d0 e0       	ldi	r29, 0x00	; 0
	{
		LED_On(2,i);
     7f4:	be 01       	movw	r22, r28
     7f6:	82 e0       	ldi	r24, 0x02	; 2
     7f8:	90 e0       	ldi	r25, 0x00	; 0
     7fa:	0e 94 01 01 	call	0x202	; 0x202 <LED_On>
	LED_On(1,5);
	LED_On(0,9);
	LED_On(0,8);
	LED_On(0,7);
	LED_On(0,6);
	for (int i = 0; i < 5; i ++)
     7fe:	21 96       	adiw	r28, 0x01	; 1
     800:	c5 30       	cpi	r28, 0x05	; 5
     802:	d1 05       	cpc	r29, r1
     804:	b9 f7       	brne	.-18     	; 0x7f4 <Fall+0x37c>
	{
		LED_On(2,i);
		
	}
	cnt++;
     806:	80 91 04 02 	lds	r24, 0x0204
     80a:	90 91 05 02 	lds	r25, 0x0205
     80e:	01 96       	adiw	r24, 0x01	; 1
     810:	90 93 05 02 	sts	0x0205, r25
     814:	80 93 04 02 	sts	0x0204, r24
	
	cnt++;
}
cnt = 0;
//--------------------------------------
while (cnt<fall_dell)
     818:	0f 97       	sbiw	r24, 0x0f	; 15
     81a:	64 f2       	brlt	.-104    	; 0x7b4 <Fall+0x33c>
		
	}
	cnt++;
	
}
cnt = 0;
     81c:	10 92 05 02 	sts	0x0205, r1
     820:	10 92 04 02 	sts	0x0204, r1
	LED_On(1,5);
	LED_On(0,9);
	LED_On(0,8);
	LED_On(0,7);
	LED_On(0,6);
	for (int i = 0; i < 5; i ++)
     824:	00 e0       	ldi	r16, 0x00	; 0
     826:	10 e0       	ldi	r17, 0x00	; 0
     828:	34 c0       	rjmp	.+104    	; 0x892 <Fall+0x41a>
cnt = 0;
while (cnt<fall_dell)
{
	for (int i = 0; i < 5; i ++)
	{
		LED_On(2,i);
     82a:	be 01       	movw	r22, r28
     82c:	82 e0       	ldi	r24, 0x02	; 2
     82e:	90 e0       	ldi	r25, 0x00	; 0
     830:	0e 94 01 01 	call	0x202	; 0x202 <LED_On>
	
}
cnt = 0;
while (cnt<fall_dell)
{
	for (int i = 0; i < 5; i ++)
     834:	21 96       	adiw	r28, 0x01	; 1
     836:	c5 30       	cpi	r28, 0x05	; 5
     838:	d1 05       	cpc	r29, r1
     83a:	b9 f7       	brne	.-18     	; 0x82a <Fall+0x3b2>
	{
		LED_On(2,i);
	}
	LED_On(0,9);
     83c:	69 e0       	ldi	r22, 0x09	; 9
     83e:	70 e0       	ldi	r23, 0x00	; 0
     840:	80 2f       	mov	r24, r16
     842:	91 2f       	mov	r25, r17
     844:	0e 94 01 01 	call	0x202	; 0x202 <LED_On>
	LED_On(0,8);
     848:	68 e0       	ldi	r22, 0x08	; 8
     84a:	70 e0       	ldi	r23, 0x00	; 0
     84c:	80 2f       	mov	r24, r16
     84e:	91 2f       	mov	r25, r17
     850:	0e 94 01 01 	call	0x202	; 0x202 <LED_On>
	LED_On(0,7);
     854:	67 e0       	ldi	r22, 0x07	; 7
     856:	70 e0       	ldi	r23, 0x00	; 0
     858:	80 2f       	mov	r24, r16
     85a:	91 2f       	mov	r25, r17
     85c:	0e 94 01 01 	call	0x202	; 0x202 <LED_On>
	LED_On(0,6);
     860:	66 e0       	ldi	r22, 0x06	; 6
     862:	70 e0       	ldi	r23, 0x00	; 0
     864:	80 2f       	mov	r24, r16
     866:	91 2f       	mov	r25, r17
     868:	0e 94 01 01 	call	0x202	; 0x202 <LED_On>
	LED_On(0,5);
     86c:	65 e0       	ldi	r22, 0x05	; 5
     86e:	70 e0       	ldi	r23, 0x00	; 0
     870:	80 2f       	mov	r24, r16
     872:	91 2f       	mov	r25, r17
     874:	0e 94 01 01 	call	0x202	; 0x202 <LED_On>
	cnt++;
     878:	20 91 04 02 	lds	r18, 0x0204
     87c:	30 91 05 02 	lds	r19, 0x0205
     880:	2f 5f       	subi	r18, 0xFF	; 255
     882:	3f 4f       	sbci	r19, 0xFF	; 255
     884:	30 93 05 02 	sts	0x0205, r19
     888:	20 93 04 02 	sts	0x0204, r18
	}
	cnt++;
	
}
cnt = 0;
while (cnt<fall_dell)
     88c:	2f 30       	cpi	r18, 0x0F	; 15
     88e:	31 05       	cpc	r19, r1
     890:	1c f4       	brge	.+6      	; 0x898 <Fall+0x420>
	LED_On(1,5);
	LED_On(0,9);
	LED_On(0,8);
	LED_On(0,7);
	LED_On(0,6);
	for (int i = 0; i < 5; i ++)
     892:	c0 2f       	mov	r28, r16
     894:	d1 2f       	mov	r29, r17
     896:	c9 cf       	rjmp	.-110    	; 0x82a <Fall+0x3b2>
	LED_On(0,7);
	LED_On(0,6);
	LED_On(0,5);
	cnt++;
}
cnt = 0;
     898:	10 92 05 02 	sts	0x0205, r1
     89c:	10 92 04 02 	sts	0x0204, r1
//--------------------------------------
while (cnt<fall_dell)
{
	LED_On(1,4);
     8a0:	64 e0       	ldi	r22, 0x04	; 4
     8a2:	70 e0       	ldi	r23, 0x00	; 0
     8a4:	81 e0       	ldi	r24, 0x01	; 1
     8a6:	90 e0       	ldi	r25, 0x00	; 0
     8a8:	0e 94 01 01 	call	0x202	; 0x202 <LED_On>
	LED_On(0,9);
     8ac:	69 e0       	ldi	r22, 0x09	; 9
     8ae:	70 e0       	ldi	r23, 0x00	; 0
     8b0:	80 e0       	ldi	r24, 0x00	; 0
     8b2:	90 e0       	ldi	r25, 0x00	; 0
     8b4:	0e 94 01 01 	call	0x202	; 0x202 <LED_On>
	LED_On(0,8);
     8b8:	68 e0       	ldi	r22, 0x08	; 8
     8ba:	70 e0       	ldi	r23, 0x00	; 0
     8bc:	80 e0       	ldi	r24, 0x00	; 0
     8be:	90 e0       	ldi	r25, 0x00	; 0
     8c0:	0e 94 01 01 	call	0x202	; 0x202 <LED_On>
	LED_On(0,7);
     8c4:	67 e0       	ldi	r22, 0x07	; 7
     8c6:	70 e0       	ldi	r23, 0x00	; 0
     8c8:	80 e0       	ldi	r24, 0x00	; 0
     8ca:	90 e0       	ldi	r25, 0x00	; 0
     8cc:	0e 94 01 01 	call	0x202	; 0x202 <LED_On>
	LED_On(0,6);
     8d0:	66 e0       	ldi	r22, 0x06	; 6
     8d2:	70 e0       	ldi	r23, 0x00	; 0
     8d4:	80 e0       	ldi	r24, 0x00	; 0
     8d6:	90 e0       	ldi	r25, 0x00	; 0
     8d8:	0e 94 01 01 	call	0x202	; 0x202 <LED_On>
	LED_On(0,5);
     8dc:	65 e0       	ldi	r22, 0x05	; 5
     8de:	70 e0       	ldi	r23, 0x00	; 0
     8e0:	80 e0       	ldi	r24, 0x00	; 0
     8e2:	90 e0       	ldi	r25, 0x00	; 0
     8e4:	0e 94 01 01 	call	0x202	; 0x202 <LED_On>
	for (int i = 0; i < 4; i ++)
     8e8:	c0 e0       	ldi	r28, 0x00	; 0
     8ea:	d0 e0       	ldi	r29, 0x00	; 0
	{
		LED_On(2,i);
     8ec:	be 01       	movw	r22, r28
     8ee:	82 e0       	ldi	r24, 0x02	; 2
     8f0:	90 e0       	ldi	r25, 0x00	; 0
     8f2:	0e 94 01 01 	call	0x202	; 0x202 <LED_On>
	LED_On(0,9);
	LED_On(0,8);
	LED_On(0,7);
	LED_On(0,6);
	LED_On(0,5);
	for (int i = 0; i < 4; i ++)
     8f6:	21 96       	adiw	r28, 0x01	; 1
     8f8:	c4 30       	cpi	r28, 0x04	; 4
     8fa:	d1 05       	cpc	r29, r1
     8fc:	b9 f7       	brne	.-18     	; 0x8ec <Fall+0x474>
	{
		LED_On(2,i);
		
	}
	cnt++;
     8fe:	80 91 04 02 	lds	r24, 0x0204
     902:	90 91 05 02 	lds	r25, 0x0205
     906:	01 96       	adiw	r24, 0x01	; 1
     908:	90 93 05 02 	sts	0x0205, r25
     90c:	80 93 04 02 	sts	0x0204, r24
	LED_On(0,5);
	cnt++;
}
cnt = 0;
//--------------------------------------
while (cnt<fall_dell)
     910:	0f 97       	sbiw	r24, 0x0f	; 15
     912:	34 f2       	brlt	.-116    	; 0x8a0 <Fall+0x428>
		
	}
	cnt++;
	
}
cnt = 0;
     914:	10 92 05 02 	sts	0x0205, r1
     918:	10 92 04 02 	sts	0x0204, r1
	LED_On(0,9);
	LED_On(0,8);
	LED_On(0,7);
	LED_On(0,6);
	LED_On(0,5);
	for (int i = 0; i < 4; i ++)
     91c:	00 e0       	ldi	r16, 0x00	; 0
     91e:	10 e0       	ldi	r17, 0x00	; 0
     920:	3a c0       	rjmp	.+116    	; 0x996 <Fall+0x51e>
cnt = 0;
while (cnt<fall_dell)
{
	for (int i = 0; i < 4; i ++)
	{
		LED_On(2,i);
     922:	be 01       	movw	r22, r28
     924:	82 e0       	ldi	r24, 0x02	; 2
     926:	90 e0       	ldi	r25, 0x00	; 0
     928:	0e 94 01 01 	call	0x202	; 0x202 <LED_On>
	
}
cnt = 0;
while (cnt<fall_dell)
{
	for (int i = 0; i < 4; i ++)
     92c:	21 96       	adiw	r28, 0x01	; 1
     92e:	c4 30       	cpi	r28, 0x04	; 4
     930:	d1 05       	cpc	r29, r1
     932:	b9 f7       	brne	.-18     	; 0x922 <Fall+0x4aa>
	{
		LED_On(2,i);
	}
	LED_On(0,9);
     934:	69 e0       	ldi	r22, 0x09	; 9
     936:	70 e0       	ldi	r23, 0x00	; 0
     938:	80 2f       	mov	r24, r16
     93a:	91 2f       	mov	r25, r17
     93c:	0e 94 01 01 	call	0x202	; 0x202 <LED_On>
	LED_On(0,8);
     940:	68 e0       	ldi	r22, 0x08	; 8
     942:	70 e0       	ldi	r23, 0x00	; 0
     944:	80 2f       	mov	r24, r16
     946:	91 2f       	mov	r25, r17
     948:	0e 94 01 01 	call	0x202	; 0x202 <LED_On>
	LED_On(0,7);
     94c:	67 e0       	ldi	r22, 0x07	; 7
     94e:	70 e0       	ldi	r23, 0x00	; 0
     950:	80 2f       	mov	r24, r16
     952:	91 2f       	mov	r25, r17
     954:	0e 94 01 01 	call	0x202	; 0x202 <LED_On>
	LED_On(0,6);
     958:	66 e0       	ldi	r22, 0x06	; 6
     95a:	70 e0       	ldi	r23, 0x00	; 0
     95c:	80 2f       	mov	r24, r16
     95e:	91 2f       	mov	r25, r17
     960:	0e 94 01 01 	call	0x202	; 0x202 <LED_On>
	LED_On(0,5);
     964:	65 e0       	ldi	r22, 0x05	; 5
     966:	70 e0       	ldi	r23, 0x00	; 0
     968:	80 2f       	mov	r24, r16
     96a:	91 2f       	mov	r25, r17
     96c:	0e 94 01 01 	call	0x202	; 0x202 <LED_On>
	LED_On(0,4);
     970:	64 e0       	ldi	r22, 0x04	; 4
     972:	70 e0       	ldi	r23, 0x00	; 0
     974:	80 2f       	mov	r24, r16
     976:	91 2f       	mov	r25, r17
     978:	0e 94 01 01 	call	0x202	; 0x202 <LED_On>
	cnt++;
     97c:	20 91 04 02 	lds	r18, 0x0204
     980:	30 91 05 02 	lds	r19, 0x0205
     984:	2f 5f       	subi	r18, 0xFF	; 255
     986:	3f 4f       	sbci	r19, 0xFF	; 255
     988:	30 93 05 02 	sts	0x0205, r19
     98c:	20 93 04 02 	sts	0x0204, r18
	}
	cnt++;
	
}
cnt = 0;
while (cnt<fall_dell)
     990:	2f 30       	cpi	r18, 0x0F	; 15
     992:	31 05       	cpc	r19, r1
     994:	1c f4       	brge	.+6      	; 0x99c <Fall+0x524>
	LED_On(0,9);
	LED_On(0,8);
	LED_On(0,7);
	LED_On(0,6);
	LED_On(0,5);
	for (int i = 0; i < 4; i ++)
     996:	c0 2f       	mov	r28, r16
     998:	d1 2f       	mov	r29, r17
     99a:	c3 cf       	rjmp	.-122    	; 0x922 <Fall+0x4aa>
	LED_On(0,6);
	LED_On(0,5);
	LED_On(0,4);
	cnt++;
}
cnt = 0;
     99c:	10 92 05 02 	sts	0x0205, r1
     9a0:	10 92 04 02 	sts	0x0204, r1
//--------------------------------------
while (cnt<fall_dell)
{
	LED_On(1,3);
     9a4:	63 e0       	ldi	r22, 0x03	; 3
     9a6:	70 e0       	ldi	r23, 0x00	; 0
     9a8:	81 e0       	ldi	r24, 0x01	; 1
     9aa:	90 e0       	ldi	r25, 0x00	; 0
     9ac:	0e 94 01 01 	call	0x202	; 0x202 <LED_On>
	LED_On(0,9);
     9b0:	69 e0       	ldi	r22, 0x09	; 9
     9b2:	70 e0       	ldi	r23, 0x00	; 0
     9b4:	80 e0       	ldi	r24, 0x00	; 0
     9b6:	90 e0       	ldi	r25, 0x00	; 0
     9b8:	0e 94 01 01 	call	0x202	; 0x202 <LED_On>
	LED_On(0,8);
     9bc:	68 e0       	ldi	r22, 0x08	; 8
     9be:	70 e0       	ldi	r23, 0x00	; 0
     9c0:	80 e0       	ldi	r24, 0x00	; 0
     9c2:	90 e0       	ldi	r25, 0x00	; 0
     9c4:	0e 94 01 01 	call	0x202	; 0x202 <LED_On>
	LED_On(0,7);
     9c8:	67 e0       	ldi	r22, 0x07	; 7
     9ca:	70 e0       	ldi	r23, 0x00	; 0
     9cc:	80 e0       	ldi	r24, 0x00	; 0
     9ce:	90 e0       	ldi	r25, 0x00	; 0
     9d0:	0e 94 01 01 	call	0x202	; 0x202 <LED_On>
	LED_On(0,6);
     9d4:	66 e0       	ldi	r22, 0x06	; 6
     9d6:	70 e0       	ldi	r23, 0x00	; 0
     9d8:	80 e0       	ldi	r24, 0x00	; 0
     9da:	90 e0       	ldi	r25, 0x00	; 0
     9dc:	0e 94 01 01 	call	0x202	; 0x202 <LED_On>
	LED_On(0,5);
     9e0:	65 e0       	ldi	r22, 0x05	; 5
     9e2:	70 e0       	ldi	r23, 0x00	; 0
     9e4:	80 e0       	ldi	r24, 0x00	; 0
     9e6:	90 e0       	ldi	r25, 0x00	; 0
     9e8:	0e 94 01 01 	call	0x202	; 0x202 <LED_On>
	LED_On(0,4);
     9ec:	64 e0       	ldi	r22, 0x04	; 4
     9ee:	70 e0       	ldi	r23, 0x00	; 0
     9f0:	80 e0       	ldi	r24, 0x00	; 0
     9f2:	90 e0       	ldi	r25, 0x00	; 0
     9f4:	0e 94 01 01 	call	0x202	; 0x202 <LED_On>
	for (int i = 0; i < 3; i ++)
	{
		LED_On(2,i);
     9f8:	60 e0       	ldi	r22, 0x00	; 0
     9fa:	70 e0       	ldi	r23, 0x00	; 0
     9fc:	82 e0       	ldi	r24, 0x02	; 2
     9fe:	90 e0       	ldi	r25, 0x00	; 0
     a00:	0e 94 01 01 	call	0x202	; 0x202 <LED_On>
     a04:	61 e0       	ldi	r22, 0x01	; 1
     a06:	70 e0       	ldi	r23, 0x00	; 0
     a08:	82 e0       	ldi	r24, 0x02	; 2
     a0a:	90 e0       	ldi	r25, 0x00	; 0
     a0c:	0e 94 01 01 	call	0x202	; 0x202 <LED_On>
     a10:	62 e0       	ldi	r22, 0x02	; 2
     a12:	70 e0       	ldi	r23, 0x00	; 0
     a14:	82 e0       	ldi	r24, 0x02	; 2
     a16:	90 e0       	ldi	r25, 0x00	; 0
     a18:	0e 94 01 01 	call	0x202	; 0x202 <LED_On>
		
	}
	cnt++;
     a1c:	80 91 04 02 	lds	r24, 0x0204
     a20:	90 91 05 02 	lds	r25, 0x0205
     a24:	01 96       	adiw	r24, 0x01	; 1
     a26:	90 93 05 02 	sts	0x0205, r25
     a2a:	80 93 04 02 	sts	0x0204, r24
	LED_On(0,4);
	cnt++;
}
cnt = 0;
//--------------------------------------
while (cnt<fall_dell)
     a2e:	0f 97       	sbiw	r24, 0x0f	; 15
     a30:	0c f4       	brge	.+2      	; 0xa34 <Fall+0x5bc>
     a32:	b8 cf       	rjmp	.-144    	; 0x9a4 <Fall+0x52c>
		
	}
	cnt++;
	
}
cnt = 0;
     a34:	10 92 05 02 	sts	0x0205, r1
     a38:	10 92 04 02 	sts	0x0204, r1
while (cnt<fall_dell)
{
	for (int i = 0; i < 3; i ++)
	{
		LED_On(2,i);
     a3c:	60 e0       	ldi	r22, 0x00	; 0
     a3e:	70 e0       	ldi	r23, 0x00	; 0
     a40:	82 e0       	ldi	r24, 0x02	; 2
     a42:	90 e0       	ldi	r25, 0x00	; 0
     a44:	0e 94 01 01 	call	0x202	; 0x202 <LED_On>
     a48:	61 e0       	ldi	r22, 0x01	; 1
     a4a:	70 e0       	ldi	r23, 0x00	; 0
     a4c:	82 e0       	ldi	r24, 0x02	; 2
     a4e:	90 e0       	ldi	r25, 0x00	; 0
     a50:	0e 94 01 01 	call	0x202	; 0x202 <LED_On>
     a54:	62 e0       	ldi	r22, 0x02	; 2
     a56:	70 e0       	ldi	r23, 0x00	; 0
     a58:	82 e0       	ldi	r24, 0x02	; 2
     a5a:	90 e0       	ldi	r25, 0x00	; 0
     a5c:	0e 94 01 01 	call	0x202	; 0x202 <LED_On>
	}
	LED_On(0,9);
     a60:	69 e0       	ldi	r22, 0x09	; 9
     a62:	70 e0       	ldi	r23, 0x00	; 0
     a64:	80 e0       	ldi	r24, 0x00	; 0
     a66:	90 e0       	ldi	r25, 0x00	; 0
     a68:	0e 94 01 01 	call	0x202	; 0x202 <LED_On>
	LED_On(0,8);
     a6c:	68 e0       	ldi	r22, 0x08	; 8
     a6e:	70 e0       	ldi	r23, 0x00	; 0
     a70:	80 e0       	ldi	r24, 0x00	; 0
     a72:	90 e0       	ldi	r25, 0x00	; 0
     a74:	0e 94 01 01 	call	0x202	; 0x202 <LED_On>
	LED_On(0,7);
     a78:	67 e0       	ldi	r22, 0x07	; 7
     a7a:	70 e0       	ldi	r23, 0x00	; 0
     a7c:	80 e0       	ldi	r24, 0x00	; 0
     a7e:	90 e0       	ldi	r25, 0x00	; 0
     a80:	0e 94 01 01 	call	0x202	; 0x202 <LED_On>
	LED_On(0,6);
     a84:	66 e0       	ldi	r22, 0x06	; 6
     a86:	70 e0       	ldi	r23, 0x00	; 0
     a88:	80 e0       	ldi	r24, 0x00	; 0
     a8a:	90 e0       	ldi	r25, 0x00	; 0
     a8c:	0e 94 01 01 	call	0x202	; 0x202 <LED_On>
	LED_On(0,5);
     a90:	65 e0       	ldi	r22, 0x05	; 5
     a92:	70 e0       	ldi	r23, 0x00	; 0
     a94:	80 e0       	ldi	r24, 0x00	; 0
     a96:	90 e0       	ldi	r25, 0x00	; 0
     a98:	0e 94 01 01 	call	0x202	; 0x202 <LED_On>
	LED_On(0,4);
     a9c:	64 e0       	ldi	r22, 0x04	; 4
     a9e:	70 e0       	ldi	r23, 0x00	; 0
     aa0:	80 e0       	ldi	r24, 0x00	; 0
     aa2:	90 e0       	ldi	r25, 0x00	; 0
     aa4:	0e 94 01 01 	call	0x202	; 0x202 <LED_On>
	LED_On(0,3);
     aa8:	63 e0       	ldi	r22, 0x03	; 3
     aaa:	70 e0       	ldi	r23, 0x00	; 0
     aac:	80 e0       	ldi	r24, 0x00	; 0
     aae:	90 e0       	ldi	r25, 0x00	; 0
     ab0:	0e 94 01 01 	call	0x202	; 0x202 <LED_On>
	cnt++;
     ab4:	80 91 04 02 	lds	r24, 0x0204
     ab8:	90 91 05 02 	lds	r25, 0x0205
     abc:	01 96       	adiw	r24, 0x01	; 1
     abe:	90 93 05 02 	sts	0x0205, r25
     ac2:	80 93 04 02 	sts	0x0204, r24
	}
	cnt++;
	
}
cnt = 0;
while (cnt<fall_dell)
     ac6:	0f 97       	sbiw	r24, 0x0f	; 15
     ac8:	0c f4       	brge	.+2      	; 0xacc <Fall+0x654>
     aca:	b8 cf       	rjmp	.-144    	; 0xa3c <Fall+0x5c4>
	LED_On(0,5);
	LED_On(0,4);
	LED_On(0,3);
	cnt++;
}
cnt = 0;
     acc:	10 92 05 02 	sts	0x0205, r1
     ad0:	10 92 04 02 	sts	0x0204, r1
//--------------------------------------
while (cnt<fall_dell)
{
	LED_On(1,2);
     ad4:	62 e0       	ldi	r22, 0x02	; 2
     ad6:	70 e0       	ldi	r23, 0x00	; 0
     ad8:	81 e0       	ldi	r24, 0x01	; 1
     ada:	90 e0       	ldi	r25, 0x00	; 0
     adc:	0e 94 01 01 	call	0x202	; 0x202 <LED_On>
	LED_On(0,9);
     ae0:	69 e0       	ldi	r22, 0x09	; 9
     ae2:	70 e0       	ldi	r23, 0x00	; 0
     ae4:	80 e0       	ldi	r24, 0x00	; 0
     ae6:	90 e0       	ldi	r25, 0x00	; 0
     ae8:	0e 94 01 01 	call	0x202	; 0x202 <LED_On>
	LED_On(0,8);
     aec:	68 e0       	ldi	r22, 0x08	; 8
     aee:	70 e0       	ldi	r23, 0x00	; 0
     af0:	80 e0       	ldi	r24, 0x00	; 0
     af2:	90 e0       	ldi	r25, 0x00	; 0
     af4:	0e 94 01 01 	call	0x202	; 0x202 <LED_On>
	LED_On(0,7);
     af8:	67 e0       	ldi	r22, 0x07	; 7
     afa:	70 e0       	ldi	r23, 0x00	; 0
     afc:	80 e0       	ldi	r24, 0x00	; 0
     afe:	90 e0       	ldi	r25, 0x00	; 0
     b00:	0e 94 01 01 	call	0x202	; 0x202 <LED_On>
	LED_On(0,6);
     b04:	66 e0       	ldi	r22, 0x06	; 6
     b06:	70 e0       	ldi	r23, 0x00	; 0
     b08:	80 e0       	ldi	r24, 0x00	; 0
     b0a:	90 e0       	ldi	r25, 0x00	; 0
     b0c:	0e 94 01 01 	call	0x202	; 0x202 <LED_On>
	LED_On(0,5);
     b10:	65 e0       	ldi	r22, 0x05	; 5
     b12:	70 e0       	ldi	r23, 0x00	; 0
     b14:	80 e0       	ldi	r24, 0x00	; 0
     b16:	90 e0       	ldi	r25, 0x00	; 0
     b18:	0e 94 01 01 	call	0x202	; 0x202 <LED_On>
	LED_On(0,4);
     b1c:	64 e0       	ldi	r22, 0x04	; 4
     b1e:	70 e0       	ldi	r23, 0x00	; 0
     b20:	80 e0       	ldi	r24, 0x00	; 0
     b22:	90 e0       	ldi	r25, 0x00	; 0
     b24:	0e 94 01 01 	call	0x202	; 0x202 <LED_On>
	LED_On(0,3);
     b28:	63 e0       	ldi	r22, 0x03	; 3
     b2a:	70 e0       	ldi	r23, 0x00	; 0
     b2c:	80 e0       	ldi	r24, 0x00	; 0
     b2e:	90 e0       	ldi	r25, 0x00	; 0
     b30:	0e 94 01 01 	call	0x202	; 0x202 <LED_On>
	for (int i = 0; i < 2; i ++)
	{
		LED_On(2,i);
     b34:	60 e0       	ldi	r22, 0x00	; 0
     b36:	70 e0       	ldi	r23, 0x00	; 0
     b38:	82 e0       	ldi	r24, 0x02	; 2
     b3a:	90 e0       	ldi	r25, 0x00	; 0
     b3c:	0e 94 01 01 	call	0x202	; 0x202 <LED_On>
     b40:	61 e0       	ldi	r22, 0x01	; 1
     b42:	70 e0       	ldi	r23, 0x00	; 0
     b44:	82 e0       	ldi	r24, 0x02	; 2
     b46:	90 e0       	ldi	r25, 0x00	; 0
     b48:	0e 94 01 01 	call	0x202	; 0x202 <LED_On>
		
	}
	cnt++;
     b4c:	80 91 04 02 	lds	r24, 0x0204
     b50:	90 91 05 02 	lds	r25, 0x0205
     b54:	01 96       	adiw	r24, 0x01	; 1
     b56:	90 93 05 02 	sts	0x0205, r25
     b5a:	80 93 04 02 	sts	0x0204, r24
	LED_On(0,3);
	cnt++;
}
cnt = 0;
//--------------------------------------
while (cnt<fall_dell)
     b5e:	0f 97       	sbiw	r24, 0x0f	; 15
     b60:	0c f4       	brge	.+2      	; 0xb64 <Fall+0x6ec>
     b62:	b8 cf       	rjmp	.-144    	; 0xad4 <Fall+0x65c>
		
	}
	cnt++;
	
}
cnt = 0;
     b64:	10 92 05 02 	sts	0x0205, r1
     b68:	10 92 04 02 	sts	0x0204, r1
while (cnt<fall_dell)
{
	for (int i = 0; i < 2; i ++)
	{
		LED_On(2,i);
     b6c:	60 e0       	ldi	r22, 0x00	; 0
     b6e:	70 e0       	ldi	r23, 0x00	; 0
     b70:	82 e0       	ldi	r24, 0x02	; 2
     b72:	90 e0       	ldi	r25, 0x00	; 0
     b74:	0e 94 01 01 	call	0x202	; 0x202 <LED_On>
     b78:	61 e0       	ldi	r22, 0x01	; 1
     b7a:	70 e0       	ldi	r23, 0x00	; 0
     b7c:	82 e0       	ldi	r24, 0x02	; 2
     b7e:	90 e0       	ldi	r25, 0x00	; 0
     b80:	0e 94 01 01 	call	0x202	; 0x202 <LED_On>
	}
	LED_On(0,9);
     b84:	69 e0       	ldi	r22, 0x09	; 9
     b86:	70 e0       	ldi	r23, 0x00	; 0
     b88:	80 e0       	ldi	r24, 0x00	; 0
     b8a:	90 e0       	ldi	r25, 0x00	; 0
     b8c:	0e 94 01 01 	call	0x202	; 0x202 <LED_On>
	LED_On(0,8);
     b90:	68 e0       	ldi	r22, 0x08	; 8
     b92:	70 e0       	ldi	r23, 0x00	; 0
     b94:	80 e0       	ldi	r24, 0x00	; 0
     b96:	90 e0       	ldi	r25, 0x00	; 0
     b98:	0e 94 01 01 	call	0x202	; 0x202 <LED_On>
	LED_On(0,7);
     b9c:	67 e0       	ldi	r22, 0x07	; 7
     b9e:	70 e0       	ldi	r23, 0x00	; 0
     ba0:	80 e0       	ldi	r24, 0x00	; 0
     ba2:	90 e0       	ldi	r25, 0x00	; 0
     ba4:	0e 94 01 01 	call	0x202	; 0x202 <LED_On>
	LED_On(0,6);
     ba8:	66 e0       	ldi	r22, 0x06	; 6
     baa:	70 e0       	ldi	r23, 0x00	; 0
     bac:	80 e0       	ldi	r24, 0x00	; 0
     bae:	90 e0       	ldi	r25, 0x00	; 0
     bb0:	0e 94 01 01 	call	0x202	; 0x202 <LED_On>
	LED_On(0,5);
     bb4:	65 e0       	ldi	r22, 0x05	; 5
     bb6:	70 e0       	ldi	r23, 0x00	; 0
     bb8:	80 e0       	ldi	r24, 0x00	; 0
     bba:	90 e0       	ldi	r25, 0x00	; 0
     bbc:	0e 94 01 01 	call	0x202	; 0x202 <LED_On>
	LED_On(0,4);
     bc0:	64 e0       	ldi	r22, 0x04	; 4
     bc2:	70 e0       	ldi	r23, 0x00	; 0
     bc4:	80 e0       	ldi	r24, 0x00	; 0
     bc6:	90 e0       	ldi	r25, 0x00	; 0
     bc8:	0e 94 01 01 	call	0x202	; 0x202 <LED_On>
	LED_On(0,3);
     bcc:	63 e0       	ldi	r22, 0x03	; 3
     bce:	70 e0       	ldi	r23, 0x00	; 0
     bd0:	80 e0       	ldi	r24, 0x00	; 0
     bd2:	90 e0       	ldi	r25, 0x00	; 0
     bd4:	0e 94 01 01 	call	0x202	; 0x202 <LED_On>
	LED_On(0,2);
     bd8:	62 e0       	ldi	r22, 0x02	; 2
     bda:	70 e0       	ldi	r23, 0x00	; 0
     bdc:	80 e0       	ldi	r24, 0x00	; 0
     bde:	90 e0       	ldi	r25, 0x00	; 0
     be0:	0e 94 01 01 	call	0x202	; 0x202 <LED_On>
	cnt++;
     be4:	80 91 04 02 	lds	r24, 0x0204
     be8:	90 91 05 02 	lds	r25, 0x0205
     bec:	01 96       	adiw	r24, 0x01	; 1
     bee:	90 93 05 02 	sts	0x0205, r25
     bf2:	80 93 04 02 	sts	0x0204, r24
	}
	cnt++;
	
}
cnt = 0;
while (cnt<fall_dell)
     bf6:	0f 97       	sbiw	r24, 0x0f	; 15
     bf8:	0c f4       	brge	.+2      	; 0xbfc <Fall+0x784>
     bfa:	b8 cf       	rjmp	.-144    	; 0xb6c <Fall+0x6f4>
	LED_On(0,4);
	LED_On(0,3);
	LED_On(0,2);
	cnt++;
}
cnt = 0;
     bfc:	10 92 05 02 	sts	0x0205, r1
     c00:	10 92 04 02 	sts	0x0204, r1

//--------------------------------------
while (cnt<fall_dell)
{
	LED_On(1,1);
     c04:	61 e0       	ldi	r22, 0x01	; 1
     c06:	70 e0       	ldi	r23, 0x00	; 0
     c08:	81 e0       	ldi	r24, 0x01	; 1
     c0a:	90 e0       	ldi	r25, 0x00	; 0
     c0c:	0e 94 01 01 	call	0x202	; 0x202 <LED_On>
	LED_On(0,9);
     c10:	69 e0       	ldi	r22, 0x09	; 9
     c12:	70 e0       	ldi	r23, 0x00	; 0
     c14:	80 e0       	ldi	r24, 0x00	; 0
     c16:	90 e0       	ldi	r25, 0x00	; 0
     c18:	0e 94 01 01 	call	0x202	; 0x202 <LED_On>
	LED_On(0,8);
     c1c:	68 e0       	ldi	r22, 0x08	; 8
     c1e:	70 e0       	ldi	r23, 0x00	; 0
     c20:	80 e0       	ldi	r24, 0x00	; 0
     c22:	90 e0       	ldi	r25, 0x00	; 0
     c24:	0e 94 01 01 	call	0x202	; 0x202 <LED_On>
	LED_On(0,7);
     c28:	67 e0       	ldi	r22, 0x07	; 7
     c2a:	70 e0       	ldi	r23, 0x00	; 0
     c2c:	80 e0       	ldi	r24, 0x00	; 0
     c2e:	90 e0       	ldi	r25, 0x00	; 0
     c30:	0e 94 01 01 	call	0x202	; 0x202 <LED_On>
	LED_On(0,6);
     c34:	66 e0       	ldi	r22, 0x06	; 6
     c36:	70 e0       	ldi	r23, 0x00	; 0
     c38:	80 e0       	ldi	r24, 0x00	; 0
     c3a:	90 e0       	ldi	r25, 0x00	; 0
     c3c:	0e 94 01 01 	call	0x202	; 0x202 <LED_On>
	LED_On(0,5);
     c40:	65 e0       	ldi	r22, 0x05	; 5
     c42:	70 e0       	ldi	r23, 0x00	; 0
     c44:	80 e0       	ldi	r24, 0x00	; 0
     c46:	90 e0       	ldi	r25, 0x00	; 0
     c48:	0e 94 01 01 	call	0x202	; 0x202 <LED_On>
	LED_On(0,4);
     c4c:	64 e0       	ldi	r22, 0x04	; 4
     c4e:	70 e0       	ldi	r23, 0x00	; 0
     c50:	80 e0       	ldi	r24, 0x00	; 0
     c52:	90 e0       	ldi	r25, 0x00	; 0
     c54:	0e 94 01 01 	call	0x202	; 0x202 <LED_On>
	LED_On(0,3);
     c58:	63 e0       	ldi	r22, 0x03	; 3
     c5a:	70 e0       	ldi	r23, 0x00	; 0
     c5c:	80 e0       	ldi	r24, 0x00	; 0
     c5e:	90 e0       	ldi	r25, 0x00	; 0
     c60:	0e 94 01 01 	call	0x202	; 0x202 <LED_On>
	LED_On(0,2);
     c64:	62 e0       	ldi	r22, 0x02	; 2
     c66:	70 e0       	ldi	r23, 0x00	; 0
     c68:	80 e0       	ldi	r24, 0x00	; 0
     c6a:	90 e0       	ldi	r25, 0x00	; 0
     c6c:	0e 94 01 01 	call	0x202	; 0x202 <LED_On>
	for (int i = 0; i < 1; i ++)
	{
		LED_On(2,i);
     c70:	60 e0       	ldi	r22, 0x00	; 0
     c72:	70 e0       	ldi	r23, 0x00	; 0
     c74:	82 e0       	ldi	r24, 0x02	; 2
     c76:	90 e0       	ldi	r25, 0x00	; 0
     c78:	0e 94 01 01 	call	0x202	; 0x202 <LED_On>
		
	}
	cnt++;
     c7c:	80 91 04 02 	lds	r24, 0x0204
     c80:	90 91 05 02 	lds	r25, 0x0205
     c84:	01 96       	adiw	r24, 0x01	; 1
     c86:	90 93 05 02 	sts	0x0205, r25
     c8a:	80 93 04 02 	sts	0x0204, r24
	cnt++;
}
cnt = 0;

//--------------------------------------
while (cnt<fall_dell)
     c8e:	0f 97       	sbiw	r24, 0x0f	; 15
     c90:	0c f4       	brge	.+2      	; 0xc94 <Fall+0x81c>
     c92:	b8 cf       	rjmp	.-144    	; 0xc04 <Fall+0x78c>
		
	}
	cnt++;
	
}
cnt = 0;
     c94:	10 92 05 02 	sts	0x0205, r1
     c98:	10 92 04 02 	sts	0x0204, r1
while (cnt<fall_dell*10)
{
	for (int i = 0; i < 1; i ++)
	{
		LED_On(2,i);
     c9c:	60 e0       	ldi	r22, 0x00	; 0
     c9e:	70 e0       	ldi	r23, 0x00	; 0
     ca0:	82 e0       	ldi	r24, 0x02	; 2
     ca2:	90 e0       	ldi	r25, 0x00	; 0
     ca4:	0e 94 01 01 	call	0x202	; 0x202 <LED_On>
	}
	LED_On(0,9);
     ca8:	69 e0       	ldi	r22, 0x09	; 9
     caa:	70 e0       	ldi	r23, 0x00	; 0
     cac:	80 e0       	ldi	r24, 0x00	; 0
     cae:	90 e0       	ldi	r25, 0x00	; 0
     cb0:	0e 94 01 01 	call	0x202	; 0x202 <LED_On>
	LED_On(0,8);
     cb4:	68 e0       	ldi	r22, 0x08	; 8
     cb6:	70 e0       	ldi	r23, 0x00	; 0
     cb8:	80 e0       	ldi	r24, 0x00	; 0
     cba:	90 e0       	ldi	r25, 0x00	; 0
     cbc:	0e 94 01 01 	call	0x202	; 0x202 <LED_On>
	LED_On(0,7);
     cc0:	67 e0       	ldi	r22, 0x07	; 7
     cc2:	70 e0       	ldi	r23, 0x00	; 0
     cc4:	80 e0       	ldi	r24, 0x00	; 0
     cc6:	90 e0       	ldi	r25, 0x00	; 0
     cc8:	0e 94 01 01 	call	0x202	; 0x202 <LED_On>
	LED_On(0,6);
     ccc:	66 e0       	ldi	r22, 0x06	; 6
     cce:	70 e0       	ldi	r23, 0x00	; 0
     cd0:	80 e0       	ldi	r24, 0x00	; 0
     cd2:	90 e0       	ldi	r25, 0x00	; 0
     cd4:	0e 94 01 01 	call	0x202	; 0x202 <LED_On>
	LED_On(0,5);
     cd8:	65 e0       	ldi	r22, 0x05	; 5
     cda:	70 e0       	ldi	r23, 0x00	; 0
     cdc:	80 e0       	ldi	r24, 0x00	; 0
     cde:	90 e0       	ldi	r25, 0x00	; 0
     ce0:	0e 94 01 01 	call	0x202	; 0x202 <LED_On>
	LED_On(0,4);
     ce4:	64 e0       	ldi	r22, 0x04	; 4
     ce6:	70 e0       	ldi	r23, 0x00	; 0
     ce8:	80 e0       	ldi	r24, 0x00	; 0
     cea:	90 e0       	ldi	r25, 0x00	; 0
     cec:	0e 94 01 01 	call	0x202	; 0x202 <LED_On>
	LED_On(0,3);
     cf0:	63 e0       	ldi	r22, 0x03	; 3
     cf2:	70 e0       	ldi	r23, 0x00	; 0
     cf4:	80 e0       	ldi	r24, 0x00	; 0
     cf6:	90 e0       	ldi	r25, 0x00	; 0
     cf8:	0e 94 01 01 	call	0x202	; 0x202 <LED_On>
	LED_On(0,2);
     cfc:	62 e0       	ldi	r22, 0x02	; 2
     cfe:	70 e0       	ldi	r23, 0x00	; 0
     d00:	80 e0       	ldi	r24, 0x00	; 0
     d02:	90 e0       	ldi	r25, 0x00	; 0
     d04:	0e 94 01 01 	call	0x202	; 0x202 <LED_On>
	LED_On(0,1);
     d08:	61 e0       	ldi	r22, 0x01	; 1
     d0a:	70 e0       	ldi	r23, 0x00	; 0
     d0c:	80 e0       	ldi	r24, 0x00	; 0
     d0e:	90 e0       	ldi	r25, 0x00	; 0
     d10:	0e 94 01 01 	call	0x202	; 0x202 <LED_On>
	cnt++;
     d14:	80 91 04 02 	lds	r24, 0x0204
     d18:	90 91 05 02 	lds	r25, 0x0205
     d1c:	01 96       	adiw	r24, 0x01	; 1
     d1e:	90 93 05 02 	sts	0x0205, r25
     d22:	80 93 04 02 	sts	0x0204, r24
	}
	cnt++;
	
}
cnt = 0;
while (cnt<fall_dell*10)
     d26:	86 39       	cpi	r24, 0x96	; 150
     d28:	91 05       	cpc	r25, r1
     d2a:	0c f4       	brge	.+2      	; 0xd2e <Fall+0x8b6>
     d2c:	b7 cf       	rjmp	.-146    	; 0xc9c <Fall+0x824>
	LED_On(0,3);
	LED_On(0,2);
	LED_On(0,1);
	cnt++;
}
cnt = 0;
     d2e:	10 92 05 02 	sts	0x0205, r1
     d32:	10 92 04 02 	sts	0x0204, r1
     d36:	07 c0       	rjmp	.+14     	; 0xd46 <Fall+0x8ce>
			
		}
		cnt++;
		
	}
	cnt = 0;
     d38:	10 92 05 02 	sts	0x0205, r1
     d3c:	10 92 04 02 	sts	0x0204, r1
	
//--------------------------------------	
	while (cnt<fall_dell)
	{
		LED_On(1,9);
		for (int i = 0; i < 9; i ++)
     d40:	00 e0       	ldi	r16, 0x00	; 0
     d42:	10 e0       	ldi	r17, 0x00	; 0
     d44:	16 cc       	rjmp	.-2004   	; 0x572 <Fall+0xfa>
	LED_On(0,1);
	cnt++;
}
cnt = 0;

}
     d46:	df 91       	pop	r29
     d48:	cf 91       	pop	r28
     d4a:	1f 91       	pop	r17
     d4c:	0f 91       	pop	r16
     d4e:	08 95       	ret

00000d50 <PlaneShift>:

void PlaneShift()
{
     d50:	8f 92       	push	r8
     d52:	9f 92       	push	r9
     d54:	af 92       	push	r10
     d56:	bf 92       	push	r11
     d58:	cf 92       	push	r12
     d5a:	df 92       	push	r13
     d5c:	ef 92       	push	r14
     d5e:	ff 92       	push	r15
     d60:	0f 93       	push	r16
     d62:	1f 93       	push	r17
     d64:	cf 93       	push	r28
     d66:	df 93       	push	r29
	int i,j;
	cnt = 0;
     d68:	10 92 05 02 	sts	0x0205, r1
     d6c:	10 92 04 02 	sts	0x0204, r1
     d70:	05 e0       	ldi	r16, 0x05	; 5
     d72:	10 e0       	ldi	r17, 0x00	; 0
cnt = 0;

}

void PlaneShift()
{
     d74:	e1 2c       	mov	r14, r1
     d76:	f1 2c       	mov	r15, r1
     d78:	44 c0       	rjmp	.+136    	; 0xe02 <PlaneShift+0xb2>
	{
		for (i = 0; i < 3; i++)
		{
			while(cnt<PlaneShiftDel)
			{
				LED_hor_plane_on(i);
     d7a:	ce 01       	movw	r24, r28
     d7c:	0e 94 30 01 	call	0x260	; 0x260 <LED_hor_plane_on>
				cnt++;
     d80:	20 91 04 02 	lds	r18, 0x0204
     d84:	30 91 05 02 	lds	r19, 0x0205
     d88:	2f 5f       	subi	r18, 0xFF	; 255
     d8a:	3f 4f       	sbci	r19, 0xFF	; 255
     d8c:	30 93 05 02 	sts	0x0205, r19
     d90:	20 93 04 02 	sts	0x0204, r18
	cnt = 0;
	for (j = 0; j < 5; j++)
	{
		for (i = 0; i < 3; i++)
		{
			while(cnt<PlaneShiftDel)
     d94:	2a 30       	cpi	r18, 0x0A	; 10
     d96:	31 05       	cpc	r19, r1
     d98:	84 f3       	brlt	.-32     	; 0xd7a <PlaneShift+0x2a>
			{
				LED_hor_plane_on(i);
				cnt++;
			}
			cnt = 0;
     d9a:	e0 92 04 02 	sts	0x0204, r14
     d9e:	f0 92 05 02 	sts	0x0205, r15
{
	int i,j;
	cnt = 0;
	for (j = 0; j < 5; j++)
	{
		for (i = 0; i < 3; i++)
     da2:	21 96       	adiw	r28, 0x01	; 1
     da4:	c3 30       	cpi	r28, 0x03	; 3
     da6:	d1 05       	cpc	r29, r1
     da8:	39 f0       	breq	.+14     	; 0xdb8 <PlaneShift+0x68>
		{
			while(cnt<PlaneShiftDel)
     daa:	80 91 04 02 	lds	r24, 0x0204
     dae:	90 91 05 02 	lds	r25, 0x0205
     db2:	0a 97       	sbiw	r24, 0x0a	; 10
     db4:	14 f3       	brlt	.-60     	; 0xd7a <PlaneShift+0x2a>
     db6:	f1 cf       	rjmp	.-30     	; 0xd9a <PlaneShift+0x4a>
			cnt = 0;
		}
		
		while(cnt<PlaneShiftDel)
		{
			LED_hor_plane_on(1);
     db8:	81 e0       	ldi	r24, 0x01	; 1
     dba:	90 e0       	ldi	r25, 0x00	; 0
     dbc:	0e 94 30 01 	call	0x260	; 0x260 <LED_hor_plane_on>
			cnt++;
     dc0:	80 91 04 02 	lds	r24, 0x0204
     dc4:	90 91 05 02 	lds	r25, 0x0205
     dc8:	01 96       	adiw	r24, 0x01	; 1
     dca:	90 93 05 02 	sts	0x0205, r25
     dce:	80 93 04 02 	sts	0x0204, r24
				cnt++;
			}
			cnt = 0;
		}
		
		while(cnt<PlaneShiftDel)
     dd2:	0a 97       	sbiw	r24, 0x0a	; 10
     dd4:	8c f3       	brlt	.-30     	; 0xdb8 <PlaneShift+0x68>
		{
			LED_hor_plane_on(1);
			cnt++;
		}
		cnt = 0;
     dd6:	e0 92 04 02 	sts	0x0204, r14
     dda:	f0 92 05 02 	sts	0x0205, r15
     dde:	01 50       	subi	r16, 0x01	; 1
     de0:	11 09       	sbc	r17, r1

void PlaneShift()
{
	int i,j;
	cnt = 0;
	for (j = 0; j < 5; j++)
     de2:	01 15       	cp	r16, r1
     de4:	11 05       	cpc	r17, r1
     de6:	69 f4       	brne	.+26     	; 0xe02 <PlaneShift+0xb2>
     de8:	0f 2e       	mov	r0, r31
     dea:	f5 e0       	ldi	r31, 0x05	; 5
     dec:	ef 2e       	mov	r14, r31
     dee:	f1 2c       	mov	r15, r1
     df0:	f0 2d       	mov	r31, r0
		while(cnt<PlaneShiftDel)
		{
			for(int k = 0;k < 3; k++) for (i = 1;i < 5;i++)	LED_On(k,i);
			cnt++;
		}
		cnt = 0;
     df2:	81 2c       	mov	r8, r1
     df4:	91 2c       	mov	r9, r1
}

void PlaneShift()
{
	int i,j;
	cnt = 0;
     df6:	c8 2c       	mov	r12, r8
     df8:	d9 2c       	mov	r13, r9
     dfa:	aa 24       	eor	r10, r10
     dfc:	a3 94       	inc	r10
     dfe:	b1 2c       	mov	r11, r1
     e00:	9d c0       	rjmp	.+314    	; 0xf3c <PlaneShift+0x1ec>
cnt = 0;

}

void PlaneShift()
{
     e02:	ce 2d       	mov	r28, r14
     e04:	df 2d       	mov	r29, r15
     e06:	d1 cf       	rjmp	.-94     	; 0xdaa <PlaneShift+0x5a>
	
	for (j = 0; j < 5; j++)
	{
		while(cnt<PlaneShiftDel)
		{
			for(int k = 0;k < 3; k++) for (i = 1;i < 5;i++)	LED_On(k,i);
     e08:	be 01       	movw	r22, r28
     e0a:	c8 01       	movw	r24, r16
     e0c:	0e 94 01 01 	call	0x202	; 0x202 <LED_On>
     e10:	21 96       	adiw	r28, 0x01	; 1
     e12:	c5 30       	cpi	r28, 0x05	; 5
     e14:	d1 05       	cpc	r29, r1
     e16:	c1 f7       	brne	.-16     	; 0xe08 <PlaneShift+0xb8>
     e18:	0f 5f       	subi	r16, 0xFF	; 255
     e1a:	1f 4f       	sbci	r17, 0xFF	; 255
     e1c:	03 30       	cpi	r16, 0x03	; 3
     e1e:	11 05       	cpc	r17, r1
     e20:	19 f0       	breq	.+6      	; 0xe28 <PlaneShift+0xd8>
}

void PlaneShift()
{
	int i,j;
	cnt = 0;
     e22:	ca 2d       	mov	r28, r10
     e24:	db 2d       	mov	r29, r11
     e26:	f0 cf       	rjmp	.-32     	; 0xe08 <PlaneShift+0xb8>
	for (j = 0; j < 5; j++)
	{
		while(cnt<PlaneShiftDel)
		{
			for(int k = 0;k < 3; k++) for (i = 1;i < 5;i++)	LED_On(k,i);
			cnt++;
     e28:	80 91 04 02 	lds	r24, 0x0204
     e2c:	90 91 05 02 	lds	r25, 0x0205
     e30:	01 96       	adiw	r24, 0x01	; 1
     e32:	90 93 05 02 	sts	0x0205, r25
     e36:	80 93 04 02 	sts	0x0204, r24
	}
	
	
	for (j = 0; j < 5; j++)
	{
		while(cnt<PlaneShiftDel)
     e3a:	0a 97       	sbiw	r24, 0x0a	; 10
     e3c:	1c f4       	brge	.+6      	; 0xe44 <PlaneShift+0xf4>
}

void PlaneShift()
{
	int i,j;
	cnt = 0;
     e3e:	0c 2d       	mov	r16, r12
     e40:	1d 2d       	mov	r17, r13
     e42:	ef cf       	rjmp	.-34     	; 0xe22 <PlaneShift+0xd2>
		while(cnt<PlaneShiftDel)
		{
			for(int k = 0;k < 3; k++) for (i = 1;i < 5;i++)	LED_On(k,i);
			cnt++;
		}
		cnt = 0;
     e44:	80 92 04 02 	sts	0x0204, r8
     e48:	90 92 05 02 	sts	0x0205, r9
     e4c:	1e c0       	rjmp	.+60     	; 0xe8a <PlaneShift+0x13a>
		
		while(cnt<PlaneShiftDel)
		{
			for(int k = 0;k < 3; k++) for (i = 4;i < 7;i++)	LED_On(k,i);
     e4e:	64 e0       	ldi	r22, 0x04	; 4
     e50:	70 e0       	ldi	r23, 0x00	; 0
     e52:	ce 01       	movw	r24, r28
     e54:	0e 94 01 01 	call	0x202	; 0x202 <LED_On>
     e58:	65 e0       	ldi	r22, 0x05	; 5
     e5a:	70 e0       	ldi	r23, 0x00	; 0
     e5c:	ce 01       	movw	r24, r28
     e5e:	0e 94 01 01 	call	0x202	; 0x202 <LED_On>
     e62:	66 e0       	ldi	r22, 0x06	; 6
     e64:	70 e0       	ldi	r23, 0x00	; 0
     e66:	ce 01       	movw	r24, r28
     e68:	0e 94 01 01 	call	0x202	; 0x202 <LED_On>
     e6c:	21 96       	adiw	r28, 0x01	; 1
     e6e:	c3 30       	cpi	r28, 0x03	; 3
     e70:	d1 05       	cpc	r29, r1
     e72:	69 f7       	brne	.-38     	; 0xe4e <PlaneShift+0xfe>
			cnt++;
     e74:	80 91 04 02 	lds	r24, 0x0204
     e78:	90 91 05 02 	lds	r25, 0x0205
     e7c:	01 96       	adiw	r24, 0x01	; 1
     e7e:	90 93 05 02 	sts	0x0205, r25
     e82:	80 93 04 02 	sts	0x0204, r24
			for(int k = 0;k < 3; k++) for (i = 1;i < 5;i++)	LED_On(k,i);
			cnt++;
		}
		cnt = 0;
		
		while(cnt<PlaneShiftDel)
     e86:	0a 97       	sbiw	r24, 0x0a	; 10
     e88:	1c f4       	brge	.+6      	; 0xe90 <PlaneShift+0x140>
}

void PlaneShift()
{
	int i,j;
	cnt = 0;
     e8a:	cc 2d       	mov	r28, r12
     e8c:	dd 2d       	mov	r29, r13
     e8e:	df cf       	rjmp	.-66     	; 0xe4e <PlaneShift+0xfe>
		while(cnt<PlaneShiftDel)
		{
			for(int k = 0;k < 3; k++) for (i = 4;i < 7;i++)	LED_On(k,i);
			cnt++;
		}
		cnt = 0;
     e90:	80 92 04 02 	sts	0x0204, r8
     e94:	90 92 05 02 	sts	0x0205, r9
     e98:	1e c0       	rjmp	.+60     	; 0xed6 <PlaneShift+0x186>
		while(cnt<PlaneShiftDel)
		{
			for(int k = 0;k < 3; k++) for (i = 7;i < 10;i++)	LED_On(k,i);
     e9a:	67 e0       	ldi	r22, 0x07	; 7
     e9c:	70 e0       	ldi	r23, 0x00	; 0
     e9e:	ce 01       	movw	r24, r28
     ea0:	0e 94 01 01 	call	0x202	; 0x202 <LED_On>
     ea4:	68 e0       	ldi	r22, 0x08	; 8
     ea6:	70 e0       	ldi	r23, 0x00	; 0
     ea8:	ce 01       	movw	r24, r28
     eaa:	0e 94 01 01 	call	0x202	; 0x202 <LED_On>
     eae:	69 e0       	ldi	r22, 0x09	; 9
     eb0:	70 e0       	ldi	r23, 0x00	; 0
     eb2:	ce 01       	movw	r24, r28
     eb4:	0e 94 01 01 	call	0x202	; 0x202 <LED_On>
     eb8:	21 96       	adiw	r28, 0x01	; 1
     eba:	c3 30       	cpi	r28, 0x03	; 3
     ebc:	d1 05       	cpc	r29, r1
     ebe:	69 f7       	brne	.-38     	; 0xe9a <PlaneShift+0x14a>
			cnt++;
     ec0:	80 91 04 02 	lds	r24, 0x0204
     ec4:	90 91 05 02 	lds	r25, 0x0205
     ec8:	01 96       	adiw	r24, 0x01	; 1
     eca:	90 93 05 02 	sts	0x0205, r25
     ece:	80 93 04 02 	sts	0x0204, r24
		{
			for(int k = 0;k < 3; k++) for (i = 4;i < 7;i++)	LED_On(k,i);
			cnt++;
		}
		cnt = 0;
		while(cnt<PlaneShiftDel)
     ed2:	0a 97       	sbiw	r24, 0x0a	; 10
     ed4:	1c f4       	brge	.+6      	; 0xedc <PlaneShift+0x18c>
}

void PlaneShift()
{
	int i,j;
	cnt = 0;
     ed6:	cc 2d       	mov	r28, r12
     ed8:	dd 2d       	mov	r29, r13
     eda:	df cf       	rjmp	.-66     	; 0xe9a <PlaneShift+0x14a>
		while(cnt<PlaneShiftDel)
		{
			for(int k = 0;k < 3; k++) for (i = 7;i < 10;i++)	LED_On(k,i);
			cnt++;
		}
		cnt = 0;
     edc:	80 92 04 02 	sts	0x0204, r8
     ee0:	90 92 05 02 	sts	0x0205, r9
     ee4:	1e c0       	rjmp	.+60     	; 0xf22 <PlaneShift+0x1d2>
		while(cnt<PlaneShiftDel)
		{
			for(int k = 0;k < 3; k++) for (i = 4;i < 7;i++)	LED_On(k,i);
     ee6:	64 e0       	ldi	r22, 0x04	; 4
     ee8:	70 e0       	ldi	r23, 0x00	; 0
     eea:	ce 01       	movw	r24, r28
     eec:	0e 94 01 01 	call	0x202	; 0x202 <LED_On>
     ef0:	65 e0       	ldi	r22, 0x05	; 5
     ef2:	70 e0       	ldi	r23, 0x00	; 0
     ef4:	ce 01       	movw	r24, r28
     ef6:	0e 94 01 01 	call	0x202	; 0x202 <LED_On>
     efa:	66 e0       	ldi	r22, 0x06	; 6
     efc:	70 e0       	ldi	r23, 0x00	; 0
     efe:	ce 01       	movw	r24, r28
     f00:	0e 94 01 01 	call	0x202	; 0x202 <LED_On>
     f04:	21 96       	adiw	r28, 0x01	; 1
     f06:	c3 30       	cpi	r28, 0x03	; 3
     f08:	d1 05       	cpc	r29, r1
     f0a:	69 f7       	brne	.-38     	; 0xee6 <PlaneShift+0x196>
			cnt++;
     f0c:	80 91 04 02 	lds	r24, 0x0204
     f10:	90 91 05 02 	lds	r25, 0x0205
     f14:	01 96       	adiw	r24, 0x01	; 1
     f16:	90 93 05 02 	sts	0x0205, r25
     f1a:	80 93 04 02 	sts	0x0204, r24
		{
			for(int k = 0;k < 3; k++) for (i = 7;i < 10;i++)	LED_On(k,i);
			cnt++;
		}
		cnt = 0;
		while(cnt<PlaneShiftDel)
     f1e:	0a 97       	sbiw	r24, 0x0a	; 10
     f20:	1c f4       	brge	.+6      	; 0xf28 <PlaneShift+0x1d8>
}

void PlaneShift()
{
	int i,j;
	cnt = 0;
     f22:	cc 2d       	mov	r28, r12
     f24:	dd 2d       	mov	r29, r13
     f26:	df cf       	rjmp	.-66     	; 0xee6 <PlaneShift+0x196>
		while(cnt<PlaneShiftDel)
		{
			for(int k = 0;k < 3; k++) for (i = 4;i < 7;i++)	LED_On(k,i);
			cnt++;
		}
		cnt = 0;
     f28:	80 92 04 02 	sts	0x0204, r8
     f2c:	90 92 05 02 	sts	0x0205, r9
     f30:	81 e0       	ldi	r24, 0x01	; 1
     f32:	e8 1a       	sub	r14, r24
     f34:	f1 08       	sbc	r15, r1
		}
		cnt = 0;
	}
	
	
	for (j = 0; j < 5; j++)
     f36:	e1 14       	cp	r14, r1
     f38:	f1 04       	cpc	r15, r1
     f3a:	61 f0       	breq	.+24     	; 0xf54 <PlaneShift+0x204>
	{
		while(cnt<PlaneShiftDel)
     f3c:	80 91 04 02 	lds	r24, 0x0204
     f40:	90 91 05 02 	lds	r25, 0x0205
     f44:	0a 97       	sbiw	r24, 0x0a	; 10
     f46:	0c f4       	brge	.+2      	; 0xf4a <PlaneShift+0x1fa>
     f48:	7a cf       	rjmp	.-268    	; 0xe3e <PlaneShift+0xee>
		{
			for(int k = 0;k < 3; k++) for (i = 1;i < 5;i++)	LED_On(k,i);
			cnt++;
		}
		cnt = 0;
     f4a:	80 92 04 02 	sts	0x0204, r8
     f4e:	90 92 05 02 	sts	0x0205, r9
     f52:	9b cf       	rjmp	.-202    	; 0xe8a <PlaneShift+0x13a>
			for(int k = 0;k < 3; k++) for (i = 4;i < 7;i++)	LED_On(k,i);
			cnt++;
		}
		cnt = 0;
	}
}
     f54:	df 91       	pop	r29
     f56:	cf 91       	pop	r28
     f58:	1f 91       	pop	r17
     f5a:	0f 91       	pop	r16
     f5c:	ff 90       	pop	r15
     f5e:	ef 90       	pop	r14
     f60:	df 90       	pop	r13
     f62:	cf 90       	pop	r12
     f64:	bf 90       	pop	r11
     f66:	af 90       	pop	r10
     f68:	9f 90       	pop	r9
     f6a:	8f 90       	pop	r8
     f6c:	08 95       	ret

00000f6e <Glow_Random>:

void Glow_Random()
{
     f6e:	6f 92       	push	r6
     f70:	7f 92       	push	r7
     f72:	8f 92       	push	r8
     f74:	9f 92       	push	r9
     f76:	af 92       	push	r10
     f78:	bf 92       	push	r11
     f7a:	cf 92       	push	r12
     f7c:	df 92       	push	r13
     f7e:	ef 92       	push	r14
     f80:	ff 92       	push	r15
     f82:	0f 93       	push	r16
     f84:	1f 93       	push	r17
     f86:	cf 93       	push	r28
     f88:	df 93       	push	r29
     f8a:	0f 2e       	mov	r0, r31
     f8c:	f7 ec       	ldi	r31, 0xC7	; 199
     f8e:	ef 2e       	mov	r14, r31
     f90:	f1 2c       	mov	r15, r1
     f92:	f0 2d       	mov	r31, r0
	int k,j;
	for (int i = 1; i < 200; i++)
	{
		k = rand()%3;
     f94:	0f 2e       	mov	r0, r31
     f96:	f3 e0       	ldi	r31, 0x03	; 3
     f98:	af 2e       	mov	r10, r31
     f9a:	b1 2c       	mov	r11, r1
     f9c:	f0 2d       	mov	r31, r0
		j = rand()%10;
     f9e:	0f 2e       	mov	r0, r31
     fa0:	fa e0       	ldi	r31, 0x0A	; 10
     fa2:	cf 2e       	mov	r12, r31
     fa4:	d1 2c       	mov	r13, r1
     fa6:	f0 2d       	mov	r31, r0
     fa8:	0f 2e       	mov	r0, r31
     faa:	fe e1       	ldi	r31, 0x1E	; 30
     fac:	6f 2e       	mov	r6, r31
     fae:	f0 2d       	mov	r31, r0
     fb0:	71 2c       	mov	r7, r1
void Glow_Random()
{
	int k,j;
	for (int i = 1; i < 200; i++)
	{
		k = rand()%3;
     fb2:	0e 94 ba 11 	call	0x2374	; 0x2374 <rand>
     fb6:	b5 01       	movw	r22, r10
     fb8:	0e 94 3e 11 	call	0x227c	; 0x227c <__divmodhi4>
     fbc:	8c 01       	movw	r16, r24
		j = rand()%10;
     fbe:	0e 94 ba 11 	call	0x2374	; 0x2374 <rand>
     fc2:	b6 01       	movw	r22, r12
     fc4:	0e 94 3e 11 	call	0x227c	; 0x227c <__divmodhi4>
     fc8:	ec 01       	movw	r28, r24
     fca:	86 2c       	mov	r8, r6
     fcc:	97 2c       	mov	r9, r7
		for (int cnt = 0; cnt < del*2; cnt++)
		{
			LED_On(k,j);
     fce:	be 01       	movw	r22, r28
     fd0:	c8 01       	movw	r24, r16
     fd2:	0e 94 01 01 	call	0x202	; 0x202 <LED_On>
     fd6:	81 e0       	ldi	r24, 0x01	; 1
     fd8:	88 1a       	sub	r8, r24
     fda:	91 08       	sbc	r9, r1
	int k,j;
	for (int i = 1; i < 200; i++)
	{
		k = rand()%3;
		j = rand()%10;
		for (int cnt = 0; cnt < del*2; cnt++)
     fdc:	81 14       	cp	r8, r1
     fde:	91 04       	cpc	r9, r1
     fe0:	b1 f7       	brne	.-20     	; 0xfce <Glow_Random+0x60>
     fe2:	81 e0       	ldi	r24, 0x01	; 1
     fe4:	e8 1a       	sub	r14, r24
     fe6:	f1 08       	sbc	r15, r1
}

void Glow_Random()
{
	int k,j;
	for (int i = 1; i < 200; i++)
     fe8:	e1 14       	cp	r14, r1
     fea:	f1 04       	cpc	r15, r1
     fec:	11 f7       	brne	.-60     	; 0xfb2 <Glow_Random+0x44>
			LED_On(k,j);
			
		}
		
	}
}
     fee:	df 91       	pop	r29
     ff0:	cf 91       	pop	r28
     ff2:	1f 91       	pop	r17
     ff4:	0f 91       	pop	r16
     ff6:	ff 90       	pop	r15
     ff8:	ef 90       	pop	r14
     ffa:	df 90       	pop	r13
     ffc:	cf 90       	pop	r12
     ffe:	bf 90       	pop	r11
    1000:	af 90       	pop	r10
    1002:	9f 90       	pop	r9
    1004:	8f 90       	pop	r8
    1006:	7f 90       	pop	r7
    1008:	6f 90       	pop	r6
    100a:	08 95       	ret

0000100c <FillCube>:

void FillCube()
{
	for (cnt = 0;cnt< FillCubedel*3; cnt++)
    100c:	10 92 05 02 	sts	0x0205, r1
    1010:	10 92 04 02 	sts	0x0204, r1
	{
		LED_On(2,9);
    1014:	69 e0       	ldi	r22, 0x09	; 9
    1016:	70 e0       	ldi	r23, 0x00	; 0
    1018:	82 e0       	ldi	r24, 0x02	; 2
    101a:	90 e0       	ldi	r25, 0x00	; 0
    101c:	0e 94 01 01 	call	0x202	; 0x202 <LED_On>
	}
}

void FillCube()
{
	for (cnt = 0;cnt< FillCubedel*3; cnt++)
    1020:	80 91 04 02 	lds	r24, 0x0204
    1024:	90 91 05 02 	lds	r25, 0x0205
    1028:	01 96       	adiw	r24, 0x01	; 1
    102a:	90 93 05 02 	sts	0x0205, r25
    102e:	80 93 04 02 	sts	0x0204, r24
    1032:	88 37       	cpi	r24, 0x78	; 120
    1034:	91 05       	cpc	r25, r1
    1036:	74 f3       	brlt	.-36     	; 0x1014 <FillCube+0x8>
	{
		LED_On(2,9);
	}
	for (cnt = 0;cnt< FillCubedel/2; cnt++)
    1038:	10 92 05 02 	sts	0x0205, r1
    103c:	10 92 04 02 	sts	0x0204, r1
	{
		LED_On(2,9);	LED_On(2,5);	LED_On(2,6);	LED_On(2,8);
    1040:	69 e0       	ldi	r22, 0x09	; 9
    1042:	70 e0       	ldi	r23, 0x00	; 0
    1044:	82 e0       	ldi	r24, 0x02	; 2
    1046:	90 e0       	ldi	r25, 0x00	; 0
    1048:	0e 94 01 01 	call	0x202	; 0x202 <LED_On>
    104c:	65 e0       	ldi	r22, 0x05	; 5
    104e:	70 e0       	ldi	r23, 0x00	; 0
    1050:	82 e0       	ldi	r24, 0x02	; 2
    1052:	90 e0       	ldi	r25, 0x00	; 0
    1054:	0e 94 01 01 	call	0x202	; 0x202 <LED_On>
    1058:	66 e0       	ldi	r22, 0x06	; 6
    105a:	70 e0       	ldi	r23, 0x00	; 0
    105c:	82 e0       	ldi	r24, 0x02	; 2
    105e:	90 e0       	ldi	r25, 0x00	; 0
    1060:	0e 94 01 01 	call	0x202	; 0x202 <LED_On>
    1064:	68 e0       	ldi	r22, 0x08	; 8
    1066:	70 e0       	ldi	r23, 0x00	; 0
    1068:	82 e0       	ldi	r24, 0x02	; 2
    106a:	90 e0       	ldi	r25, 0x00	; 0
    106c:	0e 94 01 01 	call	0x202	; 0x202 <LED_On>
		LED_On(1,9);	LED_On(1,5);	LED_On(1,6);	LED_On(1,8);
    1070:	69 e0       	ldi	r22, 0x09	; 9
    1072:	70 e0       	ldi	r23, 0x00	; 0
    1074:	81 e0       	ldi	r24, 0x01	; 1
    1076:	90 e0       	ldi	r25, 0x00	; 0
    1078:	0e 94 01 01 	call	0x202	; 0x202 <LED_On>
    107c:	65 e0       	ldi	r22, 0x05	; 5
    107e:	70 e0       	ldi	r23, 0x00	; 0
    1080:	81 e0       	ldi	r24, 0x01	; 1
    1082:	90 e0       	ldi	r25, 0x00	; 0
    1084:	0e 94 01 01 	call	0x202	; 0x202 <LED_On>
    1088:	66 e0       	ldi	r22, 0x06	; 6
    108a:	70 e0       	ldi	r23, 0x00	; 0
    108c:	81 e0       	ldi	r24, 0x01	; 1
    108e:	90 e0       	ldi	r25, 0x00	; 0
    1090:	0e 94 01 01 	call	0x202	; 0x202 <LED_On>
    1094:	68 e0       	ldi	r22, 0x08	; 8
    1096:	70 e0       	ldi	r23, 0x00	; 0
    1098:	81 e0       	ldi	r24, 0x01	; 1
    109a:	90 e0       	ldi	r25, 0x00	; 0
    109c:	0e 94 01 01 	call	0x202	; 0x202 <LED_On>
{
	for (cnt = 0;cnt< FillCubedel*3; cnt++)
	{
		LED_On(2,9);
	}
	for (cnt = 0;cnt< FillCubedel/2; cnt++)
    10a0:	80 91 04 02 	lds	r24, 0x0204
    10a4:	90 91 05 02 	lds	r25, 0x0205
    10a8:	01 96       	adiw	r24, 0x01	; 1
    10aa:	90 93 05 02 	sts	0x0205, r25
    10ae:	80 93 04 02 	sts	0x0204, r24
    10b2:	44 97       	sbiw	r24, 0x14	; 20
    10b4:	2c f2       	brlt	.-118    	; 0x1040 <FillCube+0x34>
	{
		LED_On(2,9);	LED_On(2,5);	LED_On(2,6);	LED_On(2,8);
		LED_On(1,9);	LED_On(1,5);	LED_On(1,6);	LED_On(1,8);
	}
	for (cnt = 0;cnt< FillCubedel/8; cnt++)
    10b6:	10 92 05 02 	sts	0x0205, r1
    10ba:	10 92 04 02 	sts	0x0204, r1
	{
		LED_hor_plane_on(0);
    10be:	80 e0       	ldi	r24, 0x00	; 0
    10c0:	90 e0       	ldi	r25, 0x00	; 0
    10c2:	0e 94 30 01 	call	0x260	; 0x260 <LED_hor_plane_on>
		LED_hor_plane_on(1);
    10c6:	81 e0       	ldi	r24, 0x01	; 1
    10c8:	90 e0       	ldi	r25, 0x00	; 0
    10ca:	0e 94 30 01 	call	0x260	; 0x260 <LED_hor_plane_on>
		LED_hor_plane_on(2);
    10ce:	82 e0       	ldi	r24, 0x02	; 2
    10d0:	90 e0       	ldi	r25, 0x00	; 0
    10d2:	0e 94 30 01 	call	0x260	; 0x260 <LED_hor_plane_on>
	for (cnt = 0;cnt< FillCubedel/2; cnt++)
	{
		LED_On(2,9);	LED_On(2,5);	LED_On(2,6);	LED_On(2,8);
		LED_On(1,9);	LED_On(1,5);	LED_On(1,6);	LED_On(1,8);
	}
	for (cnt = 0;cnt< FillCubedel/8; cnt++)
    10d6:	80 91 04 02 	lds	r24, 0x0204
    10da:	90 91 05 02 	lds	r25, 0x0205
    10de:	01 96       	adiw	r24, 0x01	; 1
    10e0:	90 93 05 02 	sts	0x0205, r25
    10e4:	80 93 04 02 	sts	0x0204, r24
    10e8:	05 97       	sbiw	r24, 0x05	; 5
    10ea:	4c f3       	brlt	.-46     	; 0x10be <FillCube+0xb2>
	{
		LED_hor_plane_on(0);
		LED_hor_plane_on(1);
		LED_hor_plane_on(2);
	}
	for (cnt = 0;cnt< FillCubedel/2; cnt++)
    10ec:	10 92 05 02 	sts	0x0205, r1
    10f0:	10 92 04 02 	sts	0x0204, r1
	{
		LED_On(0,1);	LED_On(0,5);	LED_On(0,2);	LED_On(0,4);
    10f4:	61 e0       	ldi	r22, 0x01	; 1
    10f6:	70 e0       	ldi	r23, 0x00	; 0
    10f8:	80 e0       	ldi	r24, 0x00	; 0
    10fa:	90 e0       	ldi	r25, 0x00	; 0
    10fc:	0e 94 01 01 	call	0x202	; 0x202 <LED_On>
    1100:	65 e0       	ldi	r22, 0x05	; 5
    1102:	70 e0       	ldi	r23, 0x00	; 0
    1104:	80 e0       	ldi	r24, 0x00	; 0
    1106:	90 e0       	ldi	r25, 0x00	; 0
    1108:	0e 94 01 01 	call	0x202	; 0x202 <LED_On>
    110c:	62 e0       	ldi	r22, 0x02	; 2
    110e:	70 e0       	ldi	r23, 0x00	; 0
    1110:	80 e0       	ldi	r24, 0x00	; 0
    1112:	90 e0       	ldi	r25, 0x00	; 0
    1114:	0e 94 01 01 	call	0x202	; 0x202 <LED_On>
    1118:	64 e0       	ldi	r22, 0x04	; 4
    111a:	70 e0       	ldi	r23, 0x00	; 0
    111c:	80 e0       	ldi	r24, 0x00	; 0
    111e:	90 e0       	ldi	r25, 0x00	; 0
    1120:	0e 94 01 01 	call	0x202	; 0x202 <LED_On>
		LED_On(1,1);	LED_On(1,5);	LED_On(1,2);	LED_On(1,4);
    1124:	61 e0       	ldi	r22, 0x01	; 1
    1126:	70 e0       	ldi	r23, 0x00	; 0
    1128:	81 e0       	ldi	r24, 0x01	; 1
    112a:	90 e0       	ldi	r25, 0x00	; 0
    112c:	0e 94 01 01 	call	0x202	; 0x202 <LED_On>
    1130:	65 e0       	ldi	r22, 0x05	; 5
    1132:	70 e0       	ldi	r23, 0x00	; 0
    1134:	81 e0       	ldi	r24, 0x01	; 1
    1136:	90 e0       	ldi	r25, 0x00	; 0
    1138:	0e 94 01 01 	call	0x202	; 0x202 <LED_On>
    113c:	62 e0       	ldi	r22, 0x02	; 2
    113e:	70 e0       	ldi	r23, 0x00	; 0
    1140:	81 e0       	ldi	r24, 0x01	; 1
    1142:	90 e0       	ldi	r25, 0x00	; 0
    1144:	0e 94 01 01 	call	0x202	; 0x202 <LED_On>
    1148:	64 e0       	ldi	r22, 0x04	; 4
    114a:	70 e0       	ldi	r23, 0x00	; 0
    114c:	81 e0       	ldi	r24, 0x01	; 1
    114e:	90 e0       	ldi	r25, 0x00	; 0
    1150:	0e 94 01 01 	call	0x202	; 0x202 <LED_On>
	{
		LED_hor_plane_on(0);
		LED_hor_plane_on(1);
		LED_hor_plane_on(2);
	}
	for (cnt = 0;cnt< FillCubedel/2; cnt++)
    1154:	80 91 04 02 	lds	r24, 0x0204
    1158:	90 91 05 02 	lds	r25, 0x0205
    115c:	01 96       	adiw	r24, 0x01	; 1
    115e:	90 93 05 02 	sts	0x0205, r25
    1162:	80 93 04 02 	sts	0x0204, r24
    1166:	44 97       	sbiw	r24, 0x14	; 20
    1168:	2c f2       	brlt	.-118    	; 0x10f4 <FillCube+0xe8>
	{
		LED_On(0,1);	LED_On(0,5);	LED_On(0,2);	LED_On(0,4);
		LED_On(1,1);	LED_On(1,5);	LED_On(1,2);	LED_On(1,4);
	}
	for (cnt = 0;cnt< FillCubedel*3; cnt++)
    116a:	10 92 05 02 	sts	0x0205, r1
    116e:	10 92 04 02 	sts	0x0204, r1
	{
		LED_On(0,1);
    1172:	61 e0       	ldi	r22, 0x01	; 1
    1174:	70 e0       	ldi	r23, 0x00	; 0
    1176:	80 e0       	ldi	r24, 0x00	; 0
    1178:	90 e0       	ldi	r25, 0x00	; 0
    117a:	0e 94 01 01 	call	0x202	; 0x202 <LED_On>
	for (cnt = 0;cnt< FillCubedel/2; cnt++)
	{
		LED_On(0,1);	LED_On(0,5);	LED_On(0,2);	LED_On(0,4);
		LED_On(1,1);	LED_On(1,5);	LED_On(1,2);	LED_On(1,4);
	}
	for (cnt = 0;cnt< FillCubedel*3; cnt++)
    117e:	80 91 04 02 	lds	r24, 0x0204
    1182:	90 91 05 02 	lds	r25, 0x0205
    1186:	01 96       	adiw	r24, 0x01	; 1
    1188:	90 93 05 02 	sts	0x0205, r25
    118c:	80 93 04 02 	sts	0x0204, r24
    1190:	88 37       	cpi	r24, 0x78	; 120
    1192:	91 05       	cpc	r25, r1
    1194:	74 f3       	brlt	.-36     	; 0x1172 <FillCube+0x166>
	{
		LED_On(0,1);
	}
	for (cnt = 0;cnt< FillCubedel/2; cnt++)
    1196:	10 92 05 02 	sts	0x0205, r1
    119a:	10 92 04 02 	sts	0x0204, r1
	{
		LED_On(0,1);	LED_On(0,5);	LED_On(0,2);	LED_On(0,4);
    119e:	61 e0       	ldi	r22, 0x01	; 1
    11a0:	70 e0       	ldi	r23, 0x00	; 0
    11a2:	80 e0       	ldi	r24, 0x00	; 0
    11a4:	90 e0       	ldi	r25, 0x00	; 0
    11a6:	0e 94 01 01 	call	0x202	; 0x202 <LED_On>
    11aa:	65 e0       	ldi	r22, 0x05	; 5
    11ac:	70 e0       	ldi	r23, 0x00	; 0
    11ae:	80 e0       	ldi	r24, 0x00	; 0
    11b0:	90 e0       	ldi	r25, 0x00	; 0
    11b2:	0e 94 01 01 	call	0x202	; 0x202 <LED_On>
    11b6:	62 e0       	ldi	r22, 0x02	; 2
    11b8:	70 e0       	ldi	r23, 0x00	; 0
    11ba:	80 e0       	ldi	r24, 0x00	; 0
    11bc:	90 e0       	ldi	r25, 0x00	; 0
    11be:	0e 94 01 01 	call	0x202	; 0x202 <LED_On>
    11c2:	64 e0       	ldi	r22, 0x04	; 4
    11c4:	70 e0       	ldi	r23, 0x00	; 0
    11c6:	80 e0       	ldi	r24, 0x00	; 0
    11c8:	90 e0       	ldi	r25, 0x00	; 0
    11ca:	0e 94 01 01 	call	0x202	; 0x202 <LED_On>
		LED_On(1,1);	LED_On(1,5);	LED_On(1,2);	LED_On(1,4);
    11ce:	61 e0       	ldi	r22, 0x01	; 1
    11d0:	70 e0       	ldi	r23, 0x00	; 0
    11d2:	81 e0       	ldi	r24, 0x01	; 1
    11d4:	90 e0       	ldi	r25, 0x00	; 0
    11d6:	0e 94 01 01 	call	0x202	; 0x202 <LED_On>
    11da:	65 e0       	ldi	r22, 0x05	; 5
    11dc:	70 e0       	ldi	r23, 0x00	; 0
    11de:	81 e0       	ldi	r24, 0x01	; 1
    11e0:	90 e0       	ldi	r25, 0x00	; 0
    11e2:	0e 94 01 01 	call	0x202	; 0x202 <LED_On>
    11e6:	62 e0       	ldi	r22, 0x02	; 2
    11e8:	70 e0       	ldi	r23, 0x00	; 0
    11ea:	81 e0       	ldi	r24, 0x01	; 1
    11ec:	90 e0       	ldi	r25, 0x00	; 0
    11ee:	0e 94 01 01 	call	0x202	; 0x202 <LED_On>
    11f2:	64 e0       	ldi	r22, 0x04	; 4
    11f4:	70 e0       	ldi	r23, 0x00	; 0
    11f6:	81 e0       	ldi	r24, 0x01	; 1
    11f8:	90 e0       	ldi	r25, 0x00	; 0
    11fa:	0e 94 01 01 	call	0x202	; 0x202 <LED_On>
	}
	for (cnt = 0;cnt< FillCubedel*3; cnt++)
	{
		LED_On(0,1);
	}
	for (cnt = 0;cnt< FillCubedel/2; cnt++)
    11fe:	80 91 04 02 	lds	r24, 0x0204
    1202:	90 91 05 02 	lds	r25, 0x0205
    1206:	01 96       	adiw	r24, 0x01	; 1
    1208:	90 93 05 02 	sts	0x0205, r25
    120c:	80 93 04 02 	sts	0x0204, r24
    1210:	44 97       	sbiw	r24, 0x14	; 20
    1212:	2c f2       	brlt	.-118    	; 0x119e <FillCube+0x192>
	{
		LED_On(0,1);	LED_On(0,5);	LED_On(0,2);	LED_On(0,4);
		LED_On(1,1);	LED_On(1,5);	LED_On(1,2);	LED_On(1,4);
	}
	for (cnt = 0;cnt< FillCubedel/8; cnt++)
    1214:	10 92 05 02 	sts	0x0205, r1
    1218:	10 92 04 02 	sts	0x0204, r1
	{
		LED_hor_plane_on(0);
    121c:	80 e0       	ldi	r24, 0x00	; 0
    121e:	90 e0       	ldi	r25, 0x00	; 0
    1220:	0e 94 30 01 	call	0x260	; 0x260 <LED_hor_plane_on>
		LED_hor_plane_on(1);
    1224:	81 e0       	ldi	r24, 0x01	; 1
    1226:	90 e0       	ldi	r25, 0x00	; 0
    1228:	0e 94 30 01 	call	0x260	; 0x260 <LED_hor_plane_on>
		LED_hor_plane_on(2);
    122c:	82 e0       	ldi	r24, 0x02	; 2
    122e:	90 e0       	ldi	r25, 0x00	; 0
    1230:	0e 94 30 01 	call	0x260	; 0x260 <LED_hor_plane_on>
	for (cnt = 0;cnt< FillCubedel/2; cnt++)
	{
		LED_On(0,1);	LED_On(0,5);	LED_On(0,2);	LED_On(0,4);
		LED_On(1,1);	LED_On(1,5);	LED_On(1,2);	LED_On(1,4);
	}
	for (cnt = 0;cnt< FillCubedel/8; cnt++)
    1234:	80 91 04 02 	lds	r24, 0x0204
    1238:	90 91 05 02 	lds	r25, 0x0205
    123c:	01 96       	adiw	r24, 0x01	; 1
    123e:	90 93 05 02 	sts	0x0205, r25
    1242:	80 93 04 02 	sts	0x0204, r24
    1246:	05 97       	sbiw	r24, 0x05	; 5
    1248:	4c f3       	brlt	.-46     	; 0x121c <FillCube+0x210>
	{
		LED_hor_plane_on(0);
		LED_hor_plane_on(1);
		LED_hor_plane_on(2);
	}
	for (cnt = 0;cnt< FillCubedel/2; cnt++)
    124a:	10 92 05 02 	sts	0x0205, r1
    124e:	10 92 04 02 	sts	0x0204, r1
	{
		LED_On(2,9);	LED_On(2,5);	LED_On(2,6);	LED_On(2,8);
    1252:	69 e0       	ldi	r22, 0x09	; 9
    1254:	70 e0       	ldi	r23, 0x00	; 0
    1256:	82 e0       	ldi	r24, 0x02	; 2
    1258:	90 e0       	ldi	r25, 0x00	; 0
    125a:	0e 94 01 01 	call	0x202	; 0x202 <LED_On>
    125e:	65 e0       	ldi	r22, 0x05	; 5
    1260:	70 e0       	ldi	r23, 0x00	; 0
    1262:	82 e0       	ldi	r24, 0x02	; 2
    1264:	90 e0       	ldi	r25, 0x00	; 0
    1266:	0e 94 01 01 	call	0x202	; 0x202 <LED_On>
    126a:	66 e0       	ldi	r22, 0x06	; 6
    126c:	70 e0       	ldi	r23, 0x00	; 0
    126e:	82 e0       	ldi	r24, 0x02	; 2
    1270:	90 e0       	ldi	r25, 0x00	; 0
    1272:	0e 94 01 01 	call	0x202	; 0x202 <LED_On>
    1276:	68 e0       	ldi	r22, 0x08	; 8
    1278:	70 e0       	ldi	r23, 0x00	; 0
    127a:	82 e0       	ldi	r24, 0x02	; 2
    127c:	90 e0       	ldi	r25, 0x00	; 0
    127e:	0e 94 01 01 	call	0x202	; 0x202 <LED_On>
		LED_On(1,9);	LED_On(1,5);	LED_On(1,6);	LED_On(1,8);
    1282:	69 e0       	ldi	r22, 0x09	; 9
    1284:	70 e0       	ldi	r23, 0x00	; 0
    1286:	81 e0       	ldi	r24, 0x01	; 1
    1288:	90 e0       	ldi	r25, 0x00	; 0
    128a:	0e 94 01 01 	call	0x202	; 0x202 <LED_On>
    128e:	65 e0       	ldi	r22, 0x05	; 5
    1290:	70 e0       	ldi	r23, 0x00	; 0
    1292:	81 e0       	ldi	r24, 0x01	; 1
    1294:	90 e0       	ldi	r25, 0x00	; 0
    1296:	0e 94 01 01 	call	0x202	; 0x202 <LED_On>
    129a:	66 e0       	ldi	r22, 0x06	; 6
    129c:	70 e0       	ldi	r23, 0x00	; 0
    129e:	81 e0       	ldi	r24, 0x01	; 1
    12a0:	90 e0       	ldi	r25, 0x00	; 0
    12a2:	0e 94 01 01 	call	0x202	; 0x202 <LED_On>
    12a6:	68 e0       	ldi	r22, 0x08	; 8
    12a8:	70 e0       	ldi	r23, 0x00	; 0
    12aa:	81 e0       	ldi	r24, 0x01	; 1
    12ac:	90 e0       	ldi	r25, 0x00	; 0
    12ae:	0e 94 01 01 	call	0x202	; 0x202 <LED_On>
	{
		LED_hor_plane_on(0);
		LED_hor_plane_on(1);
		LED_hor_plane_on(2);
	}
	for (cnt = 0;cnt< FillCubedel/2; cnt++)
    12b2:	80 91 04 02 	lds	r24, 0x0204
    12b6:	90 91 05 02 	lds	r25, 0x0205
    12ba:	01 96       	adiw	r24, 0x01	; 1
    12bc:	90 93 05 02 	sts	0x0205, r25
    12c0:	80 93 04 02 	sts	0x0204, r24
    12c4:	44 97       	sbiw	r24, 0x14	; 20
    12c6:	2c f2       	brlt	.-118    	; 0x1252 <FillCube+0x246>
	{
		LED_On(2,9);	LED_On(2,5);	LED_On(2,6);	LED_On(2,8);
		LED_On(1,9);	LED_On(1,5);	LED_On(1,6);	LED_On(1,8);
	}
}
    12c8:	08 95       	ret

000012ca <OneByOneLEDOn>:

void OneByOneLEDOn()
{
    12ca:	4f 92       	push	r4
    12cc:	5f 92       	push	r5
    12ce:	6f 92       	push	r6
    12d0:	7f 92       	push	r7
    12d2:	8f 92       	push	r8
    12d4:	9f 92       	push	r9
    12d6:	af 92       	push	r10
    12d8:	bf 92       	push	r11
    12da:	cf 92       	push	r12
    12dc:	df 92       	push	r13
    12de:	ef 92       	push	r14
    12e0:	ff 92       	push	r15
    12e2:	0f 93       	push	r16
    12e4:	1f 93       	push	r17
    12e6:	cf 93       	push	r28
    12e8:	df 93       	push	r29
    12ea:	cd b7       	in	r28, 0x3d	; 61
    12ec:	de b7       	in	r29, 0x3e	; 62
    12ee:	c8 5c       	subi	r28, 0xC8	; 200
    12f0:	d1 09       	sbc	r29, r1
    12f2:	0f b6       	in	r0, 0x3f	; 63
    12f4:	f8 94       	cli
    12f6:	de bf       	out	0x3e, r29	; 62
    12f8:	0f be       	out	0x3f, r0	; 63
    12fa:	cd bf       	out	0x3d, r28	; 61
	int a[50],b[50];
	for (int k = 0; k < 30; k++)
	{
		a[k] = rand()%3;
    12fc:	0e 94 ba 11 	call	0x2374	; 0x2374 <rand>
    1300:	63 e0       	ldi	r22, 0x03	; 3
    1302:	70 e0       	ldi	r23, 0x00	; 0
    1304:	0e 94 3e 11 	call	0x227c	; 0x227c <__divmodhi4>
    1308:	9a 83       	std	Y+2, r25	; 0x02
    130a:	89 83       	std	Y+1, r24	; 0x01
		b[k] = rand()%10;
    130c:	0e 94 ba 11 	call	0x2374	; 0x2374 <rand>
    1310:	6a e0       	ldi	r22, 0x0A	; 10
    1312:	70 e0       	ldi	r23, 0x00	; 0
    1314:	0e 94 3e 11 	call	0x227c	; 0x227c <__divmodhi4>
    1318:	9e 01       	movw	r18, r28
    131a:	2b 59       	subi	r18, 0x9B	; 155
    131c:	3f 4f       	sbci	r19, 0xFF	; 255
    131e:	f9 01       	movw	r30, r18
    1320:	81 93       	st	Z+, r24
    1322:	91 93       	st	Z+, r25
    1324:	6f 01       	movw	r12, r30
    1326:	4e 01       	movw	r8, r28
    1328:	f3 e0       	ldi	r31, 0x03	; 3
    132a:	8f 0e       	add	r8, r31
    132c:	91 1c       	adc	r9, r1
}

void OneByOneLEDOn()
{
	int a[50],b[50];
	for (int k = 0; k < 30; k++)
    132e:	a1 2c       	mov	r10, r1
    1330:	b1 2c       	mov	r11, r1
	{
		a[k] = rand()%3;
    1332:	0f 2e       	mov	r0, r31
    1334:	f3 e0       	ldi	r31, 0x03	; 3
    1336:	6f 2e       	mov	r6, r31
    1338:	71 2c       	mov	r7, r1
    133a:	f0 2d       	mov	r31, r0
		b[k] = rand()%10;
    133c:	0f 2e       	mov	r0, r31
    133e:	fa e0       	ldi	r31, 0x0A	; 10
    1340:	4f 2e       	mov	r4, r31
    1342:	51 2c       	mov	r5, r1
    1344:	f0 2d       	mov	r31, r0
    1346:	2b c0       	rjmp	.+86     	; 0x139e <OneByOneLEDOn+0xd4>
void OneByOneLEDOn()
{
	int a[50],b[50];
	for (int k = 0; k < 30; k++)
	{
		a[k] = rand()%3;
    1348:	0e 94 ba 11 	call	0x2374	; 0x2374 <rand>
    134c:	b3 01       	movw	r22, r6
    134e:	0e 94 3e 11 	call	0x227c	; 0x227c <__divmodhi4>
    1352:	f4 01       	movw	r30, r8
    1354:	81 93       	st	Z+, r24
    1356:	91 93       	st	Z+, r25
    1358:	4f 01       	movw	r8, r30
		b[k] = rand()%10;
    135a:	0e 94 ba 11 	call	0x2374	; 0x2374 <rand>
    135e:	b2 01       	movw	r22, r4
    1360:	0e 94 3e 11 	call	0x227c	; 0x227c <__divmodhi4>
    1364:	f6 01       	movw	r30, r12
    1366:	91 83       	std	Z+1, r25	; 0x01
    1368:	80 83       	st	Z, r24
		
		for (int i = 0; i < k; i++)
    136a:	1a 14       	cp	r1, r10
    136c:	1b 04       	cpc	r1, r11
    136e:	a4 f4       	brge	.+40     	; 0x1398 <OneByOneLEDOn+0xce>
    1370:	8e 01       	movw	r16, r28
    1372:	0b 59       	subi	r16, 0x9B	; 155
    1374:	1f 4f       	sbci	r17, 0xFF	; 255
    1376:	9e 01       	movw	r18, r28
    1378:	2f 5f       	subi	r18, 0xFF	; 255
    137a:	3f 4f       	sbci	r19, 0xFF	; 255
    137c:	79 01       	movw	r14, r18
		{
			LED_On(a[i],b[i]);
    137e:	f8 01       	movw	r30, r16
    1380:	61 91       	ld	r22, Z+
    1382:	71 91       	ld	r23, Z+
    1384:	8f 01       	movw	r16, r30
    1386:	f7 01       	movw	r30, r14
    1388:	81 91       	ld	r24, Z+
    138a:	91 91       	ld	r25, Z+
    138c:	7f 01       	movw	r14, r30
    138e:	0e 94 01 01 	call	0x202	; 0x202 <LED_On>
	for (int k = 0; k < 30; k++)
	{
		a[k] = rand()%3;
		b[k] = rand()%10;
		
		for (int i = 0; i < k; i++)
    1392:	0c 15       	cp	r16, r12
    1394:	1d 05       	cpc	r17, r13
    1396:	99 f7       	brne	.-26     	; 0x137e <OneByOneLEDOn+0xb4>
    1398:	f2 e0       	ldi	r31, 0x02	; 2
    139a:	cf 0e       	add	r12, r31
    139c:	d1 1c       	adc	r13, r1
}

void OneByOneLEDOn()
{
	int a[50],b[50];
	for (int k = 0; k < 30; k++)
    139e:	2f ef       	ldi	r18, 0xFF	; 255
    13a0:	a2 1a       	sub	r10, r18
    13a2:	b2 0a       	sbc	r11, r18
    13a4:	3e e1       	ldi	r19, 0x1E	; 30
    13a6:	a3 16       	cp	r10, r19
    13a8:	b1 04       	cpc	r11, r1
    13aa:	71 f6       	brne	.-100    	; 0x1348 <OneByOneLEDOn+0x7e>
		for (int i = 0; i < k; i++)
		{
			LED_On(a[i],b[i]);
		}
	}	
}
    13ac:	c8 53       	subi	r28, 0x38	; 56
    13ae:	df 4f       	sbci	r29, 0xFF	; 255
    13b0:	0f b6       	in	r0, 0x3f	; 63
    13b2:	f8 94       	cli
    13b4:	de bf       	out	0x3e, r29	; 62
    13b6:	0f be       	out	0x3f, r0	; 63
    13b8:	cd bf       	out	0x3d, r28	; 61
    13ba:	df 91       	pop	r29
    13bc:	cf 91       	pop	r28
    13be:	1f 91       	pop	r17
    13c0:	0f 91       	pop	r16
    13c2:	ff 90       	pop	r15
    13c4:	ef 90       	pop	r14
    13c6:	df 90       	pop	r13
    13c8:	cf 90       	pop	r12
    13ca:	bf 90       	pop	r11
    13cc:	af 90       	pop	r10
    13ce:	9f 90       	pop	r9
    13d0:	8f 90       	pop	r8
    13d2:	7f 90       	pop	r7
    13d4:	6f 90       	pop	r6
    13d6:	5f 90       	pop	r5
    13d8:	4f 90       	pop	r4
    13da:	08 95       	ret

000013dc <RandomFall>:
//cnt = 0;cnt< ; cnt++

void RandomFall()
{
    13dc:	0f 93       	push	r16
    13de:	1f 93       	push	r17
    13e0:	cf 93       	push	r28
    13e2:	df 93       	push	r29
	int r = 1+rand()%9;
    13e4:	0e 94 ba 11 	call	0x2374	; 0x2374 <rand>
    13e8:	69 e0       	ldi	r22, 0x09	; 9
    13ea:	70 e0       	ldi	r23, 0x00	; 0
    13ec:	0e 94 3e 11 	call	0x227c	; 0x227c <__divmodhi4>
    13f0:	ec 01       	movw	r28, r24
    13f2:	21 96       	adiw	r28, 0x01	; 1
	for (int level = 2; level >=0; level--)
    13f4:	02 e0       	ldi	r16, 0x02	; 2
    13f6:	10 e0       	ldi	r17, 0x00	; 0
	{
		for (cnt = 0; cnt<fall_dell*10;cnt++)
    13f8:	10 92 05 02 	sts	0x0205, r1
    13fc:	10 92 04 02 	sts	0x0204, r1
		{
			LED_On(level,r);
    1400:	be 01       	movw	r22, r28
    1402:	c8 01       	movw	r24, r16
    1404:	0e 94 01 01 	call	0x202	; 0x202 <LED_On>
void RandomFall()
{
	int r = 1+rand()%9;
	for (int level = 2; level >=0; level--)
	{
		for (cnt = 0; cnt<fall_dell*10;cnt++)
    1408:	20 91 04 02 	lds	r18, 0x0204
    140c:	30 91 05 02 	lds	r19, 0x0205
    1410:	2f 5f       	subi	r18, 0xFF	; 255
    1412:	3f 4f       	sbci	r19, 0xFF	; 255
    1414:	30 93 05 02 	sts	0x0205, r19
    1418:	20 93 04 02 	sts	0x0204, r18
    141c:	26 39       	cpi	r18, 0x96	; 150
    141e:	31 05       	cpc	r19, r1
    1420:	7c f3       	brlt	.-34     	; 0x1400 <RandomFall+0x24>
//cnt = 0;cnt< ; cnt++

void RandomFall()
{
	int r = 1+rand()%9;
	for (int level = 2; level >=0; level--)
    1422:	01 50       	subi	r16, 0x01	; 1
    1424:	11 09       	sbc	r17, r1
    1426:	40 f7       	brcc	.-48     	; 0x13f8 <RandomFall+0x1c>
			LED_On(level,r);
		}
	}
	for (int level = 1; level <=2; level++)
	{
		for (cnt = 0; cnt<fall_dell*10;cnt++)
    1428:	10 92 05 02 	sts	0x0205, r1
    142c:	10 92 04 02 	sts	0x0204, r1
		{
			LED_On(level,r);
    1430:	be 01       	movw	r22, r28
    1432:	81 e0       	ldi	r24, 0x01	; 1
    1434:	90 e0       	ldi	r25, 0x00	; 0
    1436:	0e 94 01 01 	call	0x202	; 0x202 <LED_On>
			LED_On(level,r);
		}
	}
	for (int level = 1; level <=2; level++)
	{
		for (cnt = 0; cnt<fall_dell*10;cnt++)
    143a:	80 91 04 02 	lds	r24, 0x0204
    143e:	90 91 05 02 	lds	r25, 0x0205
    1442:	01 96       	adiw	r24, 0x01	; 1
    1444:	90 93 05 02 	sts	0x0205, r25
    1448:	80 93 04 02 	sts	0x0204, r24
    144c:	86 39       	cpi	r24, 0x96	; 150
    144e:	91 05       	cpc	r25, r1
    1450:	7c f3       	brlt	.-34     	; 0x1430 <RandomFall+0x54>
    1452:	10 92 05 02 	sts	0x0205, r1
    1456:	10 92 04 02 	sts	0x0204, r1
		{
			LED_On(level,r);
    145a:	be 01       	movw	r22, r28
    145c:	82 e0       	ldi	r24, 0x02	; 2
    145e:	90 e0       	ldi	r25, 0x00	; 0
    1460:	0e 94 01 01 	call	0x202	; 0x202 <LED_On>
			LED_On(level,r);
		}
	}
	for (int level = 1; level <=2; level++)
	{
		for (cnt = 0; cnt<fall_dell*10;cnt++)
    1464:	80 91 04 02 	lds	r24, 0x0204
    1468:	90 91 05 02 	lds	r25, 0x0205
    146c:	01 96       	adiw	r24, 0x01	; 1
    146e:	90 93 05 02 	sts	0x0205, r25
    1472:	80 93 04 02 	sts	0x0204, r24
    1476:	86 39       	cpi	r24, 0x96	; 150
    1478:	91 05       	cpc	r25, r1
    147a:	7c f3       	brlt	.-34     	; 0x145a <RandomFall+0x7e>
		{
			LED_On(level,r);
		}
	}
}
    147c:	df 91       	pop	r29
    147e:	cf 91       	pop	r28
    1480:	1f 91       	pop	r17
    1482:	0f 91       	pop	r16
    1484:	08 95       	ret

00001486 <Vret_Rect_loop>:

void Vret_Rect_loop()
{
	for (cnt = 0;cnt<del;cnt++)
    1486:	10 92 05 02 	sts	0x0205, r1
    148a:	10 92 04 02 	sts	0x0204, r1
	{
		LED_On(2,4);	LED_On(2,5);	LED_On(2,6);
    148e:	64 e0       	ldi	r22, 0x04	; 4
    1490:	70 e0       	ldi	r23, 0x00	; 0
    1492:	82 e0       	ldi	r24, 0x02	; 2
    1494:	90 e0       	ldi	r25, 0x00	; 0
    1496:	0e 94 01 01 	call	0x202	; 0x202 <LED_On>
    149a:	65 e0       	ldi	r22, 0x05	; 5
    149c:	70 e0       	ldi	r23, 0x00	; 0
    149e:	82 e0       	ldi	r24, 0x02	; 2
    14a0:	90 e0       	ldi	r25, 0x00	; 0
    14a2:	0e 94 01 01 	call	0x202	; 0x202 <LED_On>
    14a6:	66 e0       	ldi	r22, 0x06	; 6
    14a8:	70 e0       	ldi	r23, 0x00	; 0
    14aa:	82 e0       	ldi	r24, 0x02	; 2
    14ac:	90 e0       	ldi	r25, 0x00	; 0
    14ae:	0e 94 01 01 	call	0x202	; 0x202 <LED_On>
		LED_On(1,4);	LED_On(1,5);	LED_On(1,6);
    14b2:	64 e0       	ldi	r22, 0x04	; 4
    14b4:	70 e0       	ldi	r23, 0x00	; 0
    14b6:	81 e0       	ldi	r24, 0x01	; 1
    14b8:	90 e0       	ldi	r25, 0x00	; 0
    14ba:	0e 94 01 01 	call	0x202	; 0x202 <LED_On>
    14be:	65 e0       	ldi	r22, 0x05	; 5
    14c0:	70 e0       	ldi	r23, 0x00	; 0
    14c2:	81 e0       	ldi	r24, 0x01	; 1
    14c4:	90 e0       	ldi	r25, 0x00	; 0
    14c6:	0e 94 01 01 	call	0x202	; 0x202 <LED_On>
    14ca:	66 e0       	ldi	r22, 0x06	; 6
    14cc:	70 e0       	ldi	r23, 0x00	; 0
    14ce:	81 e0       	ldi	r24, 0x01	; 1
    14d0:	90 e0       	ldi	r25, 0x00	; 0
    14d2:	0e 94 01 01 	call	0x202	; 0x202 <LED_On>
		LED_On(0,4);	LED_On(0,5);	LED_On(0,6);
    14d6:	64 e0       	ldi	r22, 0x04	; 4
    14d8:	70 e0       	ldi	r23, 0x00	; 0
    14da:	80 e0       	ldi	r24, 0x00	; 0
    14dc:	90 e0       	ldi	r25, 0x00	; 0
    14de:	0e 94 01 01 	call	0x202	; 0x202 <LED_On>
    14e2:	65 e0       	ldi	r22, 0x05	; 5
    14e4:	70 e0       	ldi	r23, 0x00	; 0
    14e6:	80 e0       	ldi	r24, 0x00	; 0
    14e8:	90 e0       	ldi	r25, 0x00	; 0
    14ea:	0e 94 01 01 	call	0x202	; 0x202 <LED_On>
    14ee:	66 e0       	ldi	r22, 0x06	; 6
    14f0:	70 e0       	ldi	r23, 0x00	; 0
    14f2:	80 e0       	ldi	r24, 0x00	; 0
    14f4:	90 e0       	ldi	r25, 0x00	; 0
    14f6:	0e 94 01 01 	call	0x202	; 0x202 <LED_On>
	}
}

void Vret_Rect_loop()
{
	for (cnt = 0;cnt<del;cnt++)
    14fa:	80 91 04 02 	lds	r24, 0x0204
    14fe:	90 91 05 02 	lds	r25, 0x0205
    1502:	01 96       	adiw	r24, 0x01	; 1
    1504:	90 93 05 02 	sts	0x0205, r25
    1508:	80 93 04 02 	sts	0x0204, r24
    150c:	0f 97       	sbiw	r24, 0x0f	; 15
    150e:	0c f4       	brge	.+2      	; 0x1512 <Vret_Rect_loop+0x8c>
    1510:	be cf       	rjmp	.-132    	; 0x148e <Vret_Rect_loop+0x8>
	{
		LED_On(2,4);	LED_On(2,5);	LED_On(2,6);
		LED_On(1,4);	LED_On(1,5);	LED_On(1,6);
		LED_On(0,4);	LED_On(0,5);	LED_On(0,6);
	}
	for (cnt = 0;cnt<del;cnt++)
    1512:	10 92 05 02 	sts	0x0205, r1
    1516:	10 92 04 02 	sts	0x0204, r1
	{
		LED_On(2,3);	LED_On(2,5);	LED_On(2,7);
    151a:	63 e0       	ldi	r22, 0x03	; 3
    151c:	70 e0       	ldi	r23, 0x00	; 0
    151e:	82 e0       	ldi	r24, 0x02	; 2
    1520:	90 e0       	ldi	r25, 0x00	; 0
    1522:	0e 94 01 01 	call	0x202	; 0x202 <LED_On>
    1526:	65 e0       	ldi	r22, 0x05	; 5
    1528:	70 e0       	ldi	r23, 0x00	; 0
    152a:	82 e0       	ldi	r24, 0x02	; 2
    152c:	90 e0       	ldi	r25, 0x00	; 0
    152e:	0e 94 01 01 	call	0x202	; 0x202 <LED_On>
    1532:	67 e0       	ldi	r22, 0x07	; 7
    1534:	70 e0       	ldi	r23, 0x00	; 0
    1536:	82 e0       	ldi	r24, 0x02	; 2
    1538:	90 e0       	ldi	r25, 0x00	; 0
    153a:	0e 94 01 01 	call	0x202	; 0x202 <LED_On>
		LED_On(1,3);	LED_On(1,5);	LED_On(1,7);
    153e:	63 e0       	ldi	r22, 0x03	; 3
    1540:	70 e0       	ldi	r23, 0x00	; 0
    1542:	81 e0       	ldi	r24, 0x01	; 1
    1544:	90 e0       	ldi	r25, 0x00	; 0
    1546:	0e 94 01 01 	call	0x202	; 0x202 <LED_On>
    154a:	65 e0       	ldi	r22, 0x05	; 5
    154c:	70 e0       	ldi	r23, 0x00	; 0
    154e:	81 e0       	ldi	r24, 0x01	; 1
    1550:	90 e0       	ldi	r25, 0x00	; 0
    1552:	0e 94 01 01 	call	0x202	; 0x202 <LED_On>
    1556:	67 e0       	ldi	r22, 0x07	; 7
    1558:	70 e0       	ldi	r23, 0x00	; 0
    155a:	81 e0       	ldi	r24, 0x01	; 1
    155c:	90 e0       	ldi	r25, 0x00	; 0
    155e:	0e 94 01 01 	call	0x202	; 0x202 <LED_On>
		LED_On(0,3);	LED_On(0,5);	LED_On(0,7);
    1562:	63 e0       	ldi	r22, 0x03	; 3
    1564:	70 e0       	ldi	r23, 0x00	; 0
    1566:	80 e0       	ldi	r24, 0x00	; 0
    1568:	90 e0       	ldi	r25, 0x00	; 0
    156a:	0e 94 01 01 	call	0x202	; 0x202 <LED_On>
    156e:	65 e0       	ldi	r22, 0x05	; 5
    1570:	70 e0       	ldi	r23, 0x00	; 0
    1572:	80 e0       	ldi	r24, 0x00	; 0
    1574:	90 e0       	ldi	r25, 0x00	; 0
    1576:	0e 94 01 01 	call	0x202	; 0x202 <LED_On>
    157a:	67 e0       	ldi	r22, 0x07	; 7
    157c:	70 e0       	ldi	r23, 0x00	; 0
    157e:	80 e0       	ldi	r24, 0x00	; 0
    1580:	90 e0       	ldi	r25, 0x00	; 0
    1582:	0e 94 01 01 	call	0x202	; 0x202 <LED_On>
	{
		LED_On(2,4);	LED_On(2,5);	LED_On(2,6);
		LED_On(1,4);	LED_On(1,5);	LED_On(1,6);
		LED_On(0,4);	LED_On(0,5);	LED_On(0,6);
	}
	for (cnt = 0;cnt<del;cnt++)
    1586:	80 91 04 02 	lds	r24, 0x0204
    158a:	90 91 05 02 	lds	r25, 0x0205
    158e:	01 96       	adiw	r24, 0x01	; 1
    1590:	90 93 05 02 	sts	0x0205, r25
    1594:	80 93 04 02 	sts	0x0204, r24
    1598:	0f 97       	sbiw	r24, 0x0f	; 15
    159a:	0c f4       	brge	.+2      	; 0x159e <Vret_Rect_loop+0x118>
    159c:	be cf       	rjmp	.-132    	; 0x151a <Vret_Rect_loop+0x94>
	{
		LED_On(2,3);	LED_On(2,5);	LED_On(2,7);
		LED_On(1,3);	LED_On(1,5);	LED_On(1,7);
		LED_On(0,3);	LED_On(0,5);	LED_On(0,7);
	}
	for (cnt = 0;cnt<del;cnt++)
    159e:	10 92 05 02 	sts	0x0205, r1
    15a2:	10 92 04 02 	sts	0x0204, r1
	{
		LED_On(2,2);	LED_On(2,5);	LED_On(2,8);
    15a6:	62 e0       	ldi	r22, 0x02	; 2
    15a8:	70 e0       	ldi	r23, 0x00	; 0
    15aa:	82 e0       	ldi	r24, 0x02	; 2
    15ac:	90 e0       	ldi	r25, 0x00	; 0
    15ae:	0e 94 01 01 	call	0x202	; 0x202 <LED_On>
    15b2:	65 e0       	ldi	r22, 0x05	; 5
    15b4:	70 e0       	ldi	r23, 0x00	; 0
    15b6:	82 e0       	ldi	r24, 0x02	; 2
    15b8:	90 e0       	ldi	r25, 0x00	; 0
    15ba:	0e 94 01 01 	call	0x202	; 0x202 <LED_On>
    15be:	68 e0       	ldi	r22, 0x08	; 8
    15c0:	70 e0       	ldi	r23, 0x00	; 0
    15c2:	82 e0       	ldi	r24, 0x02	; 2
    15c4:	90 e0       	ldi	r25, 0x00	; 0
    15c6:	0e 94 01 01 	call	0x202	; 0x202 <LED_On>
		LED_On(1,2);	LED_On(1,5);	LED_On(1,8);
    15ca:	62 e0       	ldi	r22, 0x02	; 2
    15cc:	70 e0       	ldi	r23, 0x00	; 0
    15ce:	81 e0       	ldi	r24, 0x01	; 1
    15d0:	90 e0       	ldi	r25, 0x00	; 0
    15d2:	0e 94 01 01 	call	0x202	; 0x202 <LED_On>
    15d6:	65 e0       	ldi	r22, 0x05	; 5
    15d8:	70 e0       	ldi	r23, 0x00	; 0
    15da:	81 e0       	ldi	r24, 0x01	; 1
    15dc:	90 e0       	ldi	r25, 0x00	; 0
    15de:	0e 94 01 01 	call	0x202	; 0x202 <LED_On>
    15e2:	68 e0       	ldi	r22, 0x08	; 8
    15e4:	70 e0       	ldi	r23, 0x00	; 0
    15e6:	81 e0       	ldi	r24, 0x01	; 1
    15e8:	90 e0       	ldi	r25, 0x00	; 0
    15ea:	0e 94 01 01 	call	0x202	; 0x202 <LED_On>
		LED_On(0,2);	LED_On(0,5);	LED_On(0,8);
    15ee:	62 e0       	ldi	r22, 0x02	; 2
    15f0:	70 e0       	ldi	r23, 0x00	; 0
    15f2:	80 e0       	ldi	r24, 0x00	; 0
    15f4:	90 e0       	ldi	r25, 0x00	; 0
    15f6:	0e 94 01 01 	call	0x202	; 0x202 <LED_On>
    15fa:	65 e0       	ldi	r22, 0x05	; 5
    15fc:	70 e0       	ldi	r23, 0x00	; 0
    15fe:	80 e0       	ldi	r24, 0x00	; 0
    1600:	90 e0       	ldi	r25, 0x00	; 0
    1602:	0e 94 01 01 	call	0x202	; 0x202 <LED_On>
    1606:	68 e0       	ldi	r22, 0x08	; 8
    1608:	70 e0       	ldi	r23, 0x00	; 0
    160a:	80 e0       	ldi	r24, 0x00	; 0
    160c:	90 e0       	ldi	r25, 0x00	; 0
    160e:	0e 94 01 01 	call	0x202	; 0x202 <LED_On>
	{
		LED_On(2,3);	LED_On(2,5);	LED_On(2,7);
		LED_On(1,3);	LED_On(1,5);	LED_On(1,7);
		LED_On(0,3);	LED_On(0,5);	LED_On(0,7);
	}
	for (cnt = 0;cnt<del;cnt++)
    1612:	80 91 04 02 	lds	r24, 0x0204
    1616:	90 91 05 02 	lds	r25, 0x0205
    161a:	01 96       	adiw	r24, 0x01	; 1
    161c:	90 93 05 02 	sts	0x0205, r25
    1620:	80 93 04 02 	sts	0x0204, r24
    1624:	0f 97       	sbiw	r24, 0x0f	; 15
    1626:	0c f4       	brge	.+2      	; 0x162a <Vret_Rect_loop+0x1a4>
    1628:	be cf       	rjmp	.-132    	; 0x15a6 <Vret_Rect_loop+0x120>
	{
		LED_On(2,2);	LED_On(2,5);	LED_On(2,8);
		LED_On(1,2);	LED_On(1,5);	LED_On(1,8);
		LED_On(0,2);	LED_On(0,5);	LED_On(0,8);
	}
	for (cnt = 0;cnt<del;cnt++)
    162a:	10 92 05 02 	sts	0x0205, r1
    162e:	10 92 04 02 	sts	0x0204, r1
	{
		LED_On(2,1);	LED_On(2,5);	LED_On(2,9);
    1632:	61 e0       	ldi	r22, 0x01	; 1
    1634:	70 e0       	ldi	r23, 0x00	; 0
    1636:	82 e0       	ldi	r24, 0x02	; 2
    1638:	90 e0       	ldi	r25, 0x00	; 0
    163a:	0e 94 01 01 	call	0x202	; 0x202 <LED_On>
    163e:	65 e0       	ldi	r22, 0x05	; 5
    1640:	70 e0       	ldi	r23, 0x00	; 0
    1642:	82 e0       	ldi	r24, 0x02	; 2
    1644:	90 e0       	ldi	r25, 0x00	; 0
    1646:	0e 94 01 01 	call	0x202	; 0x202 <LED_On>
    164a:	69 e0       	ldi	r22, 0x09	; 9
    164c:	70 e0       	ldi	r23, 0x00	; 0
    164e:	82 e0       	ldi	r24, 0x02	; 2
    1650:	90 e0       	ldi	r25, 0x00	; 0
    1652:	0e 94 01 01 	call	0x202	; 0x202 <LED_On>
		LED_On(1,1);	LED_On(1,5);	LED_On(1,9);
    1656:	61 e0       	ldi	r22, 0x01	; 1
    1658:	70 e0       	ldi	r23, 0x00	; 0
    165a:	81 e0       	ldi	r24, 0x01	; 1
    165c:	90 e0       	ldi	r25, 0x00	; 0
    165e:	0e 94 01 01 	call	0x202	; 0x202 <LED_On>
    1662:	65 e0       	ldi	r22, 0x05	; 5
    1664:	70 e0       	ldi	r23, 0x00	; 0
    1666:	81 e0       	ldi	r24, 0x01	; 1
    1668:	90 e0       	ldi	r25, 0x00	; 0
    166a:	0e 94 01 01 	call	0x202	; 0x202 <LED_On>
    166e:	69 e0       	ldi	r22, 0x09	; 9
    1670:	70 e0       	ldi	r23, 0x00	; 0
    1672:	81 e0       	ldi	r24, 0x01	; 1
    1674:	90 e0       	ldi	r25, 0x00	; 0
    1676:	0e 94 01 01 	call	0x202	; 0x202 <LED_On>
		LED_On(0,1);	LED_On(0,5);	LED_On(0,9);
    167a:	61 e0       	ldi	r22, 0x01	; 1
    167c:	70 e0       	ldi	r23, 0x00	; 0
    167e:	80 e0       	ldi	r24, 0x00	; 0
    1680:	90 e0       	ldi	r25, 0x00	; 0
    1682:	0e 94 01 01 	call	0x202	; 0x202 <LED_On>
    1686:	65 e0       	ldi	r22, 0x05	; 5
    1688:	70 e0       	ldi	r23, 0x00	; 0
    168a:	80 e0       	ldi	r24, 0x00	; 0
    168c:	90 e0       	ldi	r25, 0x00	; 0
    168e:	0e 94 01 01 	call	0x202	; 0x202 <LED_On>
    1692:	69 e0       	ldi	r22, 0x09	; 9
    1694:	70 e0       	ldi	r23, 0x00	; 0
    1696:	80 e0       	ldi	r24, 0x00	; 0
    1698:	90 e0       	ldi	r25, 0x00	; 0
    169a:	0e 94 01 01 	call	0x202	; 0x202 <LED_On>
	{
		LED_On(2,2);	LED_On(2,5);	LED_On(2,8);
		LED_On(1,2);	LED_On(1,5);	LED_On(1,8);
		LED_On(0,2);	LED_On(0,5);	LED_On(0,8);
	}
	for (cnt = 0;cnt<del;cnt++)
    169e:	80 91 04 02 	lds	r24, 0x0204
    16a2:	90 91 05 02 	lds	r25, 0x0205
    16a6:	01 96       	adiw	r24, 0x01	; 1
    16a8:	90 93 05 02 	sts	0x0205, r25
    16ac:	80 93 04 02 	sts	0x0204, r24
    16b0:	0f 97       	sbiw	r24, 0x0f	; 15
    16b2:	0c f4       	brge	.+2      	; 0x16b6 <Vret_Rect_loop+0x230>
    16b4:	be cf       	rjmp	.-132    	; 0x1632 <Vret_Rect_loop+0x1ac>
	{
		LED_On(2,1);	LED_On(2,5);	LED_On(2,9);
		LED_On(1,1);	LED_On(1,5);	LED_On(1,9);
		LED_On(0,1);	LED_On(0,5);	LED_On(0,9);
	}
}
    16b6:	08 95       	ret

000016b8 <Plane_flip>:

void Plane_flip()
{
    16b8:	cf 93       	push	r28
    16ba:	df 93       	push	r29
    16bc:	c3 e0       	ldi	r28, 0x03	; 3
    16be:	d0 e0       	ldi	r29, 0x00	; 0
	for (int i = 0; i < 3; i++)
	{
		for (cnt = 0;cnt<del*2;cnt++)
    16c0:	10 92 05 02 	sts	0x0205, r1
    16c4:	10 92 04 02 	sts	0x0204, r1
		{
			LED_On(2,7);	LED_On(2,8);	LED_On(2,9);
    16c8:	67 e0       	ldi	r22, 0x07	; 7
    16ca:	70 e0       	ldi	r23, 0x00	; 0
    16cc:	82 e0       	ldi	r24, 0x02	; 2
    16ce:	90 e0       	ldi	r25, 0x00	; 0
    16d0:	0e 94 01 01 	call	0x202	; 0x202 <LED_On>
    16d4:	68 e0       	ldi	r22, 0x08	; 8
    16d6:	70 e0       	ldi	r23, 0x00	; 0
    16d8:	82 e0       	ldi	r24, 0x02	; 2
    16da:	90 e0       	ldi	r25, 0x00	; 0
    16dc:	0e 94 01 01 	call	0x202	; 0x202 <LED_On>
    16e0:	69 e0       	ldi	r22, 0x09	; 9
    16e2:	70 e0       	ldi	r23, 0x00	; 0
    16e4:	82 e0       	ldi	r24, 0x02	; 2
    16e6:	90 e0       	ldi	r25, 0x00	; 0
    16e8:	0e 94 01 01 	call	0x202	; 0x202 <LED_On>
			LED_On(1,7);	LED_On(1,8);	LED_On(1,9);
    16ec:	67 e0       	ldi	r22, 0x07	; 7
    16ee:	70 e0       	ldi	r23, 0x00	; 0
    16f0:	81 e0       	ldi	r24, 0x01	; 1
    16f2:	90 e0       	ldi	r25, 0x00	; 0
    16f4:	0e 94 01 01 	call	0x202	; 0x202 <LED_On>
    16f8:	68 e0       	ldi	r22, 0x08	; 8
    16fa:	70 e0       	ldi	r23, 0x00	; 0
    16fc:	81 e0       	ldi	r24, 0x01	; 1
    16fe:	90 e0       	ldi	r25, 0x00	; 0
    1700:	0e 94 01 01 	call	0x202	; 0x202 <LED_On>
    1704:	69 e0       	ldi	r22, 0x09	; 9
    1706:	70 e0       	ldi	r23, 0x00	; 0
    1708:	81 e0       	ldi	r24, 0x01	; 1
    170a:	90 e0       	ldi	r25, 0x00	; 0
    170c:	0e 94 01 01 	call	0x202	; 0x202 <LED_On>
			LED_On(0,7);	LED_On(0,8);	LED_On(0,9);
    1710:	67 e0       	ldi	r22, 0x07	; 7
    1712:	70 e0       	ldi	r23, 0x00	; 0
    1714:	80 e0       	ldi	r24, 0x00	; 0
    1716:	90 e0       	ldi	r25, 0x00	; 0
    1718:	0e 94 01 01 	call	0x202	; 0x202 <LED_On>
    171c:	68 e0       	ldi	r22, 0x08	; 8
    171e:	70 e0       	ldi	r23, 0x00	; 0
    1720:	80 e0       	ldi	r24, 0x00	; 0
    1722:	90 e0       	ldi	r25, 0x00	; 0
    1724:	0e 94 01 01 	call	0x202	; 0x202 <LED_On>
    1728:	69 e0       	ldi	r22, 0x09	; 9
    172a:	70 e0       	ldi	r23, 0x00	; 0
    172c:	80 e0       	ldi	r24, 0x00	; 0
    172e:	90 e0       	ldi	r25, 0x00	; 0
    1730:	0e 94 01 01 	call	0x202	; 0x202 <LED_On>

void Plane_flip()
{
	for (int i = 0; i < 3; i++)
	{
		for (cnt = 0;cnt<del*2;cnt++)
    1734:	80 91 04 02 	lds	r24, 0x0204
    1738:	90 91 05 02 	lds	r25, 0x0205
    173c:	01 96       	adiw	r24, 0x01	; 1
    173e:	90 93 05 02 	sts	0x0205, r25
    1742:	80 93 04 02 	sts	0x0204, r24
    1746:	4e 97       	sbiw	r24, 0x1e	; 30
    1748:	0c f4       	brge	.+2      	; 0x174c <Plane_flip+0x94>
    174a:	be cf       	rjmp	.-132    	; 0x16c8 <Plane_flip+0x10>
		{
			LED_On(2,7);	LED_On(2,8);	LED_On(2,9);
			LED_On(1,7);	LED_On(1,8);	LED_On(1,9);
			LED_On(0,7);	LED_On(0,8);	LED_On(0,9);
		}
		for (cnt = 0;cnt<del/3;cnt++)
    174c:	10 92 05 02 	sts	0x0205, r1
    1750:	10 92 04 02 	sts	0x0204, r1
		{
			LED_On(2,7);	LED_On(2,8);	LED_On(2,5);	LED_On(2,6);
    1754:	67 e0       	ldi	r22, 0x07	; 7
    1756:	70 e0       	ldi	r23, 0x00	; 0
    1758:	82 e0       	ldi	r24, 0x02	; 2
    175a:	90 e0       	ldi	r25, 0x00	; 0
    175c:	0e 94 01 01 	call	0x202	; 0x202 <LED_On>
    1760:	68 e0       	ldi	r22, 0x08	; 8
    1762:	70 e0       	ldi	r23, 0x00	; 0
    1764:	82 e0       	ldi	r24, 0x02	; 2
    1766:	90 e0       	ldi	r25, 0x00	; 0
    1768:	0e 94 01 01 	call	0x202	; 0x202 <LED_On>
    176c:	65 e0       	ldi	r22, 0x05	; 5
    176e:	70 e0       	ldi	r23, 0x00	; 0
    1770:	82 e0       	ldi	r24, 0x02	; 2
    1772:	90 e0       	ldi	r25, 0x00	; 0
    1774:	0e 94 01 01 	call	0x202	; 0x202 <LED_On>
    1778:	66 e0       	ldi	r22, 0x06	; 6
    177a:	70 e0       	ldi	r23, 0x00	; 0
    177c:	82 e0       	ldi	r24, 0x02	; 2
    177e:	90 e0       	ldi	r25, 0x00	; 0
    1780:	0e 94 01 01 	call	0x202	; 0x202 <LED_On>
			LED_On(1,7);	LED_On(1,8);	LED_On(1,5);	LED_On(1,6);
    1784:	67 e0       	ldi	r22, 0x07	; 7
    1786:	70 e0       	ldi	r23, 0x00	; 0
    1788:	81 e0       	ldi	r24, 0x01	; 1
    178a:	90 e0       	ldi	r25, 0x00	; 0
    178c:	0e 94 01 01 	call	0x202	; 0x202 <LED_On>
    1790:	68 e0       	ldi	r22, 0x08	; 8
    1792:	70 e0       	ldi	r23, 0x00	; 0
    1794:	81 e0       	ldi	r24, 0x01	; 1
    1796:	90 e0       	ldi	r25, 0x00	; 0
    1798:	0e 94 01 01 	call	0x202	; 0x202 <LED_On>
    179c:	65 e0       	ldi	r22, 0x05	; 5
    179e:	70 e0       	ldi	r23, 0x00	; 0
    17a0:	81 e0       	ldi	r24, 0x01	; 1
    17a2:	90 e0       	ldi	r25, 0x00	; 0
    17a4:	0e 94 01 01 	call	0x202	; 0x202 <LED_On>
    17a8:	66 e0       	ldi	r22, 0x06	; 6
    17aa:	70 e0       	ldi	r23, 0x00	; 0
    17ac:	81 e0       	ldi	r24, 0x01	; 1
    17ae:	90 e0       	ldi	r25, 0x00	; 0
    17b0:	0e 94 01 01 	call	0x202	; 0x202 <LED_On>
			LED_On(0,7);	LED_On(0,8);	LED_On(0,5);	LED_On(0,6);
    17b4:	67 e0       	ldi	r22, 0x07	; 7
    17b6:	70 e0       	ldi	r23, 0x00	; 0
    17b8:	80 e0       	ldi	r24, 0x00	; 0
    17ba:	90 e0       	ldi	r25, 0x00	; 0
    17bc:	0e 94 01 01 	call	0x202	; 0x202 <LED_On>
    17c0:	68 e0       	ldi	r22, 0x08	; 8
    17c2:	70 e0       	ldi	r23, 0x00	; 0
    17c4:	80 e0       	ldi	r24, 0x00	; 0
    17c6:	90 e0       	ldi	r25, 0x00	; 0
    17c8:	0e 94 01 01 	call	0x202	; 0x202 <LED_On>
    17cc:	65 e0       	ldi	r22, 0x05	; 5
    17ce:	70 e0       	ldi	r23, 0x00	; 0
    17d0:	80 e0       	ldi	r24, 0x00	; 0
    17d2:	90 e0       	ldi	r25, 0x00	; 0
    17d4:	0e 94 01 01 	call	0x202	; 0x202 <LED_On>
    17d8:	66 e0       	ldi	r22, 0x06	; 6
    17da:	70 e0       	ldi	r23, 0x00	; 0
    17dc:	80 e0       	ldi	r24, 0x00	; 0
    17de:	90 e0       	ldi	r25, 0x00	; 0
    17e0:	0e 94 01 01 	call	0x202	; 0x202 <LED_On>
		{
			LED_On(2,7);	LED_On(2,8);	LED_On(2,9);
			LED_On(1,7);	LED_On(1,8);	LED_On(1,9);
			LED_On(0,7);	LED_On(0,8);	LED_On(0,9);
		}
		for (cnt = 0;cnt<del/3;cnt++)
    17e4:	80 91 04 02 	lds	r24, 0x0204
    17e8:	90 91 05 02 	lds	r25, 0x0205
    17ec:	01 96       	adiw	r24, 0x01	; 1
    17ee:	90 93 05 02 	sts	0x0205, r25
    17f2:	80 93 04 02 	sts	0x0204, r24
    17f6:	05 97       	sbiw	r24, 0x05	; 5
    17f8:	0c f4       	brge	.+2      	; 0x17fc <Plane_flip+0x144>
    17fa:	ac cf       	rjmp	.-168    	; 0x1754 <Plane_flip+0x9c>
		{
			LED_On(2,7);	LED_On(2,8);	LED_On(2,5);	LED_On(2,6);
			LED_On(1,7);	LED_On(1,8);	LED_On(1,5);	LED_On(1,6);
			LED_On(0,7);	LED_On(0,8);	LED_On(0,5);	LED_On(0,6);
		}
		for (cnt = 0;cnt<del/3;cnt++)
    17fc:	10 92 05 02 	sts	0x0205, r1
    1800:	10 92 04 02 	sts	0x0204, r1
		{
			LED_On(2,7);	LED_On(2,5);	LED_On(2,3);
    1804:	67 e0       	ldi	r22, 0x07	; 7
    1806:	70 e0       	ldi	r23, 0x00	; 0
    1808:	82 e0       	ldi	r24, 0x02	; 2
    180a:	90 e0       	ldi	r25, 0x00	; 0
    180c:	0e 94 01 01 	call	0x202	; 0x202 <LED_On>
    1810:	65 e0       	ldi	r22, 0x05	; 5
    1812:	70 e0       	ldi	r23, 0x00	; 0
    1814:	82 e0       	ldi	r24, 0x02	; 2
    1816:	90 e0       	ldi	r25, 0x00	; 0
    1818:	0e 94 01 01 	call	0x202	; 0x202 <LED_On>
    181c:	63 e0       	ldi	r22, 0x03	; 3
    181e:	70 e0       	ldi	r23, 0x00	; 0
    1820:	82 e0       	ldi	r24, 0x02	; 2
    1822:	90 e0       	ldi	r25, 0x00	; 0
    1824:	0e 94 01 01 	call	0x202	; 0x202 <LED_On>
			LED_On(1,7);	LED_On(1,5);	LED_On(1,3);
    1828:	67 e0       	ldi	r22, 0x07	; 7
    182a:	70 e0       	ldi	r23, 0x00	; 0
    182c:	81 e0       	ldi	r24, 0x01	; 1
    182e:	90 e0       	ldi	r25, 0x00	; 0
    1830:	0e 94 01 01 	call	0x202	; 0x202 <LED_On>
    1834:	65 e0       	ldi	r22, 0x05	; 5
    1836:	70 e0       	ldi	r23, 0x00	; 0
    1838:	81 e0       	ldi	r24, 0x01	; 1
    183a:	90 e0       	ldi	r25, 0x00	; 0
    183c:	0e 94 01 01 	call	0x202	; 0x202 <LED_On>
    1840:	63 e0       	ldi	r22, 0x03	; 3
    1842:	70 e0       	ldi	r23, 0x00	; 0
    1844:	81 e0       	ldi	r24, 0x01	; 1
    1846:	90 e0       	ldi	r25, 0x00	; 0
    1848:	0e 94 01 01 	call	0x202	; 0x202 <LED_On>
			LED_On(0,7);	LED_On(0,5);	LED_On(0,3);
    184c:	67 e0       	ldi	r22, 0x07	; 7
    184e:	70 e0       	ldi	r23, 0x00	; 0
    1850:	80 e0       	ldi	r24, 0x00	; 0
    1852:	90 e0       	ldi	r25, 0x00	; 0
    1854:	0e 94 01 01 	call	0x202	; 0x202 <LED_On>
    1858:	65 e0       	ldi	r22, 0x05	; 5
    185a:	70 e0       	ldi	r23, 0x00	; 0
    185c:	80 e0       	ldi	r24, 0x00	; 0
    185e:	90 e0       	ldi	r25, 0x00	; 0
    1860:	0e 94 01 01 	call	0x202	; 0x202 <LED_On>
    1864:	63 e0       	ldi	r22, 0x03	; 3
    1866:	70 e0       	ldi	r23, 0x00	; 0
    1868:	80 e0       	ldi	r24, 0x00	; 0
    186a:	90 e0       	ldi	r25, 0x00	; 0
    186c:	0e 94 01 01 	call	0x202	; 0x202 <LED_On>
		{
			LED_On(2,7);	LED_On(2,8);	LED_On(2,5);	LED_On(2,6);
			LED_On(1,7);	LED_On(1,8);	LED_On(1,5);	LED_On(1,6);
			LED_On(0,7);	LED_On(0,8);	LED_On(0,5);	LED_On(0,6);
		}
		for (cnt = 0;cnt<del/3;cnt++)
    1870:	80 91 04 02 	lds	r24, 0x0204
    1874:	90 91 05 02 	lds	r25, 0x0205
    1878:	01 96       	adiw	r24, 0x01	; 1
    187a:	90 93 05 02 	sts	0x0205, r25
    187e:	80 93 04 02 	sts	0x0204, r24
    1882:	05 97       	sbiw	r24, 0x05	; 5
    1884:	0c f4       	brge	.+2      	; 0x1888 <Plane_flip+0x1d0>
    1886:	be cf       	rjmp	.-132    	; 0x1804 <Plane_flip+0x14c>
		{
			LED_On(2,7);	LED_On(2,5);	LED_On(2,3);
			LED_On(1,7);	LED_On(1,5);	LED_On(1,3);
			LED_On(0,7);	LED_On(0,5);	LED_On(0,3);
		}
		for (cnt = 0;cnt<del/3;cnt++)
    1888:	10 92 05 02 	sts	0x0205, r1
    188c:	10 92 04 02 	sts	0x0204, r1
		{
			LED_On(2,7);	LED_On(2,4);	LED_On(2,5);	LED_On(2,2);
    1890:	67 e0       	ldi	r22, 0x07	; 7
    1892:	70 e0       	ldi	r23, 0x00	; 0
    1894:	82 e0       	ldi	r24, 0x02	; 2
    1896:	90 e0       	ldi	r25, 0x00	; 0
    1898:	0e 94 01 01 	call	0x202	; 0x202 <LED_On>
    189c:	64 e0       	ldi	r22, 0x04	; 4
    189e:	70 e0       	ldi	r23, 0x00	; 0
    18a0:	82 e0       	ldi	r24, 0x02	; 2
    18a2:	90 e0       	ldi	r25, 0x00	; 0
    18a4:	0e 94 01 01 	call	0x202	; 0x202 <LED_On>
    18a8:	65 e0       	ldi	r22, 0x05	; 5
    18aa:	70 e0       	ldi	r23, 0x00	; 0
    18ac:	82 e0       	ldi	r24, 0x02	; 2
    18ae:	90 e0       	ldi	r25, 0x00	; 0
    18b0:	0e 94 01 01 	call	0x202	; 0x202 <LED_On>
    18b4:	62 e0       	ldi	r22, 0x02	; 2
    18b6:	70 e0       	ldi	r23, 0x00	; 0
    18b8:	82 e0       	ldi	r24, 0x02	; 2
    18ba:	90 e0       	ldi	r25, 0x00	; 0
    18bc:	0e 94 01 01 	call	0x202	; 0x202 <LED_On>
			LED_On(1,7);	LED_On(1,4);	LED_On(1,5);	LED_On(1,2);
    18c0:	67 e0       	ldi	r22, 0x07	; 7
    18c2:	70 e0       	ldi	r23, 0x00	; 0
    18c4:	81 e0       	ldi	r24, 0x01	; 1
    18c6:	90 e0       	ldi	r25, 0x00	; 0
    18c8:	0e 94 01 01 	call	0x202	; 0x202 <LED_On>
    18cc:	64 e0       	ldi	r22, 0x04	; 4
    18ce:	70 e0       	ldi	r23, 0x00	; 0
    18d0:	81 e0       	ldi	r24, 0x01	; 1
    18d2:	90 e0       	ldi	r25, 0x00	; 0
    18d4:	0e 94 01 01 	call	0x202	; 0x202 <LED_On>
    18d8:	65 e0       	ldi	r22, 0x05	; 5
    18da:	70 e0       	ldi	r23, 0x00	; 0
    18dc:	81 e0       	ldi	r24, 0x01	; 1
    18de:	90 e0       	ldi	r25, 0x00	; 0
    18e0:	0e 94 01 01 	call	0x202	; 0x202 <LED_On>
    18e4:	62 e0       	ldi	r22, 0x02	; 2
    18e6:	70 e0       	ldi	r23, 0x00	; 0
    18e8:	81 e0       	ldi	r24, 0x01	; 1
    18ea:	90 e0       	ldi	r25, 0x00	; 0
    18ec:	0e 94 01 01 	call	0x202	; 0x202 <LED_On>
			LED_On(0,7);	LED_On(0,4);	LED_On(0,5);	LED_On(0,2);
    18f0:	67 e0       	ldi	r22, 0x07	; 7
    18f2:	70 e0       	ldi	r23, 0x00	; 0
    18f4:	80 e0       	ldi	r24, 0x00	; 0
    18f6:	90 e0       	ldi	r25, 0x00	; 0
    18f8:	0e 94 01 01 	call	0x202	; 0x202 <LED_On>
    18fc:	64 e0       	ldi	r22, 0x04	; 4
    18fe:	70 e0       	ldi	r23, 0x00	; 0
    1900:	80 e0       	ldi	r24, 0x00	; 0
    1902:	90 e0       	ldi	r25, 0x00	; 0
    1904:	0e 94 01 01 	call	0x202	; 0x202 <LED_On>
    1908:	65 e0       	ldi	r22, 0x05	; 5
    190a:	70 e0       	ldi	r23, 0x00	; 0
    190c:	80 e0       	ldi	r24, 0x00	; 0
    190e:	90 e0       	ldi	r25, 0x00	; 0
    1910:	0e 94 01 01 	call	0x202	; 0x202 <LED_On>
    1914:	62 e0       	ldi	r22, 0x02	; 2
    1916:	70 e0       	ldi	r23, 0x00	; 0
    1918:	80 e0       	ldi	r24, 0x00	; 0
    191a:	90 e0       	ldi	r25, 0x00	; 0
    191c:	0e 94 01 01 	call	0x202	; 0x202 <LED_On>
		{
			LED_On(2,7);	LED_On(2,5);	LED_On(2,3);
			LED_On(1,7);	LED_On(1,5);	LED_On(1,3);
			LED_On(0,7);	LED_On(0,5);	LED_On(0,3);
		}
		for (cnt = 0;cnt<del/3;cnt++)
    1920:	80 91 04 02 	lds	r24, 0x0204
    1924:	90 91 05 02 	lds	r25, 0x0205
    1928:	01 96       	adiw	r24, 0x01	; 1
    192a:	90 93 05 02 	sts	0x0205, r25
    192e:	80 93 04 02 	sts	0x0204, r24
    1932:	05 97       	sbiw	r24, 0x05	; 5
    1934:	0c f4       	brge	.+2      	; 0x1938 <Plane_flip+0x280>
    1936:	ac cf       	rjmp	.-168    	; 0x1890 <Plane_flip+0x1d8>
		{
			LED_On(2,7);	LED_On(2,4);	LED_On(2,5);	LED_On(2,2);
			LED_On(1,7);	LED_On(1,4);	LED_On(1,5);	LED_On(1,2);
			LED_On(0,7);	LED_On(0,4);	LED_On(0,5);	LED_On(0,2);
		}
		for (cnt = 0;cnt<del*2;cnt++)
    1938:	10 92 05 02 	sts	0x0205, r1
    193c:	10 92 04 02 	sts	0x0204, r1
		{
			LED_On(2,7);	LED_On(2,4);	LED_On(2,1);
    1940:	67 e0       	ldi	r22, 0x07	; 7
    1942:	70 e0       	ldi	r23, 0x00	; 0
    1944:	82 e0       	ldi	r24, 0x02	; 2
    1946:	90 e0       	ldi	r25, 0x00	; 0
    1948:	0e 94 01 01 	call	0x202	; 0x202 <LED_On>
    194c:	64 e0       	ldi	r22, 0x04	; 4
    194e:	70 e0       	ldi	r23, 0x00	; 0
    1950:	82 e0       	ldi	r24, 0x02	; 2
    1952:	90 e0       	ldi	r25, 0x00	; 0
    1954:	0e 94 01 01 	call	0x202	; 0x202 <LED_On>
    1958:	61 e0       	ldi	r22, 0x01	; 1
    195a:	70 e0       	ldi	r23, 0x00	; 0
    195c:	82 e0       	ldi	r24, 0x02	; 2
    195e:	90 e0       	ldi	r25, 0x00	; 0
    1960:	0e 94 01 01 	call	0x202	; 0x202 <LED_On>
			LED_On(1,7);	LED_On(1,4);	LED_On(1,1);
    1964:	67 e0       	ldi	r22, 0x07	; 7
    1966:	70 e0       	ldi	r23, 0x00	; 0
    1968:	81 e0       	ldi	r24, 0x01	; 1
    196a:	90 e0       	ldi	r25, 0x00	; 0
    196c:	0e 94 01 01 	call	0x202	; 0x202 <LED_On>
    1970:	64 e0       	ldi	r22, 0x04	; 4
    1972:	70 e0       	ldi	r23, 0x00	; 0
    1974:	81 e0       	ldi	r24, 0x01	; 1
    1976:	90 e0       	ldi	r25, 0x00	; 0
    1978:	0e 94 01 01 	call	0x202	; 0x202 <LED_On>
    197c:	61 e0       	ldi	r22, 0x01	; 1
    197e:	70 e0       	ldi	r23, 0x00	; 0
    1980:	81 e0       	ldi	r24, 0x01	; 1
    1982:	90 e0       	ldi	r25, 0x00	; 0
    1984:	0e 94 01 01 	call	0x202	; 0x202 <LED_On>
			LED_On(0,7);	LED_On(0,4);	LED_On(0,1);
    1988:	67 e0       	ldi	r22, 0x07	; 7
    198a:	70 e0       	ldi	r23, 0x00	; 0
    198c:	80 e0       	ldi	r24, 0x00	; 0
    198e:	90 e0       	ldi	r25, 0x00	; 0
    1990:	0e 94 01 01 	call	0x202	; 0x202 <LED_On>
    1994:	64 e0       	ldi	r22, 0x04	; 4
    1996:	70 e0       	ldi	r23, 0x00	; 0
    1998:	80 e0       	ldi	r24, 0x00	; 0
    199a:	90 e0       	ldi	r25, 0x00	; 0
    199c:	0e 94 01 01 	call	0x202	; 0x202 <LED_On>
    19a0:	61 e0       	ldi	r22, 0x01	; 1
    19a2:	70 e0       	ldi	r23, 0x00	; 0
    19a4:	80 e0       	ldi	r24, 0x00	; 0
    19a6:	90 e0       	ldi	r25, 0x00	; 0
    19a8:	0e 94 01 01 	call	0x202	; 0x202 <LED_On>
		{
			LED_On(2,7);	LED_On(2,4);	LED_On(2,5);	LED_On(2,2);
			LED_On(1,7);	LED_On(1,4);	LED_On(1,5);	LED_On(1,2);
			LED_On(0,7);	LED_On(0,4);	LED_On(0,5);	LED_On(0,2);
		}
		for (cnt = 0;cnt<del*2;cnt++)
    19ac:	80 91 04 02 	lds	r24, 0x0204
    19b0:	90 91 05 02 	lds	r25, 0x0205
    19b4:	01 96       	adiw	r24, 0x01	; 1
    19b6:	90 93 05 02 	sts	0x0205, r25
    19ba:	80 93 04 02 	sts	0x0204, r24
    19be:	4e 97       	sbiw	r24, 0x1e	; 30
    19c0:	0c f4       	brge	.+2      	; 0x19c4 <Plane_flip+0x30c>
    19c2:	be cf       	rjmp	.-132    	; 0x1940 <Plane_flip+0x288>
		{
			LED_On(2,7);	LED_On(2,4);	LED_On(2,1);
			LED_On(1,7);	LED_On(1,4);	LED_On(1,1);
			LED_On(0,7);	LED_On(0,4);	LED_On(0,1);
		}
		for (cnt = 0;cnt<del/3;cnt++)
    19c4:	10 92 05 02 	sts	0x0205, r1
    19c8:	10 92 04 02 	sts	0x0204, r1
		{
			LED_On(2,1);	LED_On(2,4);	LED_On(2,5);	LED_On(2,8);
    19cc:	61 e0       	ldi	r22, 0x01	; 1
    19ce:	70 e0       	ldi	r23, 0x00	; 0
    19d0:	82 e0       	ldi	r24, 0x02	; 2
    19d2:	90 e0       	ldi	r25, 0x00	; 0
    19d4:	0e 94 01 01 	call	0x202	; 0x202 <LED_On>
    19d8:	64 e0       	ldi	r22, 0x04	; 4
    19da:	70 e0       	ldi	r23, 0x00	; 0
    19dc:	82 e0       	ldi	r24, 0x02	; 2
    19de:	90 e0       	ldi	r25, 0x00	; 0
    19e0:	0e 94 01 01 	call	0x202	; 0x202 <LED_On>
    19e4:	65 e0       	ldi	r22, 0x05	; 5
    19e6:	70 e0       	ldi	r23, 0x00	; 0
    19e8:	82 e0       	ldi	r24, 0x02	; 2
    19ea:	90 e0       	ldi	r25, 0x00	; 0
    19ec:	0e 94 01 01 	call	0x202	; 0x202 <LED_On>
    19f0:	68 e0       	ldi	r22, 0x08	; 8
    19f2:	70 e0       	ldi	r23, 0x00	; 0
    19f4:	82 e0       	ldi	r24, 0x02	; 2
    19f6:	90 e0       	ldi	r25, 0x00	; 0
    19f8:	0e 94 01 01 	call	0x202	; 0x202 <LED_On>
			LED_On(1,1);	LED_On(1,4);	LED_On(1,5);	LED_On(1,8);
    19fc:	61 e0       	ldi	r22, 0x01	; 1
    19fe:	70 e0       	ldi	r23, 0x00	; 0
    1a00:	81 e0       	ldi	r24, 0x01	; 1
    1a02:	90 e0       	ldi	r25, 0x00	; 0
    1a04:	0e 94 01 01 	call	0x202	; 0x202 <LED_On>
    1a08:	64 e0       	ldi	r22, 0x04	; 4
    1a0a:	70 e0       	ldi	r23, 0x00	; 0
    1a0c:	81 e0       	ldi	r24, 0x01	; 1
    1a0e:	90 e0       	ldi	r25, 0x00	; 0
    1a10:	0e 94 01 01 	call	0x202	; 0x202 <LED_On>
    1a14:	65 e0       	ldi	r22, 0x05	; 5
    1a16:	70 e0       	ldi	r23, 0x00	; 0
    1a18:	81 e0       	ldi	r24, 0x01	; 1
    1a1a:	90 e0       	ldi	r25, 0x00	; 0
    1a1c:	0e 94 01 01 	call	0x202	; 0x202 <LED_On>
    1a20:	68 e0       	ldi	r22, 0x08	; 8
    1a22:	70 e0       	ldi	r23, 0x00	; 0
    1a24:	81 e0       	ldi	r24, 0x01	; 1
    1a26:	90 e0       	ldi	r25, 0x00	; 0
    1a28:	0e 94 01 01 	call	0x202	; 0x202 <LED_On>
			LED_On(0,1);	LED_On(0,4);	LED_On(0,5);	LED_On(0,8);
    1a2c:	61 e0       	ldi	r22, 0x01	; 1
    1a2e:	70 e0       	ldi	r23, 0x00	; 0
    1a30:	80 e0       	ldi	r24, 0x00	; 0
    1a32:	90 e0       	ldi	r25, 0x00	; 0
    1a34:	0e 94 01 01 	call	0x202	; 0x202 <LED_On>
    1a38:	64 e0       	ldi	r22, 0x04	; 4
    1a3a:	70 e0       	ldi	r23, 0x00	; 0
    1a3c:	80 e0       	ldi	r24, 0x00	; 0
    1a3e:	90 e0       	ldi	r25, 0x00	; 0
    1a40:	0e 94 01 01 	call	0x202	; 0x202 <LED_On>
    1a44:	65 e0       	ldi	r22, 0x05	; 5
    1a46:	70 e0       	ldi	r23, 0x00	; 0
    1a48:	80 e0       	ldi	r24, 0x00	; 0
    1a4a:	90 e0       	ldi	r25, 0x00	; 0
    1a4c:	0e 94 01 01 	call	0x202	; 0x202 <LED_On>
    1a50:	68 e0       	ldi	r22, 0x08	; 8
    1a52:	70 e0       	ldi	r23, 0x00	; 0
    1a54:	80 e0       	ldi	r24, 0x00	; 0
    1a56:	90 e0       	ldi	r25, 0x00	; 0
    1a58:	0e 94 01 01 	call	0x202	; 0x202 <LED_On>
		{
			LED_On(2,7);	LED_On(2,4);	LED_On(2,1);
			LED_On(1,7);	LED_On(1,4);	LED_On(1,1);
			LED_On(0,7);	LED_On(0,4);	LED_On(0,1);
		}
		for (cnt = 0;cnt<del/3;cnt++)
    1a5c:	80 91 04 02 	lds	r24, 0x0204
    1a60:	90 91 05 02 	lds	r25, 0x0205
    1a64:	01 96       	adiw	r24, 0x01	; 1
    1a66:	90 93 05 02 	sts	0x0205, r25
    1a6a:	80 93 04 02 	sts	0x0204, r24
    1a6e:	05 97       	sbiw	r24, 0x05	; 5
    1a70:	0c f4       	brge	.+2      	; 0x1a74 <Plane_flip+0x3bc>
    1a72:	ac cf       	rjmp	.-168    	; 0x19cc <Plane_flip+0x314>
		{
			LED_On(2,1);	LED_On(2,4);	LED_On(2,5);	LED_On(2,8);
			LED_On(1,1);	LED_On(1,4);	LED_On(1,5);	LED_On(1,8);
			LED_On(0,1);	LED_On(0,4);	LED_On(0,5);	LED_On(0,8);
		}
		for (cnt = 0;cnt<del/3;cnt++)
    1a74:	10 92 05 02 	sts	0x0205, r1
    1a78:	10 92 04 02 	sts	0x0204, r1
		{
			LED_On(2,1);	LED_On(2,5);	LED_On(2,9);
    1a7c:	61 e0       	ldi	r22, 0x01	; 1
    1a7e:	70 e0       	ldi	r23, 0x00	; 0
    1a80:	82 e0       	ldi	r24, 0x02	; 2
    1a82:	90 e0       	ldi	r25, 0x00	; 0
    1a84:	0e 94 01 01 	call	0x202	; 0x202 <LED_On>
    1a88:	65 e0       	ldi	r22, 0x05	; 5
    1a8a:	70 e0       	ldi	r23, 0x00	; 0
    1a8c:	82 e0       	ldi	r24, 0x02	; 2
    1a8e:	90 e0       	ldi	r25, 0x00	; 0
    1a90:	0e 94 01 01 	call	0x202	; 0x202 <LED_On>
    1a94:	69 e0       	ldi	r22, 0x09	; 9
    1a96:	70 e0       	ldi	r23, 0x00	; 0
    1a98:	82 e0       	ldi	r24, 0x02	; 2
    1a9a:	90 e0       	ldi	r25, 0x00	; 0
    1a9c:	0e 94 01 01 	call	0x202	; 0x202 <LED_On>
			LED_On(1,1);	LED_On(1,5);	LED_On(1,9);
    1aa0:	61 e0       	ldi	r22, 0x01	; 1
    1aa2:	70 e0       	ldi	r23, 0x00	; 0
    1aa4:	81 e0       	ldi	r24, 0x01	; 1
    1aa6:	90 e0       	ldi	r25, 0x00	; 0
    1aa8:	0e 94 01 01 	call	0x202	; 0x202 <LED_On>
    1aac:	65 e0       	ldi	r22, 0x05	; 5
    1aae:	70 e0       	ldi	r23, 0x00	; 0
    1ab0:	81 e0       	ldi	r24, 0x01	; 1
    1ab2:	90 e0       	ldi	r25, 0x00	; 0
    1ab4:	0e 94 01 01 	call	0x202	; 0x202 <LED_On>
    1ab8:	69 e0       	ldi	r22, 0x09	; 9
    1aba:	70 e0       	ldi	r23, 0x00	; 0
    1abc:	81 e0       	ldi	r24, 0x01	; 1
    1abe:	90 e0       	ldi	r25, 0x00	; 0
    1ac0:	0e 94 01 01 	call	0x202	; 0x202 <LED_On>
			LED_On(0,1);	LED_On(0,5);	LED_On(0,9);
    1ac4:	61 e0       	ldi	r22, 0x01	; 1
    1ac6:	70 e0       	ldi	r23, 0x00	; 0
    1ac8:	80 e0       	ldi	r24, 0x00	; 0
    1aca:	90 e0       	ldi	r25, 0x00	; 0
    1acc:	0e 94 01 01 	call	0x202	; 0x202 <LED_On>
    1ad0:	65 e0       	ldi	r22, 0x05	; 5
    1ad2:	70 e0       	ldi	r23, 0x00	; 0
    1ad4:	80 e0       	ldi	r24, 0x00	; 0
    1ad6:	90 e0       	ldi	r25, 0x00	; 0
    1ad8:	0e 94 01 01 	call	0x202	; 0x202 <LED_On>
    1adc:	69 e0       	ldi	r22, 0x09	; 9
    1ade:	70 e0       	ldi	r23, 0x00	; 0
    1ae0:	80 e0       	ldi	r24, 0x00	; 0
    1ae2:	90 e0       	ldi	r25, 0x00	; 0
    1ae4:	0e 94 01 01 	call	0x202	; 0x202 <LED_On>
		{
			LED_On(2,1);	LED_On(2,4);	LED_On(2,5);	LED_On(2,8);
			LED_On(1,1);	LED_On(1,4);	LED_On(1,5);	LED_On(1,8);
			LED_On(0,1);	LED_On(0,4);	LED_On(0,5);	LED_On(0,8);
		}
		for (cnt = 0;cnt<del/3;cnt++)
    1ae8:	80 91 04 02 	lds	r24, 0x0204
    1aec:	90 91 05 02 	lds	r25, 0x0205
    1af0:	01 96       	adiw	r24, 0x01	; 1
    1af2:	90 93 05 02 	sts	0x0205, r25
    1af6:	80 93 04 02 	sts	0x0204, r24
    1afa:	05 97       	sbiw	r24, 0x05	; 5
    1afc:	0c f4       	brge	.+2      	; 0x1b00 <Plane_flip+0x448>
    1afe:	be cf       	rjmp	.-132    	; 0x1a7c <Plane_flip+0x3c4>
		{
			LED_On(2,1);	LED_On(2,5);	LED_On(2,9);
			LED_On(1,1);	LED_On(1,5);	LED_On(1,9);
			LED_On(0,1);	LED_On(0,5);	LED_On(0,9);
		}
		for (cnt = 0;cnt<del/3;cnt++)
    1b00:	10 92 05 02 	sts	0x0205, r1
    1b04:	10 92 04 02 	sts	0x0204, r1
		{
			LED_On(2,1);	LED_On(2,2);	LED_On(2,5);	LED_On(2,6);
    1b08:	61 e0       	ldi	r22, 0x01	; 1
    1b0a:	70 e0       	ldi	r23, 0x00	; 0
    1b0c:	82 e0       	ldi	r24, 0x02	; 2
    1b0e:	90 e0       	ldi	r25, 0x00	; 0
    1b10:	0e 94 01 01 	call	0x202	; 0x202 <LED_On>
    1b14:	62 e0       	ldi	r22, 0x02	; 2
    1b16:	70 e0       	ldi	r23, 0x00	; 0
    1b18:	82 e0       	ldi	r24, 0x02	; 2
    1b1a:	90 e0       	ldi	r25, 0x00	; 0
    1b1c:	0e 94 01 01 	call	0x202	; 0x202 <LED_On>
    1b20:	65 e0       	ldi	r22, 0x05	; 5
    1b22:	70 e0       	ldi	r23, 0x00	; 0
    1b24:	82 e0       	ldi	r24, 0x02	; 2
    1b26:	90 e0       	ldi	r25, 0x00	; 0
    1b28:	0e 94 01 01 	call	0x202	; 0x202 <LED_On>
    1b2c:	66 e0       	ldi	r22, 0x06	; 6
    1b2e:	70 e0       	ldi	r23, 0x00	; 0
    1b30:	82 e0       	ldi	r24, 0x02	; 2
    1b32:	90 e0       	ldi	r25, 0x00	; 0
    1b34:	0e 94 01 01 	call	0x202	; 0x202 <LED_On>
			LED_On(1,1);	LED_On(1,2);	LED_On(1,5);	LED_On(1,6);
    1b38:	61 e0       	ldi	r22, 0x01	; 1
    1b3a:	70 e0       	ldi	r23, 0x00	; 0
    1b3c:	81 e0       	ldi	r24, 0x01	; 1
    1b3e:	90 e0       	ldi	r25, 0x00	; 0
    1b40:	0e 94 01 01 	call	0x202	; 0x202 <LED_On>
    1b44:	62 e0       	ldi	r22, 0x02	; 2
    1b46:	70 e0       	ldi	r23, 0x00	; 0
    1b48:	81 e0       	ldi	r24, 0x01	; 1
    1b4a:	90 e0       	ldi	r25, 0x00	; 0
    1b4c:	0e 94 01 01 	call	0x202	; 0x202 <LED_On>
    1b50:	65 e0       	ldi	r22, 0x05	; 5
    1b52:	70 e0       	ldi	r23, 0x00	; 0
    1b54:	81 e0       	ldi	r24, 0x01	; 1
    1b56:	90 e0       	ldi	r25, 0x00	; 0
    1b58:	0e 94 01 01 	call	0x202	; 0x202 <LED_On>
    1b5c:	66 e0       	ldi	r22, 0x06	; 6
    1b5e:	70 e0       	ldi	r23, 0x00	; 0
    1b60:	81 e0       	ldi	r24, 0x01	; 1
    1b62:	90 e0       	ldi	r25, 0x00	; 0
    1b64:	0e 94 01 01 	call	0x202	; 0x202 <LED_On>
			LED_On(0,1);	LED_On(0,2);	LED_On(0,5);	LED_On(0,6);
    1b68:	61 e0       	ldi	r22, 0x01	; 1
    1b6a:	70 e0       	ldi	r23, 0x00	; 0
    1b6c:	80 e0       	ldi	r24, 0x00	; 0
    1b6e:	90 e0       	ldi	r25, 0x00	; 0
    1b70:	0e 94 01 01 	call	0x202	; 0x202 <LED_On>
    1b74:	62 e0       	ldi	r22, 0x02	; 2
    1b76:	70 e0       	ldi	r23, 0x00	; 0
    1b78:	80 e0       	ldi	r24, 0x00	; 0
    1b7a:	90 e0       	ldi	r25, 0x00	; 0
    1b7c:	0e 94 01 01 	call	0x202	; 0x202 <LED_On>
    1b80:	65 e0       	ldi	r22, 0x05	; 5
    1b82:	70 e0       	ldi	r23, 0x00	; 0
    1b84:	80 e0       	ldi	r24, 0x00	; 0
    1b86:	90 e0       	ldi	r25, 0x00	; 0
    1b88:	0e 94 01 01 	call	0x202	; 0x202 <LED_On>
    1b8c:	66 e0       	ldi	r22, 0x06	; 6
    1b8e:	70 e0       	ldi	r23, 0x00	; 0
    1b90:	80 e0       	ldi	r24, 0x00	; 0
    1b92:	90 e0       	ldi	r25, 0x00	; 0
    1b94:	0e 94 01 01 	call	0x202	; 0x202 <LED_On>
		{
			LED_On(2,1);	LED_On(2,5);	LED_On(2,9);
			LED_On(1,1);	LED_On(1,5);	LED_On(1,9);
			LED_On(0,1);	LED_On(0,5);	LED_On(0,9);
		}
		for (cnt = 0;cnt<del/3;cnt++)
    1b98:	80 91 04 02 	lds	r24, 0x0204
    1b9c:	90 91 05 02 	lds	r25, 0x0205
    1ba0:	01 96       	adiw	r24, 0x01	; 1
    1ba2:	90 93 05 02 	sts	0x0205, r25
    1ba6:	80 93 04 02 	sts	0x0204, r24
    1baa:	05 97       	sbiw	r24, 0x05	; 5
    1bac:	0c f4       	brge	.+2      	; 0x1bb0 <Plane_flip+0x4f8>
    1bae:	ac cf       	rjmp	.-168    	; 0x1b08 <Plane_flip+0x450>
		{
			LED_On(2,1);	LED_On(2,2);	LED_On(2,5);	LED_On(2,6);
			LED_On(1,1);	LED_On(1,2);	LED_On(1,5);	LED_On(1,6);
			LED_On(0,1);	LED_On(0,2);	LED_On(0,5);	LED_On(0,6);
		}
		for (cnt = 0;cnt<del*2;cnt++)
    1bb0:	10 92 05 02 	sts	0x0205, r1
    1bb4:	10 92 04 02 	sts	0x0204, r1
		{
			LED_On(2,1);	LED_On(2,2);	LED_On(2,3);
    1bb8:	61 e0       	ldi	r22, 0x01	; 1
    1bba:	70 e0       	ldi	r23, 0x00	; 0
    1bbc:	82 e0       	ldi	r24, 0x02	; 2
    1bbe:	90 e0       	ldi	r25, 0x00	; 0
    1bc0:	0e 94 01 01 	call	0x202	; 0x202 <LED_On>
    1bc4:	62 e0       	ldi	r22, 0x02	; 2
    1bc6:	70 e0       	ldi	r23, 0x00	; 0
    1bc8:	82 e0       	ldi	r24, 0x02	; 2
    1bca:	90 e0       	ldi	r25, 0x00	; 0
    1bcc:	0e 94 01 01 	call	0x202	; 0x202 <LED_On>
    1bd0:	63 e0       	ldi	r22, 0x03	; 3
    1bd2:	70 e0       	ldi	r23, 0x00	; 0
    1bd4:	82 e0       	ldi	r24, 0x02	; 2
    1bd6:	90 e0       	ldi	r25, 0x00	; 0
    1bd8:	0e 94 01 01 	call	0x202	; 0x202 <LED_On>
			LED_On(1,1);	LED_On(1,2);	LED_On(1,3);
    1bdc:	61 e0       	ldi	r22, 0x01	; 1
    1bde:	70 e0       	ldi	r23, 0x00	; 0
    1be0:	81 e0       	ldi	r24, 0x01	; 1
    1be2:	90 e0       	ldi	r25, 0x00	; 0
    1be4:	0e 94 01 01 	call	0x202	; 0x202 <LED_On>
    1be8:	62 e0       	ldi	r22, 0x02	; 2
    1bea:	70 e0       	ldi	r23, 0x00	; 0
    1bec:	81 e0       	ldi	r24, 0x01	; 1
    1bee:	90 e0       	ldi	r25, 0x00	; 0
    1bf0:	0e 94 01 01 	call	0x202	; 0x202 <LED_On>
    1bf4:	63 e0       	ldi	r22, 0x03	; 3
    1bf6:	70 e0       	ldi	r23, 0x00	; 0
    1bf8:	81 e0       	ldi	r24, 0x01	; 1
    1bfa:	90 e0       	ldi	r25, 0x00	; 0
    1bfc:	0e 94 01 01 	call	0x202	; 0x202 <LED_On>
			LED_On(0,1);	LED_On(0,2);	LED_On(0,3);
    1c00:	61 e0       	ldi	r22, 0x01	; 1
    1c02:	70 e0       	ldi	r23, 0x00	; 0
    1c04:	80 e0       	ldi	r24, 0x00	; 0
    1c06:	90 e0       	ldi	r25, 0x00	; 0
    1c08:	0e 94 01 01 	call	0x202	; 0x202 <LED_On>
    1c0c:	62 e0       	ldi	r22, 0x02	; 2
    1c0e:	70 e0       	ldi	r23, 0x00	; 0
    1c10:	80 e0       	ldi	r24, 0x00	; 0
    1c12:	90 e0       	ldi	r25, 0x00	; 0
    1c14:	0e 94 01 01 	call	0x202	; 0x202 <LED_On>
    1c18:	63 e0       	ldi	r22, 0x03	; 3
    1c1a:	70 e0       	ldi	r23, 0x00	; 0
    1c1c:	80 e0       	ldi	r24, 0x00	; 0
    1c1e:	90 e0       	ldi	r25, 0x00	; 0
    1c20:	0e 94 01 01 	call	0x202	; 0x202 <LED_On>
		{
			LED_On(2,1);	LED_On(2,2);	LED_On(2,5);	LED_On(2,6);
			LED_On(1,1);	LED_On(1,2);	LED_On(1,5);	LED_On(1,6);
			LED_On(0,1);	LED_On(0,2);	LED_On(0,5);	LED_On(0,6);
		}
		for (cnt = 0;cnt<del*2;cnt++)
    1c24:	80 91 04 02 	lds	r24, 0x0204
    1c28:	90 91 05 02 	lds	r25, 0x0205
    1c2c:	01 96       	adiw	r24, 0x01	; 1
    1c2e:	90 93 05 02 	sts	0x0205, r25
    1c32:	80 93 04 02 	sts	0x0204, r24
    1c36:	4e 97       	sbiw	r24, 0x1e	; 30
    1c38:	0c f4       	brge	.+2      	; 0x1c3c <Plane_flip+0x584>
    1c3a:	be cf       	rjmp	.-132    	; 0x1bb8 <Plane_flip+0x500>
		{
			LED_On(2,1);	LED_On(2,2);	LED_On(2,3);
			LED_On(1,1);	LED_On(1,2);	LED_On(1,3);
			LED_On(0,1);	LED_On(0,2);	LED_On(0,3);
		}
		for (cnt = 0;cnt<del/3;cnt++)
    1c3c:	10 92 05 02 	sts	0x0205, r1
    1c40:	10 92 04 02 	sts	0x0204, r1
		{
			LED_On(2,2);	LED_On(2,4);	LED_On(2,5);	LED_On(2,3);
    1c44:	62 e0       	ldi	r22, 0x02	; 2
    1c46:	70 e0       	ldi	r23, 0x00	; 0
    1c48:	82 e0       	ldi	r24, 0x02	; 2
    1c4a:	90 e0       	ldi	r25, 0x00	; 0
    1c4c:	0e 94 01 01 	call	0x202	; 0x202 <LED_On>
    1c50:	64 e0       	ldi	r22, 0x04	; 4
    1c52:	70 e0       	ldi	r23, 0x00	; 0
    1c54:	82 e0       	ldi	r24, 0x02	; 2
    1c56:	90 e0       	ldi	r25, 0x00	; 0
    1c58:	0e 94 01 01 	call	0x202	; 0x202 <LED_On>
    1c5c:	65 e0       	ldi	r22, 0x05	; 5
    1c5e:	70 e0       	ldi	r23, 0x00	; 0
    1c60:	82 e0       	ldi	r24, 0x02	; 2
    1c62:	90 e0       	ldi	r25, 0x00	; 0
    1c64:	0e 94 01 01 	call	0x202	; 0x202 <LED_On>
    1c68:	63 e0       	ldi	r22, 0x03	; 3
    1c6a:	70 e0       	ldi	r23, 0x00	; 0
    1c6c:	82 e0       	ldi	r24, 0x02	; 2
    1c6e:	90 e0       	ldi	r25, 0x00	; 0
    1c70:	0e 94 01 01 	call	0x202	; 0x202 <LED_On>
			LED_On(1,2);	LED_On(1,4);	LED_On(1,5);	LED_On(1,3);
    1c74:	62 e0       	ldi	r22, 0x02	; 2
    1c76:	70 e0       	ldi	r23, 0x00	; 0
    1c78:	81 e0       	ldi	r24, 0x01	; 1
    1c7a:	90 e0       	ldi	r25, 0x00	; 0
    1c7c:	0e 94 01 01 	call	0x202	; 0x202 <LED_On>
    1c80:	64 e0       	ldi	r22, 0x04	; 4
    1c82:	70 e0       	ldi	r23, 0x00	; 0
    1c84:	81 e0       	ldi	r24, 0x01	; 1
    1c86:	90 e0       	ldi	r25, 0x00	; 0
    1c88:	0e 94 01 01 	call	0x202	; 0x202 <LED_On>
    1c8c:	65 e0       	ldi	r22, 0x05	; 5
    1c8e:	70 e0       	ldi	r23, 0x00	; 0
    1c90:	81 e0       	ldi	r24, 0x01	; 1
    1c92:	90 e0       	ldi	r25, 0x00	; 0
    1c94:	0e 94 01 01 	call	0x202	; 0x202 <LED_On>
    1c98:	63 e0       	ldi	r22, 0x03	; 3
    1c9a:	70 e0       	ldi	r23, 0x00	; 0
    1c9c:	81 e0       	ldi	r24, 0x01	; 1
    1c9e:	90 e0       	ldi	r25, 0x00	; 0
    1ca0:	0e 94 01 01 	call	0x202	; 0x202 <LED_On>
			LED_On(0,2);	LED_On(0,4);	LED_On(0,5);	LED_On(0,3);
    1ca4:	62 e0       	ldi	r22, 0x02	; 2
    1ca6:	70 e0       	ldi	r23, 0x00	; 0
    1ca8:	80 e0       	ldi	r24, 0x00	; 0
    1caa:	90 e0       	ldi	r25, 0x00	; 0
    1cac:	0e 94 01 01 	call	0x202	; 0x202 <LED_On>
    1cb0:	64 e0       	ldi	r22, 0x04	; 4
    1cb2:	70 e0       	ldi	r23, 0x00	; 0
    1cb4:	80 e0       	ldi	r24, 0x00	; 0
    1cb6:	90 e0       	ldi	r25, 0x00	; 0
    1cb8:	0e 94 01 01 	call	0x202	; 0x202 <LED_On>
    1cbc:	65 e0       	ldi	r22, 0x05	; 5
    1cbe:	70 e0       	ldi	r23, 0x00	; 0
    1cc0:	80 e0       	ldi	r24, 0x00	; 0
    1cc2:	90 e0       	ldi	r25, 0x00	; 0
    1cc4:	0e 94 01 01 	call	0x202	; 0x202 <LED_On>
    1cc8:	63 e0       	ldi	r22, 0x03	; 3
    1cca:	70 e0       	ldi	r23, 0x00	; 0
    1ccc:	80 e0       	ldi	r24, 0x00	; 0
    1cce:	90 e0       	ldi	r25, 0x00	; 0
    1cd0:	0e 94 01 01 	call	0x202	; 0x202 <LED_On>
		{
			LED_On(2,1);	LED_On(2,2);	LED_On(2,3);
			LED_On(1,1);	LED_On(1,2);	LED_On(1,3);
			LED_On(0,1);	LED_On(0,2);	LED_On(0,3);
		}
		for (cnt = 0;cnt<del/3;cnt++)
    1cd4:	80 91 04 02 	lds	r24, 0x0204
    1cd8:	90 91 05 02 	lds	r25, 0x0205
    1cdc:	01 96       	adiw	r24, 0x01	; 1
    1cde:	90 93 05 02 	sts	0x0205, r25
    1ce2:	80 93 04 02 	sts	0x0204, r24
    1ce6:	05 97       	sbiw	r24, 0x05	; 5
    1ce8:	0c f4       	brge	.+2      	; 0x1cec <Plane_flip+0x634>
    1cea:	ac cf       	rjmp	.-168    	; 0x1c44 <Plane_flip+0x58c>
		{
			LED_On(2,2);	LED_On(2,4);	LED_On(2,5);	LED_On(2,3);
			LED_On(1,2);	LED_On(1,4);	LED_On(1,5);	LED_On(1,3);
			LED_On(0,2);	LED_On(0,4);	LED_On(0,5);	LED_On(0,3);
		}
		for (cnt = 0;cnt<del/3;cnt++)
    1cec:	10 92 05 02 	sts	0x0205, r1
    1cf0:	10 92 04 02 	sts	0x0204, r1
		{
			LED_On(2,7);	LED_On(2,5);	LED_On(2,3);
    1cf4:	67 e0       	ldi	r22, 0x07	; 7
    1cf6:	70 e0       	ldi	r23, 0x00	; 0
    1cf8:	82 e0       	ldi	r24, 0x02	; 2
    1cfa:	90 e0       	ldi	r25, 0x00	; 0
    1cfc:	0e 94 01 01 	call	0x202	; 0x202 <LED_On>
    1d00:	65 e0       	ldi	r22, 0x05	; 5
    1d02:	70 e0       	ldi	r23, 0x00	; 0
    1d04:	82 e0       	ldi	r24, 0x02	; 2
    1d06:	90 e0       	ldi	r25, 0x00	; 0
    1d08:	0e 94 01 01 	call	0x202	; 0x202 <LED_On>
    1d0c:	63 e0       	ldi	r22, 0x03	; 3
    1d0e:	70 e0       	ldi	r23, 0x00	; 0
    1d10:	82 e0       	ldi	r24, 0x02	; 2
    1d12:	90 e0       	ldi	r25, 0x00	; 0
    1d14:	0e 94 01 01 	call	0x202	; 0x202 <LED_On>
			LED_On(1,7);	LED_On(1,5);	LED_On(1,3);
    1d18:	67 e0       	ldi	r22, 0x07	; 7
    1d1a:	70 e0       	ldi	r23, 0x00	; 0
    1d1c:	81 e0       	ldi	r24, 0x01	; 1
    1d1e:	90 e0       	ldi	r25, 0x00	; 0
    1d20:	0e 94 01 01 	call	0x202	; 0x202 <LED_On>
    1d24:	65 e0       	ldi	r22, 0x05	; 5
    1d26:	70 e0       	ldi	r23, 0x00	; 0
    1d28:	81 e0       	ldi	r24, 0x01	; 1
    1d2a:	90 e0       	ldi	r25, 0x00	; 0
    1d2c:	0e 94 01 01 	call	0x202	; 0x202 <LED_On>
    1d30:	63 e0       	ldi	r22, 0x03	; 3
    1d32:	70 e0       	ldi	r23, 0x00	; 0
    1d34:	81 e0       	ldi	r24, 0x01	; 1
    1d36:	90 e0       	ldi	r25, 0x00	; 0
    1d38:	0e 94 01 01 	call	0x202	; 0x202 <LED_On>
			LED_On(0,7);	LED_On(0,5);	LED_On(0,3);
    1d3c:	67 e0       	ldi	r22, 0x07	; 7
    1d3e:	70 e0       	ldi	r23, 0x00	; 0
    1d40:	80 e0       	ldi	r24, 0x00	; 0
    1d42:	90 e0       	ldi	r25, 0x00	; 0
    1d44:	0e 94 01 01 	call	0x202	; 0x202 <LED_On>
    1d48:	65 e0       	ldi	r22, 0x05	; 5
    1d4a:	70 e0       	ldi	r23, 0x00	; 0
    1d4c:	80 e0       	ldi	r24, 0x00	; 0
    1d4e:	90 e0       	ldi	r25, 0x00	; 0
    1d50:	0e 94 01 01 	call	0x202	; 0x202 <LED_On>
    1d54:	63 e0       	ldi	r22, 0x03	; 3
    1d56:	70 e0       	ldi	r23, 0x00	; 0
    1d58:	80 e0       	ldi	r24, 0x00	; 0
    1d5a:	90 e0       	ldi	r25, 0x00	; 0
    1d5c:	0e 94 01 01 	call	0x202	; 0x202 <LED_On>
		{
			LED_On(2,2);	LED_On(2,4);	LED_On(2,5);	LED_On(2,3);
			LED_On(1,2);	LED_On(1,4);	LED_On(1,5);	LED_On(1,3);
			LED_On(0,2);	LED_On(0,4);	LED_On(0,5);	LED_On(0,3);
		}
		for (cnt = 0;cnt<del/3;cnt++)
    1d60:	80 91 04 02 	lds	r24, 0x0204
    1d64:	90 91 05 02 	lds	r25, 0x0205
    1d68:	01 96       	adiw	r24, 0x01	; 1
    1d6a:	90 93 05 02 	sts	0x0205, r25
    1d6e:	80 93 04 02 	sts	0x0204, r24
    1d72:	05 97       	sbiw	r24, 0x05	; 5
    1d74:	0c f4       	brge	.+2      	; 0x1d78 <Plane_flip+0x6c0>
    1d76:	be cf       	rjmp	.-132    	; 0x1cf4 <Plane_flip+0x63c>
		{
			LED_On(2,7);	LED_On(2,5);	LED_On(2,3);
			LED_On(1,7);	LED_On(1,5);	LED_On(1,3);
			LED_On(0,7);	LED_On(0,5);	LED_On(0,3);
		}
		for (cnt = 0;cnt<del/3;cnt++)
    1d78:	10 92 05 02 	sts	0x0205, r1
    1d7c:	10 92 04 02 	sts	0x0204, r1
		{
			LED_On(2,3);	LED_On(2,8);	LED_On(2,5);	LED_On(2,6);
    1d80:	63 e0       	ldi	r22, 0x03	; 3
    1d82:	70 e0       	ldi	r23, 0x00	; 0
    1d84:	82 e0       	ldi	r24, 0x02	; 2
    1d86:	90 e0       	ldi	r25, 0x00	; 0
    1d88:	0e 94 01 01 	call	0x202	; 0x202 <LED_On>
    1d8c:	68 e0       	ldi	r22, 0x08	; 8
    1d8e:	70 e0       	ldi	r23, 0x00	; 0
    1d90:	82 e0       	ldi	r24, 0x02	; 2
    1d92:	90 e0       	ldi	r25, 0x00	; 0
    1d94:	0e 94 01 01 	call	0x202	; 0x202 <LED_On>
    1d98:	65 e0       	ldi	r22, 0x05	; 5
    1d9a:	70 e0       	ldi	r23, 0x00	; 0
    1d9c:	82 e0       	ldi	r24, 0x02	; 2
    1d9e:	90 e0       	ldi	r25, 0x00	; 0
    1da0:	0e 94 01 01 	call	0x202	; 0x202 <LED_On>
    1da4:	66 e0       	ldi	r22, 0x06	; 6
    1da6:	70 e0       	ldi	r23, 0x00	; 0
    1da8:	82 e0       	ldi	r24, 0x02	; 2
    1daa:	90 e0       	ldi	r25, 0x00	; 0
    1dac:	0e 94 01 01 	call	0x202	; 0x202 <LED_On>
			LED_On(1,3);	LED_On(1,8);	LED_On(1,5);	LED_On(1,6);
    1db0:	63 e0       	ldi	r22, 0x03	; 3
    1db2:	70 e0       	ldi	r23, 0x00	; 0
    1db4:	81 e0       	ldi	r24, 0x01	; 1
    1db6:	90 e0       	ldi	r25, 0x00	; 0
    1db8:	0e 94 01 01 	call	0x202	; 0x202 <LED_On>
    1dbc:	68 e0       	ldi	r22, 0x08	; 8
    1dbe:	70 e0       	ldi	r23, 0x00	; 0
    1dc0:	81 e0       	ldi	r24, 0x01	; 1
    1dc2:	90 e0       	ldi	r25, 0x00	; 0
    1dc4:	0e 94 01 01 	call	0x202	; 0x202 <LED_On>
    1dc8:	65 e0       	ldi	r22, 0x05	; 5
    1dca:	70 e0       	ldi	r23, 0x00	; 0
    1dcc:	81 e0       	ldi	r24, 0x01	; 1
    1dce:	90 e0       	ldi	r25, 0x00	; 0
    1dd0:	0e 94 01 01 	call	0x202	; 0x202 <LED_On>
    1dd4:	66 e0       	ldi	r22, 0x06	; 6
    1dd6:	70 e0       	ldi	r23, 0x00	; 0
    1dd8:	81 e0       	ldi	r24, 0x01	; 1
    1dda:	90 e0       	ldi	r25, 0x00	; 0
    1ddc:	0e 94 01 01 	call	0x202	; 0x202 <LED_On>
			LED_On(0,3);	LED_On(0,8);	LED_On(0,5);	LED_On(0,6);
    1de0:	63 e0       	ldi	r22, 0x03	; 3
    1de2:	70 e0       	ldi	r23, 0x00	; 0
    1de4:	80 e0       	ldi	r24, 0x00	; 0
    1de6:	90 e0       	ldi	r25, 0x00	; 0
    1de8:	0e 94 01 01 	call	0x202	; 0x202 <LED_On>
    1dec:	68 e0       	ldi	r22, 0x08	; 8
    1dee:	70 e0       	ldi	r23, 0x00	; 0
    1df0:	80 e0       	ldi	r24, 0x00	; 0
    1df2:	90 e0       	ldi	r25, 0x00	; 0
    1df4:	0e 94 01 01 	call	0x202	; 0x202 <LED_On>
    1df8:	65 e0       	ldi	r22, 0x05	; 5
    1dfa:	70 e0       	ldi	r23, 0x00	; 0
    1dfc:	80 e0       	ldi	r24, 0x00	; 0
    1dfe:	90 e0       	ldi	r25, 0x00	; 0
    1e00:	0e 94 01 01 	call	0x202	; 0x202 <LED_On>
    1e04:	66 e0       	ldi	r22, 0x06	; 6
    1e06:	70 e0       	ldi	r23, 0x00	; 0
    1e08:	80 e0       	ldi	r24, 0x00	; 0
    1e0a:	90 e0       	ldi	r25, 0x00	; 0
    1e0c:	0e 94 01 01 	call	0x202	; 0x202 <LED_On>
		{
			LED_On(2,7);	LED_On(2,5);	LED_On(2,3);
			LED_On(1,7);	LED_On(1,5);	LED_On(1,3);
			LED_On(0,7);	LED_On(0,5);	LED_On(0,3);
		}
		for (cnt = 0;cnt<del/3;cnt++)
    1e10:	80 91 04 02 	lds	r24, 0x0204
    1e14:	90 91 05 02 	lds	r25, 0x0205
    1e18:	01 96       	adiw	r24, 0x01	; 1
    1e1a:	90 93 05 02 	sts	0x0205, r25
    1e1e:	80 93 04 02 	sts	0x0204, r24
    1e22:	05 97       	sbiw	r24, 0x05	; 5
    1e24:	0c f4       	brge	.+2      	; 0x1e28 <Plane_flip+0x770>
    1e26:	ac cf       	rjmp	.-168    	; 0x1d80 <Plane_flip+0x6c8>
		{
			LED_On(2,3);	LED_On(2,8);	LED_On(2,5);	LED_On(2,6);
			LED_On(1,3);	LED_On(1,8);	LED_On(1,5);	LED_On(1,6);
			LED_On(0,3);	LED_On(0,8);	LED_On(0,5);	LED_On(0,6);
		}
		for (cnt = 0;cnt<del*2;cnt++)
    1e28:	10 92 05 02 	sts	0x0205, r1
    1e2c:	10 92 04 02 	sts	0x0204, r1
		{
			LED_On(2,3);	LED_On(2,6);	LED_On(2,9);
    1e30:	63 e0       	ldi	r22, 0x03	; 3
    1e32:	70 e0       	ldi	r23, 0x00	; 0
    1e34:	82 e0       	ldi	r24, 0x02	; 2
    1e36:	90 e0       	ldi	r25, 0x00	; 0
    1e38:	0e 94 01 01 	call	0x202	; 0x202 <LED_On>
    1e3c:	66 e0       	ldi	r22, 0x06	; 6
    1e3e:	70 e0       	ldi	r23, 0x00	; 0
    1e40:	82 e0       	ldi	r24, 0x02	; 2
    1e42:	90 e0       	ldi	r25, 0x00	; 0
    1e44:	0e 94 01 01 	call	0x202	; 0x202 <LED_On>
    1e48:	69 e0       	ldi	r22, 0x09	; 9
    1e4a:	70 e0       	ldi	r23, 0x00	; 0
    1e4c:	82 e0       	ldi	r24, 0x02	; 2
    1e4e:	90 e0       	ldi	r25, 0x00	; 0
    1e50:	0e 94 01 01 	call	0x202	; 0x202 <LED_On>
			LED_On(1,3);	LED_On(1,6);	LED_On(1,9);
    1e54:	63 e0       	ldi	r22, 0x03	; 3
    1e56:	70 e0       	ldi	r23, 0x00	; 0
    1e58:	81 e0       	ldi	r24, 0x01	; 1
    1e5a:	90 e0       	ldi	r25, 0x00	; 0
    1e5c:	0e 94 01 01 	call	0x202	; 0x202 <LED_On>
    1e60:	66 e0       	ldi	r22, 0x06	; 6
    1e62:	70 e0       	ldi	r23, 0x00	; 0
    1e64:	81 e0       	ldi	r24, 0x01	; 1
    1e66:	90 e0       	ldi	r25, 0x00	; 0
    1e68:	0e 94 01 01 	call	0x202	; 0x202 <LED_On>
    1e6c:	69 e0       	ldi	r22, 0x09	; 9
    1e6e:	70 e0       	ldi	r23, 0x00	; 0
    1e70:	81 e0       	ldi	r24, 0x01	; 1
    1e72:	90 e0       	ldi	r25, 0x00	; 0
    1e74:	0e 94 01 01 	call	0x202	; 0x202 <LED_On>
			LED_On(0,3);	LED_On(0,6);	LED_On(0,9);
    1e78:	63 e0       	ldi	r22, 0x03	; 3
    1e7a:	70 e0       	ldi	r23, 0x00	; 0
    1e7c:	80 e0       	ldi	r24, 0x00	; 0
    1e7e:	90 e0       	ldi	r25, 0x00	; 0
    1e80:	0e 94 01 01 	call	0x202	; 0x202 <LED_On>
    1e84:	66 e0       	ldi	r22, 0x06	; 6
    1e86:	70 e0       	ldi	r23, 0x00	; 0
    1e88:	80 e0       	ldi	r24, 0x00	; 0
    1e8a:	90 e0       	ldi	r25, 0x00	; 0
    1e8c:	0e 94 01 01 	call	0x202	; 0x202 <LED_On>
    1e90:	69 e0       	ldi	r22, 0x09	; 9
    1e92:	70 e0       	ldi	r23, 0x00	; 0
    1e94:	80 e0       	ldi	r24, 0x00	; 0
    1e96:	90 e0       	ldi	r25, 0x00	; 0
    1e98:	0e 94 01 01 	call	0x202	; 0x202 <LED_On>
		{
			LED_On(2,3);	LED_On(2,8);	LED_On(2,5);	LED_On(2,6);
			LED_On(1,3);	LED_On(1,8);	LED_On(1,5);	LED_On(1,6);
			LED_On(0,3);	LED_On(0,8);	LED_On(0,5);	LED_On(0,6);
		}
		for (cnt = 0;cnt<del*2;cnt++)
    1e9c:	80 91 04 02 	lds	r24, 0x0204
    1ea0:	90 91 05 02 	lds	r25, 0x0205
    1ea4:	01 96       	adiw	r24, 0x01	; 1
    1ea6:	90 93 05 02 	sts	0x0205, r25
    1eaa:	80 93 04 02 	sts	0x0204, r24
    1eae:	4e 97       	sbiw	r24, 0x1e	; 30
    1eb0:	0c f4       	brge	.+2      	; 0x1eb4 <Plane_flip+0x7fc>
    1eb2:	be cf       	rjmp	.-132    	; 0x1e30 <Plane_flip+0x778>
		{
			LED_On(2,3);	LED_On(2,6);	LED_On(2,9);
			LED_On(1,3);	LED_On(1,6);	LED_On(1,9);
			LED_On(0,3);	LED_On(0,6);	LED_On(0,9);
		}
		for (cnt = 0;cnt<del/3;cnt++)
    1eb4:	10 92 05 02 	sts	0x0205, r1
    1eb8:	10 92 04 02 	sts	0x0204, r1
		{
			LED_On(2,2);	LED_On(2,9);	LED_On(2,5);	LED_On(2,6);
    1ebc:	62 e0       	ldi	r22, 0x02	; 2
    1ebe:	70 e0       	ldi	r23, 0x00	; 0
    1ec0:	82 e0       	ldi	r24, 0x02	; 2
    1ec2:	90 e0       	ldi	r25, 0x00	; 0
    1ec4:	0e 94 01 01 	call	0x202	; 0x202 <LED_On>
    1ec8:	69 e0       	ldi	r22, 0x09	; 9
    1eca:	70 e0       	ldi	r23, 0x00	; 0
    1ecc:	82 e0       	ldi	r24, 0x02	; 2
    1ece:	90 e0       	ldi	r25, 0x00	; 0
    1ed0:	0e 94 01 01 	call	0x202	; 0x202 <LED_On>
    1ed4:	65 e0       	ldi	r22, 0x05	; 5
    1ed6:	70 e0       	ldi	r23, 0x00	; 0
    1ed8:	82 e0       	ldi	r24, 0x02	; 2
    1eda:	90 e0       	ldi	r25, 0x00	; 0
    1edc:	0e 94 01 01 	call	0x202	; 0x202 <LED_On>
    1ee0:	66 e0       	ldi	r22, 0x06	; 6
    1ee2:	70 e0       	ldi	r23, 0x00	; 0
    1ee4:	82 e0       	ldi	r24, 0x02	; 2
    1ee6:	90 e0       	ldi	r25, 0x00	; 0
    1ee8:	0e 94 01 01 	call	0x202	; 0x202 <LED_On>
			LED_On(1,2);	LED_On(1,9);	LED_On(1,5);	LED_On(1,6);
    1eec:	62 e0       	ldi	r22, 0x02	; 2
    1eee:	70 e0       	ldi	r23, 0x00	; 0
    1ef0:	81 e0       	ldi	r24, 0x01	; 1
    1ef2:	90 e0       	ldi	r25, 0x00	; 0
    1ef4:	0e 94 01 01 	call	0x202	; 0x202 <LED_On>
    1ef8:	69 e0       	ldi	r22, 0x09	; 9
    1efa:	70 e0       	ldi	r23, 0x00	; 0
    1efc:	81 e0       	ldi	r24, 0x01	; 1
    1efe:	90 e0       	ldi	r25, 0x00	; 0
    1f00:	0e 94 01 01 	call	0x202	; 0x202 <LED_On>
    1f04:	65 e0       	ldi	r22, 0x05	; 5
    1f06:	70 e0       	ldi	r23, 0x00	; 0
    1f08:	81 e0       	ldi	r24, 0x01	; 1
    1f0a:	90 e0       	ldi	r25, 0x00	; 0
    1f0c:	0e 94 01 01 	call	0x202	; 0x202 <LED_On>
    1f10:	66 e0       	ldi	r22, 0x06	; 6
    1f12:	70 e0       	ldi	r23, 0x00	; 0
    1f14:	81 e0       	ldi	r24, 0x01	; 1
    1f16:	90 e0       	ldi	r25, 0x00	; 0
    1f18:	0e 94 01 01 	call	0x202	; 0x202 <LED_On>
			LED_On(0,2);	LED_On(0,9);	LED_On(0,5);	LED_On(0,6);
    1f1c:	62 e0       	ldi	r22, 0x02	; 2
    1f1e:	70 e0       	ldi	r23, 0x00	; 0
    1f20:	80 e0       	ldi	r24, 0x00	; 0
    1f22:	90 e0       	ldi	r25, 0x00	; 0
    1f24:	0e 94 01 01 	call	0x202	; 0x202 <LED_On>
    1f28:	69 e0       	ldi	r22, 0x09	; 9
    1f2a:	70 e0       	ldi	r23, 0x00	; 0
    1f2c:	80 e0       	ldi	r24, 0x00	; 0
    1f2e:	90 e0       	ldi	r25, 0x00	; 0
    1f30:	0e 94 01 01 	call	0x202	; 0x202 <LED_On>
    1f34:	65 e0       	ldi	r22, 0x05	; 5
    1f36:	70 e0       	ldi	r23, 0x00	; 0
    1f38:	80 e0       	ldi	r24, 0x00	; 0
    1f3a:	90 e0       	ldi	r25, 0x00	; 0
    1f3c:	0e 94 01 01 	call	0x202	; 0x202 <LED_On>
    1f40:	66 e0       	ldi	r22, 0x06	; 6
    1f42:	70 e0       	ldi	r23, 0x00	; 0
    1f44:	80 e0       	ldi	r24, 0x00	; 0
    1f46:	90 e0       	ldi	r25, 0x00	; 0
    1f48:	0e 94 01 01 	call	0x202	; 0x202 <LED_On>
		{
			LED_On(2,3);	LED_On(2,6);	LED_On(2,9);
			LED_On(1,3);	LED_On(1,6);	LED_On(1,9);
			LED_On(0,3);	LED_On(0,6);	LED_On(0,9);
		}
		for (cnt = 0;cnt<del/3;cnt++)
    1f4c:	80 91 04 02 	lds	r24, 0x0204
    1f50:	90 91 05 02 	lds	r25, 0x0205
    1f54:	01 96       	adiw	r24, 0x01	; 1
    1f56:	90 93 05 02 	sts	0x0205, r25
    1f5a:	80 93 04 02 	sts	0x0204, r24
    1f5e:	05 97       	sbiw	r24, 0x05	; 5
    1f60:	0c f4       	brge	.+2      	; 0x1f64 <Plane_flip+0x8ac>
    1f62:	ac cf       	rjmp	.-168    	; 0x1ebc <Plane_flip+0x804>
		{
			LED_On(2,2);	LED_On(2,9);	LED_On(2,5);	LED_On(2,6);
			LED_On(1,2);	LED_On(1,9);	LED_On(1,5);	LED_On(1,6);
			LED_On(0,2);	LED_On(0,9);	LED_On(0,5);	LED_On(0,6);
		}
		for (cnt = 0;cnt<del/3;cnt++)
    1f64:	10 92 05 02 	sts	0x0205, r1
    1f68:	10 92 04 02 	sts	0x0204, r1
		{
			LED_On(2,1);	LED_On(2,5);	LED_On(2,9);
    1f6c:	61 e0       	ldi	r22, 0x01	; 1
    1f6e:	70 e0       	ldi	r23, 0x00	; 0
    1f70:	82 e0       	ldi	r24, 0x02	; 2
    1f72:	90 e0       	ldi	r25, 0x00	; 0
    1f74:	0e 94 01 01 	call	0x202	; 0x202 <LED_On>
    1f78:	65 e0       	ldi	r22, 0x05	; 5
    1f7a:	70 e0       	ldi	r23, 0x00	; 0
    1f7c:	82 e0       	ldi	r24, 0x02	; 2
    1f7e:	90 e0       	ldi	r25, 0x00	; 0
    1f80:	0e 94 01 01 	call	0x202	; 0x202 <LED_On>
    1f84:	69 e0       	ldi	r22, 0x09	; 9
    1f86:	70 e0       	ldi	r23, 0x00	; 0
    1f88:	82 e0       	ldi	r24, 0x02	; 2
    1f8a:	90 e0       	ldi	r25, 0x00	; 0
    1f8c:	0e 94 01 01 	call	0x202	; 0x202 <LED_On>
			LED_On(1,1);	LED_On(1,5);	LED_On(1,9);
    1f90:	61 e0       	ldi	r22, 0x01	; 1
    1f92:	70 e0       	ldi	r23, 0x00	; 0
    1f94:	81 e0       	ldi	r24, 0x01	; 1
    1f96:	90 e0       	ldi	r25, 0x00	; 0
    1f98:	0e 94 01 01 	call	0x202	; 0x202 <LED_On>
    1f9c:	65 e0       	ldi	r22, 0x05	; 5
    1f9e:	70 e0       	ldi	r23, 0x00	; 0
    1fa0:	81 e0       	ldi	r24, 0x01	; 1
    1fa2:	90 e0       	ldi	r25, 0x00	; 0
    1fa4:	0e 94 01 01 	call	0x202	; 0x202 <LED_On>
    1fa8:	69 e0       	ldi	r22, 0x09	; 9
    1faa:	70 e0       	ldi	r23, 0x00	; 0
    1fac:	81 e0       	ldi	r24, 0x01	; 1
    1fae:	90 e0       	ldi	r25, 0x00	; 0
    1fb0:	0e 94 01 01 	call	0x202	; 0x202 <LED_On>
			LED_On(0,1);	LED_On(0,5);	LED_On(0,9);
    1fb4:	61 e0       	ldi	r22, 0x01	; 1
    1fb6:	70 e0       	ldi	r23, 0x00	; 0
    1fb8:	80 e0       	ldi	r24, 0x00	; 0
    1fba:	90 e0       	ldi	r25, 0x00	; 0
    1fbc:	0e 94 01 01 	call	0x202	; 0x202 <LED_On>
    1fc0:	65 e0       	ldi	r22, 0x05	; 5
    1fc2:	70 e0       	ldi	r23, 0x00	; 0
    1fc4:	80 e0       	ldi	r24, 0x00	; 0
    1fc6:	90 e0       	ldi	r25, 0x00	; 0
    1fc8:	0e 94 01 01 	call	0x202	; 0x202 <LED_On>
    1fcc:	69 e0       	ldi	r22, 0x09	; 9
    1fce:	70 e0       	ldi	r23, 0x00	; 0
    1fd0:	80 e0       	ldi	r24, 0x00	; 0
    1fd2:	90 e0       	ldi	r25, 0x00	; 0
    1fd4:	0e 94 01 01 	call	0x202	; 0x202 <LED_On>
		{
			LED_On(2,2);	LED_On(2,9);	LED_On(2,5);	LED_On(2,6);
			LED_On(1,2);	LED_On(1,9);	LED_On(1,5);	LED_On(1,6);
			LED_On(0,2);	LED_On(0,9);	LED_On(0,5);	LED_On(0,6);
		}
		for (cnt = 0;cnt<del/3;cnt++)
    1fd8:	80 91 04 02 	lds	r24, 0x0204
    1fdc:	90 91 05 02 	lds	r25, 0x0205
    1fe0:	01 96       	adiw	r24, 0x01	; 1
    1fe2:	90 93 05 02 	sts	0x0205, r25
    1fe6:	80 93 04 02 	sts	0x0204, r24
    1fea:	05 97       	sbiw	r24, 0x05	; 5
    1fec:	0c f4       	brge	.+2      	; 0x1ff0 <Plane_flip+0x938>
    1fee:	be cf       	rjmp	.-132    	; 0x1f6c <Plane_flip+0x8b4>
		{
			LED_On(2,1);	LED_On(2,5);	LED_On(2,9);
			LED_On(1,1);	LED_On(1,5);	LED_On(1,9);
			LED_On(0,1);	LED_On(0,5);	LED_On(0,9);
		}
		for (cnt = 0;cnt<del/3;cnt++)
    1ff0:	10 92 05 02 	sts	0x0205, r1
    1ff4:	10 92 04 02 	sts	0x0204, r1
		{
			LED_On(2,9);	LED_On(2,8);	LED_On(2,5);	LED_On(2,4);
    1ff8:	69 e0       	ldi	r22, 0x09	; 9
    1ffa:	70 e0       	ldi	r23, 0x00	; 0
    1ffc:	82 e0       	ldi	r24, 0x02	; 2
    1ffe:	90 e0       	ldi	r25, 0x00	; 0
    2000:	0e 94 01 01 	call	0x202	; 0x202 <LED_On>
    2004:	68 e0       	ldi	r22, 0x08	; 8
    2006:	70 e0       	ldi	r23, 0x00	; 0
    2008:	82 e0       	ldi	r24, 0x02	; 2
    200a:	90 e0       	ldi	r25, 0x00	; 0
    200c:	0e 94 01 01 	call	0x202	; 0x202 <LED_On>
    2010:	65 e0       	ldi	r22, 0x05	; 5
    2012:	70 e0       	ldi	r23, 0x00	; 0
    2014:	82 e0       	ldi	r24, 0x02	; 2
    2016:	90 e0       	ldi	r25, 0x00	; 0
    2018:	0e 94 01 01 	call	0x202	; 0x202 <LED_On>
    201c:	64 e0       	ldi	r22, 0x04	; 4
    201e:	70 e0       	ldi	r23, 0x00	; 0
    2020:	82 e0       	ldi	r24, 0x02	; 2
    2022:	90 e0       	ldi	r25, 0x00	; 0
    2024:	0e 94 01 01 	call	0x202	; 0x202 <LED_On>
			LED_On(1,9);	LED_On(1,8);	LED_On(1,5);	LED_On(1,4);
    2028:	69 e0       	ldi	r22, 0x09	; 9
    202a:	70 e0       	ldi	r23, 0x00	; 0
    202c:	81 e0       	ldi	r24, 0x01	; 1
    202e:	90 e0       	ldi	r25, 0x00	; 0
    2030:	0e 94 01 01 	call	0x202	; 0x202 <LED_On>
    2034:	68 e0       	ldi	r22, 0x08	; 8
    2036:	70 e0       	ldi	r23, 0x00	; 0
    2038:	81 e0       	ldi	r24, 0x01	; 1
    203a:	90 e0       	ldi	r25, 0x00	; 0
    203c:	0e 94 01 01 	call	0x202	; 0x202 <LED_On>
    2040:	65 e0       	ldi	r22, 0x05	; 5
    2042:	70 e0       	ldi	r23, 0x00	; 0
    2044:	81 e0       	ldi	r24, 0x01	; 1
    2046:	90 e0       	ldi	r25, 0x00	; 0
    2048:	0e 94 01 01 	call	0x202	; 0x202 <LED_On>
    204c:	64 e0       	ldi	r22, 0x04	; 4
    204e:	70 e0       	ldi	r23, 0x00	; 0
    2050:	81 e0       	ldi	r24, 0x01	; 1
    2052:	90 e0       	ldi	r25, 0x00	; 0
    2054:	0e 94 01 01 	call	0x202	; 0x202 <LED_On>
			LED_On(0,9);	LED_On(0,8);	LED_On(0,5);	LED_On(0,4);
    2058:	69 e0       	ldi	r22, 0x09	; 9
    205a:	70 e0       	ldi	r23, 0x00	; 0
    205c:	80 e0       	ldi	r24, 0x00	; 0
    205e:	90 e0       	ldi	r25, 0x00	; 0
    2060:	0e 94 01 01 	call	0x202	; 0x202 <LED_On>
    2064:	68 e0       	ldi	r22, 0x08	; 8
    2066:	70 e0       	ldi	r23, 0x00	; 0
    2068:	80 e0       	ldi	r24, 0x00	; 0
    206a:	90 e0       	ldi	r25, 0x00	; 0
    206c:	0e 94 01 01 	call	0x202	; 0x202 <LED_On>
    2070:	65 e0       	ldi	r22, 0x05	; 5
    2072:	70 e0       	ldi	r23, 0x00	; 0
    2074:	80 e0       	ldi	r24, 0x00	; 0
    2076:	90 e0       	ldi	r25, 0x00	; 0
    2078:	0e 94 01 01 	call	0x202	; 0x202 <LED_On>
    207c:	64 e0       	ldi	r22, 0x04	; 4
    207e:	70 e0       	ldi	r23, 0x00	; 0
    2080:	80 e0       	ldi	r24, 0x00	; 0
    2082:	90 e0       	ldi	r25, 0x00	; 0
    2084:	0e 94 01 01 	call	0x202	; 0x202 <LED_On>
		{
			LED_On(2,1);	LED_On(2,5);	LED_On(2,9);
			LED_On(1,1);	LED_On(1,5);	LED_On(1,9);
			LED_On(0,1);	LED_On(0,5);	LED_On(0,9);
		}
		for (cnt = 0;cnt<del/3;cnt++)
    2088:	80 91 04 02 	lds	r24, 0x0204
    208c:	90 91 05 02 	lds	r25, 0x0205
    2090:	01 96       	adiw	r24, 0x01	; 1
    2092:	90 93 05 02 	sts	0x0205, r25
    2096:	80 93 04 02 	sts	0x0204, r24
    209a:	05 97       	sbiw	r24, 0x05	; 5
    209c:	0c f4       	brge	.+2      	; 0x20a0 <Plane_flip+0x9e8>
    209e:	ac cf       	rjmp	.-168    	; 0x1ff8 <Plane_flip+0x940>
    20a0:	21 97       	sbiw	r28, 0x01	; 1
	}
}

void Plane_flip()
{
	for (int i = 0; i < 3; i++)
    20a2:	20 97       	sbiw	r28, 0x00	; 0
    20a4:	09 f0       	breq	.+2      	; 0x20a8 <Plane_flip+0x9f0>
    20a6:	0c cb       	rjmp	.-2536   	; 0x16c0 <Plane_flip+0x8>
			LED_On(2,9);	LED_On(2,8);	LED_On(2,5);	LED_On(2,4);
			LED_On(1,9);	LED_On(1,8);	LED_On(1,5);	LED_On(1,4);
			LED_On(0,9);	LED_On(0,8);	LED_On(0,5);	LED_On(0,4);
		}
	}
	for (cnt = 0;cnt<del*2;cnt++)
    20a8:	10 92 05 02 	sts	0x0205, r1
    20ac:	10 92 04 02 	sts	0x0204, r1
	{
		LED_On(2,7);	LED_On(2,8);	LED_On(2,9);
    20b0:	67 e0       	ldi	r22, 0x07	; 7
    20b2:	70 e0       	ldi	r23, 0x00	; 0
    20b4:	82 e0       	ldi	r24, 0x02	; 2
    20b6:	90 e0       	ldi	r25, 0x00	; 0
    20b8:	0e 94 01 01 	call	0x202	; 0x202 <LED_On>
    20bc:	68 e0       	ldi	r22, 0x08	; 8
    20be:	70 e0       	ldi	r23, 0x00	; 0
    20c0:	82 e0       	ldi	r24, 0x02	; 2
    20c2:	90 e0       	ldi	r25, 0x00	; 0
    20c4:	0e 94 01 01 	call	0x202	; 0x202 <LED_On>
    20c8:	69 e0       	ldi	r22, 0x09	; 9
    20ca:	70 e0       	ldi	r23, 0x00	; 0
    20cc:	82 e0       	ldi	r24, 0x02	; 2
    20ce:	90 e0       	ldi	r25, 0x00	; 0
    20d0:	0e 94 01 01 	call	0x202	; 0x202 <LED_On>
		LED_On(1,7);	LED_On(1,8);	LED_On(1,9);
    20d4:	67 e0       	ldi	r22, 0x07	; 7
    20d6:	70 e0       	ldi	r23, 0x00	; 0
    20d8:	81 e0       	ldi	r24, 0x01	; 1
    20da:	90 e0       	ldi	r25, 0x00	; 0
    20dc:	0e 94 01 01 	call	0x202	; 0x202 <LED_On>
    20e0:	68 e0       	ldi	r22, 0x08	; 8
    20e2:	70 e0       	ldi	r23, 0x00	; 0
    20e4:	81 e0       	ldi	r24, 0x01	; 1
    20e6:	90 e0       	ldi	r25, 0x00	; 0
    20e8:	0e 94 01 01 	call	0x202	; 0x202 <LED_On>
    20ec:	69 e0       	ldi	r22, 0x09	; 9
    20ee:	70 e0       	ldi	r23, 0x00	; 0
    20f0:	81 e0       	ldi	r24, 0x01	; 1
    20f2:	90 e0       	ldi	r25, 0x00	; 0
    20f4:	0e 94 01 01 	call	0x202	; 0x202 <LED_On>
		LED_On(0,7);	LED_On(0,8);	LED_On(0,9);
    20f8:	67 e0       	ldi	r22, 0x07	; 7
    20fa:	70 e0       	ldi	r23, 0x00	; 0
    20fc:	80 e0       	ldi	r24, 0x00	; 0
    20fe:	90 e0       	ldi	r25, 0x00	; 0
    2100:	0e 94 01 01 	call	0x202	; 0x202 <LED_On>
    2104:	68 e0       	ldi	r22, 0x08	; 8
    2106:	70 e0       	ldi	r23, 0x00	; 0
    2108:	80 e0       	ldi	r24, 0x00	; 0
    210a:	90 e0       	ldi	r25, 0x00	; 0
    210c:	0e 94 01 01 	call	0x202	; 0x202 <LED_On>
    2110:	69 e0       	ldi	r22, 0x09	; 9
    2112:	70 e0       	ldi	r23, 0x00	; 0
    2114:	80 e0       	ldi	r24, 0x00	; 0
    2116:	90 e0       	ldi	r25, 0x00	; 0
    2118:	0e 94 01 01 	call	0x202	; 0x202 <LED_On>
			LED_On(2,9);	LED_On(2,8);	LED_On(2,5);	LED_On(2,4);
			LED_On(1,9);	LED_On(1,8);	LED_On(1,5);	LED_On(1,4);
			LED_On(0,9);	LED_On(0,8);	LED_On(0,5);	LED_On(0,4);
		}
	}
	for (cnt = 0;cnt<del*2;cnt++)
    211c:	80 91 04 02 	lds	r24, 0x0204
    2120:	90 91 05 02 	lds	r25, 0x0205
    2124:	01 96       	adiw	r24, 0x01	; 1
    2126:	90 93 05 02 	sts	0x0205, r25
    212a:	80 93 04 02 	sts	0x0204, r24
    212e:	4e 97       	sbiw	r24, 0x1e	; 30
    2130:	0c f4       	brge	.+2      	; 0x2134 <Plane_flip+0xa7c>
    2132:	be cf       	rjmp	.-132    	; 0x20b0 <Plane_flip+0x9f8>
	{
		LED_On(2,7);	LED_On(2,8);	LED_On(2,9);
		LED_On(1,7);	LED_On(1,8);	LED_On(1,9);
		LED_On(0,7);	LED_On(0,8);	LED_On(0,9);
	}
}
    2134:	df 91       	pop	r29
    2136:	cf 91       	pop	r28
    2138:	08 95       	ret

0000213a <InOut>:

void InOut()
{
	for (cnt = 0;cnt<InOutdel*20;cnt++)
    213a:	10 92 05 02 	sts	0x0205, r1
    213e:	10 92 04 02 	sts	0x0204, r1
	{
		LED_On(1,5);
    2142:	65 e0       	ldi	r22, 0x05	; 5
    2144:	70 e0       	ldi	r23, 0x00	; 0
    2146:	81 e0       	ldi	r24, 0x01	; 1
    2148:	90 e0       	ldi	r25, 0x00	; 0
    214a:	0e 94 01 01 	call	0x202	; 0x202 <LED_On>
	}
}

void InOut()
{
	for (cnt = 0;cnt<InOutdel*20;cnt++)
    214e:	80 91 04 02 	lds	r24, 0x0204
    2152:	90 91 05 02 	lds	r25, 0x0205
    2156:	01 96       	adiw	r24, 0x01	; 1
    2158:	90 93 05 02 	sts	0x0205, r25
    215c:	80 93 04 02 	sts	0x0204, r24
    2160:	88 3c       	cpi	r24, 0xC8	; 200
    2162:	91 05       	cpc	r25, r1
    2164:	74 f3       	brlt	.-36     	; 0x2142 <InOut+0x8>
	{
		LED_On(1,5);
	}
	for (cnt = 0;cnt<InOutdel;cnt++)
    2166:	10 92 05 02 	sts	0x0205, r1
    216a:	10 92 04 02 	sts	0x0204, r1
	{
		LED_hor_plane_on(0);
    216e:	80 e0       	ldi	r24, 0x00	; 0
    2170:	90 e0       	ldi	r25, 0x00	; 0
    2172:	0e 94 30 01 	call	0x260	; 0x260 <LED_hor_plane_on>
		LED_hor_plane_on(1);
    2176:	81 e0       	ldi	r24, 0x01	; 1
    2178:	90 e0       	ldi	r25, 0x00	; 0
    217a:	0e 94 30 01 	call	0x260	; 0x260 <LED_hor_plane_on>
		LED_hor_plane_on(2);
    217e:	82 e0       	ldi	r24, 0x02	; 2
    2180:	90 e0       	ldi	r25, 0x00	; 0
    2182:	0e 94 30 01 	call	0x260	; 0x260 <LED_hor_plane_on>
{
	for (cnt = 0;cnt<InOutdel*20;cnt++)
	{
		LED_On(1,5);
	}
	for (cnt = 0;cnt<InOutdel;cnt++)
    2186:	80 91 04 02 	lds	r24, 0x0204
    218a:	90 91 05 02 	lds	r25, 0x0205
    218e:	01 96       	adiw	r24, 0x01	; 1
    2190:	90 93 05 02 	sts	0x0205, r25
    2194:	80 93 04 02 	sts	0x0204, r24
    2198:	0a 97       	sbiw	r24, 0x0a	; 10
    219a:	4c f3       	brlt	.-46     	; 0x216e <InOut+0x34>
	{
		LED_hor_plane_on(0);
		LED_hor_plane_on(1);
		LED_hor_plane_on(2);
	}
}
    219c:	08 95       	ret

0000219e <main>:
#include "Functions.h"
#include "Patterns.h"
int main(void)
{
	int r = 0;
	Cube_init();
    219e:	0e 94 ad 00 	call	0x15a	; 0x15a <Cube_init>
	Test_all_LEDs();
    21a2:	0e 94 44 01 	call	0x288	; 0x288 <Test_all_LEDs>
	r = 0;	
    21a6:	c0 e0       	ldi	r28, 0x00	; 0
    21a8:	d0 e0       	ldi	r29, 0x00	; 0
			break;
				
		}

		r++;
		if(r>10)	r = 0;
    21aa:	a1 2c       	mov	r10, r1
    21ac:	b1 2c       	mov	r11, r1
	Cube_init();
	Test_all_LEDs();
	r = 0;	
   while(1)
    {
		switch (r)
    21ae:	0f 2e       	mov	r0, r31
    21b0:	fa e0       	ldi	r31, 0x0A	; 10
    21b2:	cf 2e       	mov	r12, r31
    21b4:	f0 2d       	mov	r31, r0
    21b6:	d1 2c       	mov	r13, r1
    21b8:	0f 2e       	mov	r0, r31
    21ba:	f9 e0       	ldi	r31, 0x09	; 9
    21bc:	ef 2e       	mov	r14, r31
    21be:	f0 2d       	mov	r31, r0
    21c0:	f1 2c       	mov	r15, r1
    21c2:	02 c0       	rjmp	.+4      	; 0x21c8 <main+0x2a>
			break;
				
		}

		r++;
		if(r>10)	r = 0;
    21c4:	ca 2d       	mov	r28, r10
    21c6:	db 2d       	mov	r29, r11
	Cube_init();
	Test_all_LEDs();
	r = 0;	
   while(1)
    {
		switch (r)
    21c8:	ca 30       	cpi	r28, 0x0A	; 10
    21ca:	d1 05       	cpc	r29, r1
    21cc:	08 f0       	brcs	.+2      	; 0x21d0 <main+0x32>
    21ce:	4e c0       	rjmp	.+156    	; 0x226c <__stack+0x6d>
    21d0:	fe 01       	movw	r30, r28
    21d2:	ec 57       	subi	r30, 0x7C	; 124
    21d4:	ff 4f       	sbci	r31, 0xFF	; 255
    21d6:	0c 94 52 11 	jmp	0x22a4	; 0x22a4 <__tablejump2__>
    21da:	0e 2d       	mov	r16, r14
    21dc:	1f 2d       	mov	r17, r15
		{
			case 0:
				for (int i = 0; i <9; i ++)
				{
					Rectangle_loop();
    21de:	0e 94 7d 01 	call	0x2fa	; 0x2fa <Rectangle_loop>
    21e2:	01 50       	subi	r16, 0x01	; 1
    21e4:	11 09       	sbc	r17, r1
   while(1)
    {
		switch (r)
		{
			case 0:
				for (int i = 0; i <9; i ++)
    21e6:	01 15       	cp	r16, r1
    21e8:	11 05       	cpc	r17, r1
    21ea:	c9 f7       	brne	.-14     	; 0x21de <main+0x40>
    21ec:	45 c0       	rjmp	.+138    	; 0x2278 <__stack+0x79>
				{
					Rectangle_loop();
				}
			break;
			case 1:	Fall();
    21ee:	0e 94 3c 02 	call	0x478	; 0x478 <Fall>
			break;
    21f2:	42 c0       	rjmp	.+132    	; 0x2278 <__stack+0x79>
			case 2:	PlaneShift();
    21f4:	0e 94 a8 06 	call	0xd50	; 0xd50 <PlaneShift>
			break;
    21f8:	3f c0       	rjmp	.+126    	; 0x2278 <__stack+0x79>
			case 3:	Glow_Random();
    21fa:	0e 94 b7 07 	call	0xf6e	; 0xf6e <Glow_Random>
			break;
    21fe:	3c c0       	rjmp	.+120    	; 0x2278 <__stack+0x79>
			case 4:
				for (int i= 0; i < 5; i++)
				{
					FillCube();
    2200:	0e 94 06 08 	call	0x100c	; 0x100c <FillCube>
    2204:	0e 94 06 08 	call	0x100c	; 0x100c <FillCube>
    2208:	0e 94 06 08 	call	0x100c	; 0x100c <FillCube>
    220c:	0e 94 06 08 	call	0x100c	; 0x100c <FillCube>
    2210:	0e 94 06 08 	call	0x100c	; 0x100c <FillCube>
    2214:	31 c0       	rjmp	.+98     	; 0x2278 <__stack+0x79>
	Cube_init();
	Test_all_LEDs();
	r = 0;	
   while(1)
    {
		switch (r)
    2216:	0c 2d       	mov	r16, r12
    2218:	1d 2d       	mov	r17, r13
				}
			break;
			case 5:
				for (int i= 0; i < 10; i++)
				{
					OneByOneLEDOn();
    221a:	0e 94 65 09 	call	0x12ca	; 0x12ca <OneByOneLEDOn>
    221e:	01 50       	subi	r16, 0x01	; 1
    2220:	11 09       	sbc	r17, r1
				{
					FillCube();
				}
			break;
			case 5:
				for (int i= 0; i < 10; i++)
    2222:	01 15       	cp	r16, r1
    2224:	11 05       	cpc	r17, r1
    2226:	c9 f7       	brne	.-14     	; 0x221a <__stack+0x1b>
    2228:	27 c0       	rjmp	.+78     	; 0x2278 <__stack+0x79>
	Cube_init();
	Test_all_LEDs();
	r = 0;	
   while(1)
    {
		switch (r)
    222a:	0e 2d       	mov	r16, r14
    222c:	1f 2d       	mov	r17, r15
				}
			break;
			case 6:
				for (int i= 0; i < 9; i++)
				{
					RandomFall();
    222e:	0e 94 ee 09 	call	0x13dc	; 0x13dc <RandomFall>
    2232:	01 50       	subi	r16, 0x01	; 1
    2234:	11 09       	sbc	r17, r1
				{
					OneByOneLEDOn();
				}
			break;
			case 6:
				for (int i= 0; i < 9; i++)
    2236:	01 15       	cp	r16, r1
    2238:	11 05       	cpc	r17, r1
    223a:	c9 f7       	brne	.-14     	; 0x222e <__stack+0x2f>
    223c:	1d c0       	rjmp	.+58     	; 0x2278 <__stack+0x79>
	Cube_init();
	Test_all_LEDs();
	r = 0;	
   while(1)
    {
		switch (r)
    223e:	0e 2d       	mov	r16, r14
    2240:	1f 2d       	mov	r17, r15
				}
			break;
			case 7:
				for (int i = 0; i < 9;i++)
				{
					Vret_Rect_loop();
    2242:	0e 94 43 0a 	call	0x1486	; 0x1486 <Vret_Rect_loop>
    2246:	01 50       	subi	r16, 0x01	; 1
    2248:	11 09       	sbc	r17, r1
				{
					RandomFall();
				}
			break;
			case 7:
				for (int i = 0; i < 9;i++)
    224a:	01 15       	cp	r16, r1
    224c:	11 05       	cpc	r17, r1
    224e:	c9 f7       	brne	.-14     	; 0x2242 <__stack+0x43>
    2250:	13 c0       	rjmp	.+38     	; 0x2278 <__stack+0x79>
				{
					Vret_Rect_loop();
				}
			break;
			case 8:	Plane_flip();
    2252:	0e 94 5c 0b 	call	0x16b8	; 0x16b8 <Plane_flip>
			break;
    2256:	10 c0       	rjmp	.+32     	; 0x2278 <__stack+0x79>
	Cube_init();
	Test_all_LEDs();
	r = 0;	
   while(1)
    {
		switch (r)
    2258:	0c 2d       	mov	r16, r12
    225a:	1d 2d       	mov	r17, r13
			case 8:	Plane_flip();
			break;
			case 9:
				for (int i = 0; i < 10;i++)
				{
					InOut();
    225c:	0e 94 9d 10 	call	0x213a	; 0x213a <InOut>
    2260:	01 50       	subi	r16, 0x01	; 1
    2262:	11 09       	sbc	r17, r1
				}
			break;
			case 8:	Plane_flip();
			break;
			case 9:
				for (int i = 0; i < 10;i++)
    2264:	01 15       	cp	r16, r1
    2266:	11 05       	cpc	r17, r1
    2268:	c9 f7       	brne	.-14     	; 0x225c <__stack+0x5d>
    226a:	06 c0       	rjmp	.+12     	; 0x2278 <__stack+0x79>
				}
			break;
				
		}

		r++;
    226c:	21 96       	adiw	r28, 0x01	; 1
		if(r>10)	r = 0;
    226e:	cb 30       	cpi	r28, 0x0B	; 11
    2270:	d1 05       	cpc	r29, r1
    2272:	0c f0       	brlt	.+2      	; 0x2276 <__stack+0x77>
    2274:	a7 cf       	rjmp	.-178    	; 0x21c4 <main+0x26>
    2276:	a8 cf       	rjmp	.-176    	; 0x21c8 <main+0x2a>
				}
			break;
				
		}

		r++;
    2278:	21 96       	adiw	r28, 0x01	; 1
    227a:	a6 cf       	rjmp	.-180    	; 0x21c8 <main+0x2a>

0000227c <__divmodhi4>:
    227c:	97 fb       	bst	r25, 7
    227e:	07 2e       	mov	r0, r23
    2280:	16 f4       	brtc	.+4      	; 0x2286 <__divmodhi4+0xa>
    2282:	00 94       	com	r0
    2284:	07 d0       	rcall	.+14     	; 0x2294 <__divmodhi4_neg1>
    2286:	77 fd       	sbrc	r23, 7
    2288:	09 d0       	rcall	.+18     	; 0x229c <__divmodhi4_neg2>
    228a:	0e 94 58 11 	call	0x22b0	; 0x22b0 <__udivmodhi4>
    228e:	07 fc       	sbrc	r0, 7
    2290:	05 d0       	rcall	.+10     	; 0x229c <__divmodhi4_neg2>
    2292:	3e f4       	brtc	.+14     	; 0x22a2 <__divmodhi4_exit>

00002294 <__divmodhi4_neg1>:
    2294:	90 95       	com	r25
    2296:	81 95       	neg	r24
    2298:	9f 4f       	sbci	r25, 0xFF	; 255
    229a:	08 95       	ret

0000229c <__divmodhi4_neg2>:
    229c:	70 95       	com	r23
    229e:	61 95       	neg	r22
    22a0:	7f 4f       	sbci	r23, 0xFF	; 255

000022a2 <__divmodhi4_exit>:
    22a2:	08 95       	ret

000022a4 <__tablejump2__>:
    22a4:	ee 0f       	add	r30, r30
    22a6:	ff 1f       	adc	r31, r31

000022a8 <__tablejump__>:
    22a8:	05 90       	lpm	r0, Z+
    22aa:	f4 91       	lpm	r31, Z
    22ac:	e0 2d       	mov	r30, r0
    22ae:	09 94       	ijmp

000022b0 <__udivmodhi4>:
    22b0:	aa 1b       	sub	r26, r26
    22b2:	bb 1b       	sub	r27, r27
    22b4:	51 e1       	ldi	r21, 0x11	; 17
    22b6:	07 c0       	rjmp	.+14     	; 0x22c6 <__udivmodhi4_ep>

000022b8 <__udivmodhi4_loop>:
    22b8:	aa 1f       	adc	r26, r26
    22ba:	bb 1f       	adc	r27, r27
    22bc:	a6 17       	cp	r26, r22
    22be:	b7 07       	cpc	r27, r23
    22c0:	10 f0       	brcs	.+4      	; 0x22c6 <__udivmodhi4_ep>
    22c2:	a6 1b       	sub	r26, r22
    22c4:	b7 0b       	sbc	r27, r23

000022c6 <__udivmodhi4_ep>:
    22c6:	88 1f       	adc	r24, r24
    22c8:	99 1f       	adc	r25, r25
    22ca:	5a 95       	dec	r21
    22cc:	a9 f7       	brne	.-22     	; 0x22b8 <__udivmodhi4_loop>
    22ce:	80 95       	com	r24
    22d0:	90 95       	com	r25
    22d2:	bc 01       	movw	r22, r24
    22d4:	cd 01       	movw	r24, r26
    22d6:	08 95       	ret

000022d8 <do_rand>:
    22d8:	8f 92       	push	r8
    22da:	9f 92       	push	r9
    22dc:	af 92       	push	r10
    22de:	bf 92       	push	r11
    22e0:	cf 92       	push	r12
    22e2:	df 92       	push	r13
    22e4:	ef 92       	push	r14
    22e6:	ff 92       	push	r15
    22e8:	cf 93       	push	r28
    22ea:	df 93       	push	r29
    22ec:	ec 01       	movw	r28, r24
    22ee:	68 81       	ld	r22, Y
    22f0:	79 81       	ldd	r23, Y+1	; 0x01
    22f2:	8a 81       	ldd	r24, Y+2	; 0x02
    22f4:	9b 81       	ldd	r25, Y+3	; 0x03
    22f6:	61 15       	cp	r22, r1
    22f8:	71 05       	cpc	r23, r1
    22fa:	81 05       	cpc	r24, r1
    22fc:	91 05       	cpc	r25, r1
    22fe:	21 f4       	brne	.+8      	; 0x2308 <do_rand+0x30>
    2300:	64 e2       	ldi	r22, 0x24	; 36
    2302:	79 ed       	ldi	r23, 0xD9	; 217
    2304:	8b e5       	ldi	r24, 0x5B	; 91
    2306:	97 e0       	ldi	r25, 0x07	; 7
    2308:	2d e1       	ldi	r18, 0x1D	; 29
    230a:	33 ef       	ldi	r19, 0xF3	; 243
    230c:	41 e0       	ldi	r20, 0x01	; 1
    230e:	50 e0       	ldi	r21, 0x00	; 0
    2310:	0e 94 ca 11 	call	0x2394	; 0x2394 <__divmodsi4>
    2314:	49 01       	movw	r8, r18
    2316:	5a 01       	movw	r10, r20
    2318:	9b 01       	movw	r18, r22
    231a:	ac 01       	movw	r20, r24
    231c:	a7 ea       	ldi	r26, 0xA7	; 167
    231e:	b1 e4       	ldi	r27, 0x41	; 65
    2320:	0e 94 e9 11 	call	0x23d2	; 0x23d2 <__muluhisi3>
    2324:	6b 01       	movw	r12, r22
    2326:	7c 01       	movw	r14, r24
    2328:	ac ee       	ldi	r26, 0xEC	; 236
    232a:	b4 ef       	ldi	r27, 0xF4	; 244
    232c:	a5 01       	movw	r20, r10
    232e:	94 01       	movw	r18, r8
    2330:	0e 94 f7 11 	call	0x23ee	; 0x23ee <__mulohisi3>
    2334:	c6 0e       	add	r12, r22
    2336:	d7 1e       	adc	r13, r23
    2338:	e8 1e       	adc	r14, r24
    233a:	f9 1e       	adc	r15, r25
    233c:	f7 fe       	sbrs	r15, 7
    233e:	06 c0       	rjmp	.+12     	; 0x234c <do_rand+0x74>
    2340:	81 e0       	ldi	r24, 0x01	; 1
    2342:	c8 1a       	sub	r12, r24
    2344:	d1 08       	sbc	r13, r1
    2346:	e1 08       	sbc	r14, r1
    2348:	80 e8       	ldi	r24, 0x80	; 128
    234a:	f8 0a       	sbc	r15, r24
    234c:	c8 82       	st	Y, r12
    234e:	d9 82       	std	Y+1, r13	; 0x01
    2350:	ea 82       	std	Y+2, r14	; 0x02
    2352:	fb 82       	std	Y+3, r15	; 0x03
    2354:	c6 01       	movw	r24, r12
    2356:	9f 77       	andi	r25, 0x7F	; 127
    2358:	df 91       	pop	r29
    235a:	cf 91       	pop	r28
    235c:	ff 90       	pop	r15
    235e:	ef 90       	pop	r14
    2360:	df 90       	pop	r13
    2362:	cf 90       	pop	r12
    2364:	bf 90       	pop	r11
    2366:	af 90       	pop	r10
    2368:	9f 90       	pop	r9
    236a:	8f 90       	pop	r8
    236c:	08 95       	ret

0000236e <rand_r>:
    236e:	0e 94 6c 11 	call	0x22d8	; 0x22d8 <do_rand>
    2372:	08 95       	ret

00002374 <rand>:
    2374:	80 e0       	ldi	r24, 0x00	; 0
    2376:	92 e0       	ldi	r25, 0x02	; 2
    2378:	0e 94 6c 11 	call	0x22d8	; 0x22d8 <do_rand>
    237c:	08 95       	ret

0000237e <srand>:
    237e:	a0 e0       	ldi	r26, 0x00	; 0
    2380:	b0 e0       	ldi	r27, 0x00	; 0
    2382:	80 93 00 02 	sts	0x0200, r24
    2386:	90 93 01 02 	sts	0x0201, r25
    238a:	a0 93 02 02 	sts	0x0202, r26
    238e:	b0 93 03 02 	sts	0x0203, r27
    2392:	08 95       	ret

00002394 <__divmodsi4>:
    2394:	05 2e       	mov	r0, r21
    2396:	97 fb       	bst	r25, 7
    2398:	1e f4       	brtc	.+6      	; 0x23a0 <__divmodsi4+0xc>
    239a:	00 94       	com	r0
    239c:	0e 94 e1 11 	call	0x23c2	; 0x23c2 <__negsi2>
    23a0:	57 fd       	sbrc	r21, 7
    23a2:	07 d0       	rcall	.+14     	; 0x23b2 <__divmodsi4_neg2>
    23a4:	0e 94 fc 11 	call	0x23f8	; 0x23f8 <__udivmodsi4>
    23a8:	07 fc       	sbrc	r0, 7
    23aa:	03 d0       	rcall	.+6      	; 0x23b2 <__divmodsi4_neg2>
    23ac:	4e f4       	brtc	.+18     	; 0x23c0 <__divmodsi4_exit>
    23ae:	0c 94 e1 11 	jmp	0x23c2	; 0x23c2 <__negsi2>

000023b2 <__divmodsi4_neg2>:
    23b2:	50 95       	com	r21
    23b4:	40 95       	com	r20
    23b6:	30 95       	com	r19
    23b8:	21 95       	neg	r18
    23ba:	3f 4f       	sbci	r19, 0xFF	; 255
    23bc:	4f 4f       	sbci	r20, 0xFF	; 255
    23be:	5f 4f       	sbci	r21, 0xFF	; 255

000023c0 <__divmodsi4_exit>:
    23c0:	08 95       	ret

000023c2 <__negsi2>:
    23c2:	90 95       	com	r25
    23c4:	80 95       	com	r24
    23c6:	70 95       	com	r23
    23c8:	61 95       	neg	r22
    23ca:	7f 4f       	sbci	r23, 0xFF	; 255
    23cc:	8f 4f       	sbci	r24, 0xFF	; 255
    23ce:	9f 4f       	sbci	r25, 0xFF	; 255
    23d0:	08 95       	ret

000023d2 <__muluhisi3>:
    23d2:	0e 94 1e 12 	call	0x243c	; 0x243c <__umulhisi3>
    23d6:	a5 9f       	mul	r26, r21
    23d8:	90 0d       	add	r25, r0
    23da:	b4 9f       	mul	r27, r20
    23dc:	90 0d       	add	r25, r0
    23de:	a4 9f       	mul	r26, r20
    23e0:	80 0d       	add	r24, r0
    23e2:	91 1d       	adc	r25, r1
    23e4:	11 24       	eor	r1, r1
    23e6:	08 95       	ret

000023e8 <__mulshisi3>:
    23e8:	b7 ff       	sbrs	r27, 7
    23ea:	0c 94 e9 11 	jmp	0x23d2	; 0x23d2 <__muluhisi3>

000023ee <__mulohisi3>:
    23ee:	0e 94 e9 11 	call	0x23d2	; 0x23d2 <__muluhisi3>
    23f2:	82 1b       	sub	r24, r18
    23f4:	93 0b       	sbc	r25, r19
    23f6:	08 95       	ret

000023f8 <__udivmodsi4>:
    23f8:	a1 e2       	ldi	r26, 0x21	; 33
    23fa:	1a 2e       	mov	r1, r26
    23fc:	aa 1b       	sub	r26, r26
    23fe:	bb 1b       	sub	r27, r27
    2400:	fd 01       	movw	r30, r26
    2402:	0d c0       	rjmp	.+26     	; 0x241e <__udivmodsi4_ep>

00002404 <__udivmodsi4_loop>:
    2404:	aa 1f       	adc	r26, r26
    2406:	bb 1f       	adc	r27, r27
    2408:	ee 1f       	adc	r30, r30
    240a:	ff 1f       	adc	r31, r31
    240c:	a2 17       	cp	r26, r18
    240e:	b3 07       	cpc	r27, r19
    2410:	e4 07       	cpc	r30, r20
    2412:	f5 07       	cpc	r31, r21
    2414:	20 f0       	brcs	.+8      	; 0x241e <__udivmodsi4_ep>
    2416:	a2 1b       	sub	r26, r18
    2418:	b3 0b       	sbc	r27, r19
    241a:	e4 0b       	sbc	r30, r20
    241c:	f5 0b       	sbc	r31, r21

0000241e <__udivmodsi4_ep>:
    241e:	66 1f       	adc	r22, r22
    2420:	77 1f       	adc	r23, r23
    2422:	88 1f       	adc	r24, r24
    2424:	99 1f       	adc	r25, r25
    2426:	1a 94       	dec	r1
    2428:	69 f7       	brne	.-38     	; 0x2404 <__udivmodsi4_loop>
    242a:	60 95       	com	r22
    242c:	70 95       	com	r23
    242e:	80 95       	com	r24
    2430:	90 95       	com	r25
    2432:	9b 01       	movw	r18, r22
    2434:	ac 01       	movw	r20, r24
    2436:	bd 01       	movw	r22, r26
    2438:	cf 01       	movw	r24, r30
    243a:	08 95       	ret

0000243c <__umulhisi3>:
    243c:	a2 9f       	mul	r26, r18
    243e:	b0 01       	movw	r22, r0
    2440:	b3 9f       	mul	r27, r19
    2442:	c0 01       	movw	r24, r0
    2444:	a3 9f       	mul	r26, r19
    2446:	70 0d       	add	r23, r0
    2448:	81 1d       	adc	r24, r1
    244a:	11 24       	eor	r1, r1
    244c:	91 1d       	adc	r25, r1
    244e:	b2 9f       	mul	r27, r18
    2450:	70 0d       	add	r23, r0
    2452:	81 1d       	adc	r24, r1
    2454:	11 24       	eor	r1, r1
    2456:	91 1d       	adc	r25, r1
    2458:	08 95       	ret

0000245a <_exit>:
    245a:	f8 94       	cli

0000245c <__stop_program>:
    245c:	ff cf       	rjmp	.-2      	; 0x245c <__stop_program>
