   1               		.file	"main.c"
   2               		.arch atmega640
   3               	__SREG__ = 0x3f
   4               	__SP_H__ = 0x3e
   5               	__SP_L__ = 0x3d
   6               	__tmp_reg__ = 0
   7               	__zero_reg__ = 1
   8               		.global __do_copy_data
   9               		.global __do_clear_bss
  17               	.Ltext0:
  18               	.global	one
  19               	.global	one
  20               		.section .bss
  23               	one:
  24 0000 00        		.skip 1,0
  25               	.global	ten
  26               	.global	ten
  29               	ten:
  30 0001 00        		.skip 1,0
  31               	.global	hundred
  32               	.global	hundred
  35               	hundred:
  36 0002 00        		.skip 1,0
  37               	.global	thousand
  38               	.global	thousand
  41               	thousand:
  42 0003 00        		.skip 1,0
  43               	.global	tenthousand
  44               	.global	tenthousand
  47               	tenthousand:
  48 0004 00        		.skip 1,0
  49               	.global	ch
  50               		.data
  53               	ch:
  54 0000 30        		.byte	48
  55 0001 31        		.byte	49
  56 0002 32        		.byte	50
  57 0003 33        		.byte	51
  58 0004 34        		.byte	52
  59 0005 35        		.byte	53
  60 0006 36        		.byte	54
  61 0007 37        		.byte	55
  62 0008 38        		.byte	56
  63 0009 39        		.byte	57
  64               	.global	save
  65               	.global	save
  66               		.section .bss
  69               	save:
  70 0005 00        		.skip 1,0
  71               	.global	j
  72               	.global	j
  75               	j:
  76 0006 00        		.skip 1,0
  77               	.global	k
  78               	.global	k
  81               	k:
  82 0007 00        		.skip 1,0
  83               		.text
  84               	.global	WaitMs
  86               	WaitMs:
  87               	.LFB17:
  88               	.LM1:
  89               	/* prologue: frame size=0 */
  90               	/* prologue end (size=0) */
  91               	.L13:
  92               	.LM2:
  93 0000 0197      		sbiw r24,1
  94 0002 2FEF      		ldi r18,hi8(-1)
  95 0004 8F3F      		cpi r24,lo8(-1)
  96 0006 9207      		cpc r25,r18
  97 0008 41F0      		breq .L10
  98 000a 2BEC      		ldi r18,lo8(3275)
  99 000c 3CE0      		ldi r19,hi8(3275)
 100               	.L7:
 101               	.LM3:
 102               	/* #APP */
 103 000e 0000      		nop
 104               	.LM4:
 105               	/* #NOAPP */
 106 0010 2150      		subi r18,lo8(-(-1))
 107 0012 3040      		sbci r19,hi8(-(-1))
 108 0014 37FF      		sbrs r19,7
 109 0016 FBCF      		rjmp .L7
 110 0018 F3CF      		rjmp .L13
 111               	.L10:
 112 001a 0895      		ret
 113               	/* epilogue: frame size=0 */
 114               	/* epilogue: noreturn */
 115               	/* epilogue end (size=0) */
 116               	/* function WaitMs size 15 (15) */
 117               	.LFE17:
 119               	.global	toggleE
 121               	toggleE:
 122               	.LFB7:
 123               	.LM5:
 124               	/* prologue: frame size=0 */
 125               	/* prologue end (size=0) */
 126               	.LM6:
 127 001c 709A      		sbi 46-0x20,0
 128               	.LBB2:
 129               	.LBB3:
 130               	.LM7:
 131 001e 80E0      		ldi r24,lo8(0)
 132               	.LBB4:
 133               	.LBB5:
 134               	.LM8:
 135               	/* #APP */
 136 0020 8A95      		1: dec r24
 137 0022 F1F7      		brne 1b
 138               	/* #NOAPP */
 139               	.LBE5:
 140               	.LBE4:
 141               	.LBE3:
 142               	.LBE2:
 143               	.LM9:
 144 0024 7098      		cbi 46-0x20,0
 145               	/* epilogue: frame size=0 */
 146 0026 0895      		ret
 147               	/* epilogue end (size=1) */
 148               	/* function toggleE size 8 (7) */
 149               	.LFE7:
 151               	.global	lcd_cmd
 153               	lcd_cmd:
 154               	.LFB9:
 155               	.LM10:
 156               	/* prologue: frame size=0 */
 157 0028 FF92      		push r15
 158 002a 0F93      		push r16
 159 002c 1F93      		push r17
 160               	/* prologue end (size=3) */
 161 002e 282F      		mov r18,r24
 162               	.LM11:
 163 0030 A598      		cbi 52-0x20,5
 164               	.LM12:
 165 0032 7098      		cbi 46-0x20,0
 166               	.LM13:
 167 0034 082F      		mov r16,r24
 168 0036 1127      		clr r17
 169 0038 C801      		movw r24,r16
 170 003a 807C      		andi r24,lo8(192)
 171 003c 9070      		andi r25,hi8(192)
 172               	.LM14:
 173 003e 8EB9      		out 46-0x20,r24
 174               	.LM15:
 175 0040 2695      		lsr r18
 176 0042 2695      		lsr r18
 177 0044 2695      		lsr r18
 178 0046 822F      		mov r24,r18
 179 0048 9927      		clr r25
 180 004a 8670      		andi r24,lo8(6)
 181 004c 9070      		andi r25,hi8(6)
 182               	.LM16:
 183 004e 2EB1      		in r18,46-0x20
 184 0050 282B      		or r18,r24
 185 0052 2EB9      		out 46-0x20,r18
 186               	.LBB6:
 187               	.LBB7:
 188               	.LM17:
 189 0054 3DE0      		ldi r19,lo8(13)
 190 0056 F32E      		mov r15,r19
 191               	.LBB8:
 192               	.LBB9:
 193               	.LM18:
 194 0058 8F2D      		mov r24,r15
 195               	/* #APP */
 196 005a 8A95      		1: dec r24
 197 005c F1F7      		brne 1b
 198               	/* #NOAPP */
 199               	.LBE9:
 200               	.LBE8:
 201               	.LBE7:
 202               	.LBE6:
 203               	.LM19:
 204 005e 0E94 0000 		call toggleE
 205               	.LM20:
 206 0062 A59A      		sbi 52-0x20,5
 207               	.LM21:
 208 0064 A598      		cbi 52-0x20,5
 209               	.LM22:
 210 0066 7098      		cbi 46-0x20,0
 211               	.LM23:
 212 0068 C801      		movw r24,r16
 213 006a 24E0      		ldi r18,4
 214 006c 880F      	1:	lsl r24
 215 006e 991F      		rol r25
 216 0070 2A95      		dec r18
 217 0072 E1F7      		brne 1b
 218 0074 807C      		andi r24,lo8(192)
 219 0076 9070      		andi r25,hi8(192)
 220               	.LM24:
 221 0078 8EB9      		out 46-0x20,r24
 222               	.LM25:
 223 007a 000F      		lsl r16
 224 007c 111F      		rol r17
 225 007e 0670      		andi r16,lo8(6)
 226 0080 1070      		andi r17,hi8(6)
 227               	.LM26:
 228 0082 8EB1      		in r24,46-0x20
 229 0084 802B      		or r24,r16
 230 0086 8EB9      		out 46-0x20,r24
 231               	.LBB10:
 232               	.LBB11:
 233               	.LBB12:
 234               	.LBB13:
 235               	.LM27:
 236 0088 8F2D      		mov r24,r15
 237               	/* #APP */
 238 008a 8A95      		1: dec r24
 239 008c F1F7      		brne 1b
 240               	/* #NOAPP */
 241               	.LBE13:
 242               	.LBE12:
 243               	.LBE11:
 244               	.LBE10:
 245               	.LM28:
 246 008e 0E94 0000 		call toggleE
 247               	.LM29:
 248 0092 1EB8      		out 46-0x20,__zero_reg__
 249               	.LM30:
 250 0094 8AE0      		ldi r24,lo8(10)
 251 0096 90E0      		ldi r25,hi8(10)
 252 0098 0E94 0000 		call WaitMs
 253               	/* epilogue: frame size=0 */
 254 009c 1F91      		pop r17
 255 009e 0F91      		pop r16
 256 00a0 FF90      		pop r15
 257 00a2 0895      		ret
 258               	/* epilogue end (size=4) */
 259               	/* function lcd_cmd size 66 (59) */
 260               	.LFE9:
 262               	.global	lcd_init
 264               	lcd_init:
 265               	.LFB6:
 266               	.LM31:
 267               	/* prologue: frame size=0 */
 268 00a4 1F93      		push r17
 269               	/* prologue end (size=1) */
 270               	.LM32:
 271 00a6 87EC      		ldi r24,lo8(-57)
 272 00a8 8DB9      		out 45-0x20,r24
 273               	.LM33:
 274 00aa 10E2      		ldi r17,lo8(32)
 275 00ac 13BB      		out 51-0x20,r17
 276               	.LM34:
 277 00ae 8FE0      		ldi r24,lo8(15)
 278 00b0 90E0      		ldi r25,hi8(15)
 279 00b2 0E94 0000 		call WaitMs
 280               	.LM35:
 281 00b6 A598      		cbi 52-0x20,5
 282               	.LM36:
 283 00b8 7098      		cbi 46-0x20,0
 284               	.LM37:
 285 00ba 1EB8      		out 46-0x20,__zero_reg__
 286               	.LM38:
 287 00bc 812F      		mov r24,r17
 288 00be 0E94 0000 		call lcd_cmd
 289               	.LM39:
 290 00c2 81E0      		ldi r24,lo8(1)
 291 00c4 90E0      		ldi r25,hi8(1)
 292 00c6 0E94 0000 		call WaitMs
 293               	.LM40:
 294 00ca 812F      		mov r24,r17
 295 00cc 0E94 0000 		call lcd_cmd
 296               	.LM41:
 297 00d0 81E0      		ldi r24,lo8(1)
 298 00d2 90E0      		ldi r25,hi8(1)
 299 00d4 0E94 0000 		call WaitMs
 300               	.LM42:
 301 00d8 812F      		mov r24,r17
 302 00da 0E94 0000 		call lcd_cmd
 303               	.LM43:
 304 00de 81E0      		ldi r24,lo8(1)
 305 00e0 90E0      		ldi r25,hi8(1)
 306 00e2 0E94 0000 		call WaitMs
 307               	.LM44:
 308 00e6 88E2      		ldi r24,lo8(40)
 309 00e8 0E94 0000 		call lcd_cmd
 310               	.LM45:
 311 00ec 81E0      		ldi r24,lo8(1)
 312 00ee 90E0      		ldi r25,hi8(1)
 313 00f0 0E94 0000 		call WaitMs
 314               	.LM46:
 315 00f4 8EE0      		ldi r24,lo8(14)
 316 00f6 0E94 0000 		call lcd_cmd
 317               	.LM47:
 318 00fa 81E0      		ldi r24,lo8(1)
 319 00fc 90E0      		ldi r25,hi8(1)
 320 00fe 0E94 0000 		call WaitMs
 321               	.LM48:
 322 0102 81E0      		ldi r24,lo8(1)
 323 0104 0E94 0000 		call lcd_cmd
 324               	.LM49:
 325 0108 81E0      		ldi r24,lo8(1)
 326 010a 90E0      		ldi r25,hi8(1)
 327 010c 0E94 0000 		call WaitMs
 328               	.LM50:
 329 0110 86E0      		ldi r24,lo8(6)
 330 0112 0E94 0000 		call lcd_cmd
 331               	.LM51:
 332 0116 81E0      		ldi r24,lo8(1)
 333 0118 90E0      		ldi r25,hi8(1)
 334 011a 0E94 0000 		call WaitMs
 335               	/* epilogue: frame size=0 */
 336 011e 1F91      		pop r17
 337 0120 0895      		ret
 338               	/* epilogue end (size=2) */
 339               	/* function lcd_init size 63 (60) */
 340               	.LFE6:
 342               	.global	dely_ns
 344               	dely_ns:
 345               	.LFB8:
 346               	.LM52:
 347               	/* prologue: frame size=0 */
 348               	/* prologue end (size=0) */
 349               	.LM53:
 350 0122 1092 0000 		sts j,__zero_reg__
 351 0126 90E0      		ldi r25,lo8(0)
 352 0128 9817      		cp r25,r24
 353 012a 78F4      		brsh .L51
 354 012c 392F      		mov r19,r25
 355               	.L49:
 356 012e 29E0      		ldi r18,lo8(9)
 357               	.L48:
 358               	.LM54:
 359 0130 2150      		subi r18,lo8(-(-1))
 360 0132 27FF      		sbrs r18,7
 361 0134 FDCF      		rjmp .L48
 362 0136 2AE0      		ldi r18,lo8(10)
 363               	.LM55:
 364 0138 932F      		mov r25,r19
 365 013a 9F5F      		subi r25,lo8(-(1))
 366 013c 392F      		mov r19,r25
 367 013e 9817      		cp r25,r24
 368 0140 B0F3      		brlo .L49
 369 0142 9093 0000 		sts j,r25
 370 0146 2093 0000 		sts k,r18
 371               	.L51:
 372 014a 0895      		ret
 373               	/* epilogue: frame size=0 */
 374               	/* epilogue: noreturn */
 375               	/* epilogue end (size=0) */
 376               	/* function dely_ns size 21 (21) */
 377               	.LFE8:
 379               	.global	lcd_char
 381               	lcd_char:
 382               	.LFB11:
 383               	.LM56:
 384               	/* prologue: frame size=0 */
 385 014c FF92      		push r15
 386 014e 0F93      		push r16
 387 0150 1F93      		push r17
 388               	/* prologue end (size=3) */
 389 0152 F82E      		mov r15,r24
 390               	.LM57:
 391 0154 8FE0      		ldi r24,lo8(15)
 392 0156 90E0      		ldi r25,hi8(15)
 393 0158 0E94 0000 		call WaitMs
 394               	.LM58:
 395 015c A59A      		sbi 52-0x20,5
 396               	.LM59:
 397 015e 7098      		cbi 46-0x20,0
 398               	.LM60:
 399 0160 0F2D      		mov r16,r15
 400 0162 1127      		clr r17
 401 0164 C801      		movw r24,r16
 402 0166 807C      		andi r24,lo8(192)
 403 0168 9070      		andi r25,hi8(192)
 404               	.LM61:
 405 016a 8EB9      		out 46-0x20,r24
 406               	.LM62:
 407 016c F694      		lsr r15
 408 016e F694      		lsr r15
 409 0170 F694      		lsr r15
 410 0172 8F2D      		mov r24,r15
 411 0174 9927      		clr r25
 412 0176 8670      		andi r24,lo8(6)
 413 0178 9070      		andi r25,hi8(6)
 414               	.LM63:
 415 017a 2EB1      		in r18,46-0x20
 416 017c 282B      		or r18,r24
 417 017e 2EB9      		out 46-0x20,r18
 418               	.LBB14:
 419               	.LBB15:
 420               	.LM64:
 421 0180 6DE0      		ldi r22,lo8(13)
 422 0182 F62E      		mov r15,r22
 423               	.LBB16:
 424               	.LBB17:
 425               	.LM65:
 426 0184 8F2D      		mov r24,r15
 427               	/* #APP */
 428 0186 8A95      		1: dec r24
 429 0188 F1F7      		brne 1b
 430               	/* #NOAPP */
 431               	.LBE17:
 432               	.LBE16:
 433               	.LBE15:
 434               	.LBE14:
 435               	.LM66:
 436 018a 0E94 0000 		call toggleE
 437               	.LM67:
 438 018e A598      		cbi 52-0x20,5
 439               	.LM68:
 440 0190 7098      		cbi 46-0x20,0
 441               	.LM69:
 442 0192 A59A      		sbi 52-0x20,5
 443               	.LM70:
 444 0194 C801      		movw r24,r16
 445 0196 54E0      		ldi r21,4
 446 0198 880F      	1:	lsl r24
 447 019a 991F      		rol r25
 448 019c 5A95      		dec r21
 449 019e E1F7      		brne 1b
 450 01a0 807C      		andi r24,lo8(192)
 451 01a2 9070      		andi r25,hi8(192)
 452               	.LM71:
 453 01a4 8EB9      		out 46-0x20,r24
 454               	.LM72:
 455 01a6 000F      		lsl r16
 456 01a8 111F      		rol r17
 457 01aa 0670      		andi r16,lo8(6)
 458 01ac 1070      		andi r17,hi8(6)
 459               	.LM73:
 460 01ae 8EB1      		in r24,46-0x20
 461 01b0 802B      		or r24,r16
 462 01b2 8EB9      		out 46-0x20,r24
 463               	.LBB18:
 464               	.LBB19:
 465               	.LBB20:
 466               	.LBB21:
 467               	.LM74:
 468 01b4 8F2D      		mov r24,r15
 469               	/* #APP */
 470 01b6 8A95      		1: dec r24
 471 01b8 F1F7      		brne 1b
 472               	/* #NOAPP */
 473               	.LBE21:
 474               	.LBE20:
 475               	.LBE19:
 476               	.LBE18:
 477               	.LM75:
 478 01ba 0E94 0000 		call toggleE
 479               	/* epilogue: frame size=0 */
 480 01be 1F91      		pop r17
 481 01c0 0F91      		pop r16
 482 01c2 FF90      		pop r15
 483 01c4 0895      		ret
 484               	/* epilogue end (size=4) */
 485               	/* function lcd_char size 65 (58) */
 486               	.LFE11:
 488               	.global	lcd_num1
 490               	lcd_num1:
 491               	.LFB10:
 492               	.LM76:
 493               	/* prologue: frame size=0 */
 494 01c6 0F93      		push r16
 495 01c8 1F93      		push r17
 496               	/* prologue end (size=2) */
 497 01ca 9C01      		movw r18,r24
 498               	.LM77:
 499 01cc E0E1      		ldi r30,lo8(10000)
 500 01ce F7E2      		ldi r31,hi8(10000)
 501 01d0 BF01      		movw r22,r30
 502 01d2 0E94 0000 		call __udivmodhi4
 503 01d6 8B01      		movw r16,r22
 504 01d8 6093 0000 		sts tenthousand,r22
 505               	.LM78:
 506 01dc C901      		movw r24,r18
 507 01de BF01      		movw r22,r30
 508 01e0 0E94 0000 		call __udivmodhi4
 509 01e4 9C01      		movw r18,r24
 510               	.LM79:
 511 01e6 E8EE      		ldi r30,lo8(1000)
 512 01e8 F3E0      		ldi r31,hi8(1000)
 513 01ea BF01      		movw r22,r30
 514 01ec 0E94 0000 		call __udivmodhi4
 515 01f0 6093 0000 		sts thousand,r22
 516               	.LM80:
 517 01f4 C901      		movw r24,r18
 518 01f6 BF01      		movw r22,r30
 519 01f8 0E94 0000 		call __udivmodhi4
 520 01fc 9C01      		movw r18,r24
 521               	.LM81:
 522 01fe E4E6      		ldi r30,lo8(100)
 523 0200 F0E0      		ldi r31,hi8(100)
 524 0202 BF01      		movw r22,r30
 525 0204 0E94 0000 		call __udivmodhi4
 526 0208 6093 0000 		sts hundred,r22
 527               	.LM82:
 528 020c C901      		movw r24,r18
 529 020e BF01      		movw r22,r30
 530 0210 0E94 0000 		call __udivmodhi4
 531 0214 9C01      		movw r18,r24
 532               	.LM83:
 533 0216 EAE0      		ldi r30,lo8(10)
 534 0218 F0E0      		ldi r31,hi8(10)
 535 021a BF01      		movw r22,r30
 536 021c 0E94 0000 		call __udivmodhi4
 537 0220 6093 0000 		sts ten,r22
 538               	.LM84:
 539 0224 C901      		movw r24,r18
 540 0226 BF01      		movw r22,r30
 541 0228 0E94 0000 		call __udivmodhi4
 542 022c 8093 0000 		sts one,r24
 543               	.LM85:
 544 0230 802F      		mov r24,r16
 545 0232 00E0      		ldi r16,lo8(ch)
 546 0234 10E0      		ldi r17,hi8(ch)
 547 0236 F801      		movw r30,r16
 548 0238 E80F      		add r30,r24
 549 023a F11D      		adc r31,__zero_reg__
 550 023c 8081      		ld r24,Z
 551 023e 0E94 0000 		call lcd_char
 552               	.LM86:
 553 0242 8091 0000 		lds r24,thousand
 554 0246 F801      		movw r30,r16
 555 0248 E80F      		add r30,r24
 556 024a F11D      		adc r31,__zero_reg__
 557 024c 8081      		ld r24,Z
 558 024e 0E94 0000 		call lcd_char
 559               	.LM87:
 560 0252 8091 0000 		lds r24,hundred
 561 0256 F801      		movw r30,r16
 562 0258 E80F      		add r30,r24
 563 025a F11D      		adc r31,__zero_reg__
 564 025c 8081      		ld r24,Z
 565 025e 0E94 0000 		call lcd_char
 566               	.LM88:
 567 0262 8091 0000 		lds r24,ten
 568 0266 F801      		movw r30,r16
 569 0268 E80F      		add r30,r24
 570 026a F11D      		adc r31,__zero_reg__
 571 026c 8081      		ld r24,Z
 572 026e 0E94 0000 		call lcd_char
 573               	.LM89:
 574 0272 8091 0000 		lds r24,one
 575 0276 080F      		add r16,r24
 576 0278 111D      		adc r17,__zero_reg__
 577 027a F801      		movw r30,r16
 578 027c 8081      		ld r24,Z
 579 027e 0E94 0000 		call lcd_char
 580               	.LM90:
 581 0282 80E2      		ldi r24,lo8(32)
 582 0284 0E94 0000 		call lcd_char
 583               	/* epilogue: frame size=0 */
 584 0288 1F91      		pop r17
 585 028a 0F91      		pop r16
 586 028c 0895      		ret
 587               	/* epilogue end (size=3) */
 588               	/* function lcd_num1 size 100 (95) */
 589               	.LFE10:
 591               	.global	lcd_string
 593               	lcd_string:
 594               	.LFB12:
 595               	.LM91:
 596               	/* prologue: frame size=0 */
 597 028e FF92      		push r15
 598 0290 0F93      		push r16
 599 0292 1F93      		push r17
 600 0294 CF93      		push r28
 601 0296 DF93      		push r29
 602               	/* prologue end (size=5) */
 603 0298 EC01      		movw r28,r24
 604               	.LM92:
 605 029a FF24      		clr r15
 606               	.LM93:
 607 029c 81E0      		ldi r24,lo8(1)
 608 029e 82B9      		out 34-0x20,r24
 609               	.LM94:
 610 02a0 A59A      		sbi 52-0x20,5
 611               	.LM95:
 612 02a2 7098      		cbi 46-0x20,0
 613               	.LM96:
 614 02a4 8881      		ld r24,Y
 615 02a6 8823      		tst r24
 616 02a8 09F4      		brne .+2
 617 02aa 44C0      		rjmp .L80
 618               	.L78:
 619               	.LM97:
 620 02ac 80E1      		ldi r24,lo8(16)
 621 02ae F816      		cp r15,r24
 622 02b0 19F4      		brne .L77
 623               	.LM98:
 624 02b2 80EC      		ldi r24,lo8(-64)
 625 02b4 0E94 0000 		call lcd_cmd
 626               	.L77:
 627               	.LM99:
 628 02b8 A59A      		sbi 52-0x20,5
 629               	.LM100:
 630 02ba 7098      		cbi 46-0x20,0
 631               	.LM101:
 632 02bc 8E01      		movw r16,r28
 633 02be 0F0D      		add r16,r15
 634 02c0 111D      		adc r17,__zero_reg__
 635 02c2 F801      		movw r30,r16
 636 02c4 8081      		ld r24,Z
 637 02c6 282F      		mov r18,r24
 638 02c8 3327      		clr r19
 639               	.LM102:
 640 02ca C901      		movw r24,r18
 641 02cc 807C      		andi r24,lo8(192)
 642 02ce 9070      		andi r25,hi8(192)
 643               	.LM103:
 644 02d0 8EB9      		out 46-0x20,r24
 645               	.LM104:
 646 02d2 F3E0      		ldi r31,3
 647 02d4 3595      	1:	asr r19
 648 02d6 2795      		ror r18
 649 02d8 FA95      		dec r31
 650 02da E1F7      		brne 1b
 651 02dc 2670      		andi r18,lo8(6)
 652 02de 3070      		andi r19,hi8(6)
 653               	.LM105:
 654 02e0 8EB1      		in r24,46-0x20
 655 02e2 822B      		or r24,r18
 656 02e4 8EB9      		out 46-0x20,r24
 657               	.LM106:
 658 02e6 0E94 0000 		call toggleE
 659               	.LM107:
 660 02ea A598      		cbi 52-0x20,5
 661               	.LM108:
 662 02ec A59A      		sbi 52-0x20,5
 663               	.LM109:
 664 02ee 7098      		cbi 46-0x20,0
 665               	.LM110:
 666 02f0 F801      		movw r30,r16
 667 02f2 8081      		ld r24,Z
 668 02f4 282F      		mov r18,r24
 669 02f6 3327      		clr r19
 670               	.LM111:
 671 02f8 C901      		movw r24,r18
 672 02fa E4E0      		ldi r30,4
 673 02fc 880F      	1:	lsl r24
 674 02fe 991F      		rol r25
 675 0300 EA95      		dec r30
 676 0302 E1F7      		brne 1b
 677 0304 807C      		andi r24,lo8(192)
 678 0306 9070      		andi r25,hi8(192)
 679               	.LM112:
 680 0308 8EB9      		out 46-0x20,r24
 681               	.LM113:
 682 030a 220F      		lsl r18
 683 030c 331F      		rol r19
 684 030e 2670      		andi r18,lo8(6)
 685 0310 3070      		andi r19,hi8(6)
 686               	.LM114:
 687 0312 8EB1      		in r24,46-0x20
 688 0314 822B      		or r24,r18
 689 0316 8EB9      		out 46-0x20,r24
 690               	.LM115:
 691 0318 0E94 0000 		call toggleE
 692               	.LM116:
 693 031c F394      		inc r15
 694               	.LM117:
 695 031e 81E0      		ldi r24,lo8(1)
 696 0320 90E0      		ldi r25,hi8(1)
 697 0322 0E94 0000 		call WaitMs
 698 0326 FE01      		movw r30,r28
 699 0328 EF0D      		add r30,r15
 700 032a F11D      		adc r31,__zero_reg__
 701 032c 8081      		ld r24,Z
 702 032e 8823      		tst r24
 703 0330 09F0      		breq .+2
 704 0332 BCCF      		rjmp .L78
 705               	.L80:
 706               	/* epilogue: frame size=0 */
 707 0334 DF91      		pop r29
 708 0336 CF91      		pop r28
 709 0338 1F91      		pop r17
 710 033a 0F91      		pop r16
 711 033c FF90      		pop r15
 712 033e 0895      		ret
 713               	/* epilogue end (size=6) */
 714               	/* function lcd_string size 89 (78) */
 715               	.LFE12:
 717               	.global	lcd_showvalue
 719               	lcd_showvalue:
 720               	.LFB13:
 721               	.LM118:
 722               	/* prologue: frame size=0 */
 723 0340 0F93      		push r16
 724 0342 1F93      		push r17
 725               	/* prologue end (size=2) */
 726 0344 482F      		mov r20,r24
 727               	.LM119:
 728 0346 24E6      		ldi r18,lo8(100)
 729 0348 622F      		mov r22,r18
 730 034a 0E94 0000 		call __udivmodqi4
 731 034e E82F      		mov r30,r24
 732               	.LM120:
 733 0350 842F      		mov r24,r20
 734 0352 9927      		clr r25
 735 0354 E29F      		mul r30,r18
 736 0356 9001      		movw r18,r0
 737 0358 1124      		clr r1
 738 035a 821B      		sub r24,r18
 739 035c 930B      		sbc r25,r19
 740 035e 6AE0      		ldi r22,lo8(10)
 741 0360 70E0      		ldi r23,hi8(10)
 742 0362 0E94 0000 		call __divmodhi4
 743 0366 062F      		mov r16,r22
 744               	.LM121:
 745 0368 142F      		mov r17,r20
 746 036a 121B      		sub r17,r18
 747 036c 8AE0      		ldi r24,lo8(10)
 748 036e 689F      		mul r22,r24
 749 0370 C001      		movw r24,r0
 750 0372 1124      		clr r1
 751 0374 181B      		sub r17,r24
 752               	.LM122:
 753 0376 8E2F      		mov r24,r30
 754 0378 805D      		subi r24,lo8(-(48))
 755 037a 0E94 0000 		call lcd_char
 756               	.LM123:
 757 037e 802F      		mov r24,r16
 758 0380 805D      		subi r24,lo8(-(48))
 759 0382 0E94 0000 		call lcd_char
 760               	.LM124:
 761 0386 812F      		mov r24,r17
 762 0388 805D      		subi r24,lo8(-(48))
 763 038a 0E94 0000 		call lcd_char
 764               	/* epilogue: frame size=0 */
 765 038e 1F91      		pop r17
 766 0390 0F91      		pop r16
 767 0392 0895      		ret
 768               	/* epilogue end (size=3) */
 769               	/* function lcd_showvalue size 42 (37) */
 770               	.LFE13:
 772               	.global	lcd_gotoxy1
 774               	lcd_gotoxy1:
 775               	.LFB14:
 776               	.LM125:
 777               	/* prologue: frame size=0 */
 778               	/* prologue end (size=0) */
 779               	.LM126:
 780 0394 8058      		subi r24,lo8(-(-128))
 781 0396 0E94 0000 		call lcd_cmd
 782               	/* epilogue: frame size=0 */
 783 039a 0895      		ret
 784               	/* epilogue end (size=1) */
 785               	/* function lcd_gotoxy1 size 4 (3) */
 786               	.LFE14:
 788               	.global	lcd_gotoxy2
 790               	lcd_gotoxy2:
 791               	.LFB15:
 792               	.LM127:
 793               	/* prologue: frame size=0 */
 794               	/* prologue end (size=0) */
 795               	.LM128:
 796 039c 8054      		subi r24,lo8(-(-64))
 797 039e 0E94 0000 		call lcd_cmd
 798               	/* epilogue: frame size=0 */
 799 03a2 0895      		ret
 800               	/* epilogue end (size=1) */
 801               	/* function lcd_gotoxy2 size 4 (3) */
 802               	.LFE15:
 804               	.global	lcd_exit
 806               	lcd_exit:
 807               	.LFB16:
 808               	.LM129:
 809               	/* prologue: frame size=0 */
 810               	/* prologue end (size=0) */
 811               	.LM130:
 812 03a4 8091 0000 		lds r24,save
 813 03a8 82B9      		out 34-0x20,r24
 814               	/* epilogue: frame size=0 */
 815 03aa 0895      		ret
 816               	/* epilogue end (size=1) */
 817               	/* function lcd_exit size 4 (3) */
 818               	.LFE16:
 820               		.data
 821               	.LC0:
 822 000a 5465 616D 		.string	"Team Robocon"
 822      2052 6F62 
 822      6F63 6F6E 
 822      00
 823               	.LC1:
 824 0017 3230 3132 		.string	"2012"
 824      00
 825               		.text
 826               	.global	main
 828               	main:
 829               	.LFB18:
 830               	.LM131:
 831               	/* prologue: frame size=0 */
 832 03ac C0E0      		ldi r28,lo8(__stack - 0)
 833 03ae D0E0      		ldi r29,hi8(__stack - 0)
 834 03b0 DEBF      		out __SP_H__,r29
 835 03b2 CDBF      		out __SP_L__,r28
 836               	/* prologue end (size=4) */
 837               	.LM132:
 838 03b4 0E94 0000 		call lcd_init
 839               	.LM133:
 840 03b8 80E0      		ldi r24,lo8(.LC0)
 841 03ba 90E0      		ldi r25,hi8(.LC0)
 842 03bc 0E94 0000 		call lcd_string
 843               	.LM134:
 844 03c0 80EC      		ldi r24,lo8(-64)
 845 03c2 0E94 0000 		call lcd_cmd
 846               	.LM135:
 847 03c6 80E0      		ldi r24,lo8(.LC1)
 848 03c8 90E0      		ldi r25,hi8(.LC1)
 849 03ca 0E94 0000 		call lcd_string
 850               	.L86:
 851               	.LM136:
 852 03ce FFCF      		rjmp .L86
 853               	/* epilogue: frame size=0 */
 854               	/* epilogue: noreturn */
 855               	/* epilogue end (size=0) */
 856               	/* function main size 18 (14) */
 857               	.LFE18:
 859               	.Letext0:
DEFINED SYMBOLS
                            *ABS*:00000000 main.c
C:\Users\Aditya\AppData\Local\Temp/cceQaaaa.s:3      *ABS*:0000003f __SREG__
C:\Users\Aditya\AppData\Local\Temp/cceQaaaa.s:4      *ABS*:0000003e __SP_H__
C:\Users\Aditya\AppData\Local\Temp/cceQaaaa.s:5      *ABS*:0000003d __SP_L__
C:\Users\Aditya\AppData\Local\Temp/cceQaaaa.s:6      *ABS*:00000000 __tmp_reg__
C:\Users\Aditya\AppData\Local\Temp/cceQaaaa.s:7      *ABS*:00000001 __zero_reg__
C:\Users\Aditya\AppData\Local\Temp/cceQaaaa.s:23     .bss:00000000 one
C:\Users\Aditya\AppData\Local\Temp/cceQaaaa.s:29     .bss:00000001 ten
C:\Users\Aditya\AppData\Local\Temp/cceQaaaa.s:35     .bss:00000002 hundred
C:\Users\Aditya\AppData\Local\Temp/cceQaaaa.s:41     .bss:00000003 thousand
C:\Users\Aditya\AppData\Local\Temp/cceQaaaa.s:47     .bss:00000004 tenthousand
C:\Users\Aditya\AppData\Local\Temp/cceQaaaa.s:53     .data:00000000 ch
C:\Users\Aditya\AppData\Local\Temp/cceQaaaa.s:69     .bss:00000005 save
C:\Users\Aditya\AppData\Local\Temp/cceQaaaa.s:75     .bss:00000006 j
C:\Users\Aditya\AppData\Local\Temp/cceQaaaa.s:81     .bss:00000007 k
C:\Users\Aditya\AppData\Local\Temp/cceQaaaa.s:86     .text:00000000 WaitMs
C:\Users\Aditya\AppData\Local\Temp/cceQaaaa.s:121    .text:0000001c toggleE
C:\Users\Aditya\AppData\Local\Temp/cceQaaaa.s:153    .text:00000028 lcd_cmd
C:\Users\Aditya\AppData\Local\Temp/cceQaaaa.s:264    .text:000000a4 lcd_init
C:\Users\Aditya\AppData\Local\Temp/cceQaaaa.s:344    .text:00000122 dely_ns
C:\Users\Aditya\AppData\Local\Temp/cceQaaaa.s:381    .text:0000014c lcd_char
C:\Users\Aditya\AppData\Local\Temp/cceQaaaa.s:490    .text:000001c6 lcd_num1
C:\Users\Aditya\AppData\Local\Temp/cceQaaaa.s:593    .text:0000028e lcd_string
C:\Users\Aditya\AppData\Local\Temp/cceQaaaa.s:719    .text:00000340 lcd_showvalue
C:\Users\Aditya\AppData\Local\Temp/cceQaaaa.s:774    .text:00000394 lcd_gotoxy1
C:\Users\Aditya\AppData\Local\Temp/cceQaaaa.s:790    .text:0000039c lcd_gotoxy2
C:\Users\Aditya\AppData\Local\Temp/cceQaaaa.s:806    .text:000003a4 lcd_exit
C:\Users\Aditya\AppData\Local\Temp/cceQaaaa.s:828    .text:000003ac main

UNDEFINED SYMBOLS
__do_copy_data
__do_clear_bss
__udivmodhi4
__udivmodqi4
__divmodhi4
__stack
