   1               		.file	"main.c"
   2               	__SREG__ = 0x3f
   3               	__SP_H__ = 0x3e
   4               	__SP_L__ = 0x3d
   5               	__CCP__  = 0x34
   6               	__tmp_reg__ = 0
   7               	__zero_reg__ = 1
   8               		.global __do_copy_data
   9               		.global __do_clear_bss
  17               	.Ltext0:
  18               	.global	compute_duty_cycle
  20               	compute_duty_cycle:
  21               	.LFB8:
  22               	.LM1:
  23               	.LVL0:
  24               	/* prologue: function */
  25               	/* frame size = 0 */
  26 0000 FC01      		movw r30,r24
  27               	.LM2:
  28 0002 6133      		cpi r22,lo8(49)
  29 0004 01F4      		brne .L2
  30               	.LVL1:
  31               	.LM3:
  32 0006 8091 8600 		lds r24,134
  33 000a 9091 8700 		lds r25,(134)+1
  34 000e 00C0      		rjmp .L8
  35               	.LVL2:
  36               	.L2:
  37               	.LM4:
  38 0010 6333      		cpi r22,lo8(51)
  39 0012 01F4      		brne .L4
  40               	.LM5:
  41 0014 8091 9600 		lds r24,150
  42 0018 9091 9700 		lds r25,(150)+1
  43 001c 00C0      		rjmp .L8
  44               	.LVL3:
  45               	.L4:
  46               	.LM6:
  47 001e 6433      		cpi r22,lo8(52)
  48 0020 01F4      		brne .L5
  49               	.LM7:
  50 0022 8091 A600 		lds r24,166
  51 0026 9091 A700 		lds r25,(166)+1
  52 002a 00C0      		rjmp .L8
  53               	.LVL4:
  54               	.L5:
  55               	.LM8:
  56 002c 6533      		cpi r22,lo8(53)
  57 002e 01F4      		brne .L6
  58               	.LM9:
  59 0030 8091 2601 		lds r24,294
  60 0034 9091 2701 		lds r25,(294)+1
  61               	.L8:
  62 0038 64E6      		ldi r22,lo8(100)
  63 003a 70E0      		ldi r23,hi8(100)
  64               	.LVL5:
  65 003c 0E94 0000 		call __udivmodhi4
  66 0040 E69F      		mul r30,r22
  67 0042 9001      		movw r18,r0
  68 0044 E79F      		mul r30,r23
  69 0046 300D      		add r19,r0
  70 0048 F69F      		mul r31,r22
  71 004a 300D      		add r19,r0
  72 004c 1124      		clr r1
  73               	.LM10:
  74 004e C901      		movw r24,r18
  75 0050 0895      		ret
  76               	.LVL6:
  77               	.L6:
  78 0052 0895      		ret
  79               	.LFE8:
  81               	.global	toggleE
  83               	toggleE:
  84               	.LFB12:
  85               	.LM11:
  86               	/* prologue: function */
  87               	/* frame size = 0 */
  88               	.LM12:
  89 0054 709A      		sbi 46-32,0
  90               	.LBB636:
  91               	.LBB637:
  92               	.LBB638:
  93               	.LBB639:
  94               	.LBB640:
  95               	.LBB641:
  96               	.LM13:
  97 0056 83E3      		ldi r24,lo8(1843)
  98 0058 97E0      		ldi r25,hi8(1843)
  99               	.LVL7:
 100               	/* #APP */
 101               	 ;  105 "c:/winavr-20080610/lib/gcc/../../avr/include/util/delay_basic.h" 1
 102 005a 0197      		1: sbiw r24,1
 103 005c 01F4      		brne 1b
 104               	 ;  0 "" 2
 105               	/* #NOAPP */
 106               	.LBE641:
 107               	.LBE640:
 108               	.LBE639:
 109               	.LBE638:
 110               	.LBE637:
 111               	.LBE636:
 112               	.LM14:
 113 005e 7098      		cbi 46-32,0
 114               	/* epilogue start */
 115               	.LM15:
 116 0060 0895      		ret
 117               	.LFE12:
 119               	.global	dely_ns
 121               	dely_ns:
 122               	.LFB13:
 123               	.LM16:
 124               	.LVL8:
 125               	/* prologue: function */
 126               	/* frame size = 0 */
 127               	.LM17:
 128 0062 2091 0000 		lds r18,k
 129 0066 90E0      		ldi r25,lo8(0)
 130 0068 00C0      		rjmp .L12
 131               	.L13:
 132               	.LM18:
 133 006a 9F5F      		subi r25,lo8(-(1))
 134 006c 2AE0      		ldi r18,lo8(10)
 135               	.L12:
 136 006e 9817      		cp r25,r24
 137 0070 00F0      		brlo .L13
 138 0072 2093 0000 		sts k,r18
 139 0076 9093 0000 		sts j,r25
 140               	/* epilogue start */
 141               	.LM19:
 142 007a 0895      		ret
 143               	.LFE13:
 145               	.global	lcd_cmd
 147               	lcd_cmd:
 148               	.LFB14:
 149               	.LM20:
 150               	.LVL9:
 151               	/* prologue: function */
 152               	/* frame size = 0 */
 153               	.LM21:
 154 007c A598      		cbi 52-32,5
 155               	.LM22:
 156 007e 7098      		cbi 46-32,0
 157               	.LM23:
 158 0080 482F      		mov r20,r24
 159 0082 50E0      		ldi r21,lo8(0)
 160               	.LM24:
 161 0084 9A01      		movw r18,r20
 162 0086 207C      		andi r18,lo8(192)
 163 0088 3070      		andi r19,hi8(192)
 164 008a 2EB9      		out 46-32,r18
 165               	.LM25:
 166 008c 9EB1      		in r25,46-32
 167 008e 8695      		lsr r24
 168 0090 8695      		lsr r24
 169 0092 8695      		lsr r24
 170               	.LVL10:
 171 0094 8670      		andi r24,lo8(6)
 172 0096 982B      		or r25,r24
 173 0098 9EB9      		out 46-32,r25
 174               	.LBB642:
 175               	.LBB643:
 176               	.LBB644:
 177               	.LBB645:
 178               	.LM26:
 179 009a 68E1      		ldi r22,lo8(24)
 180 009c 862F      		mov r24,r22
 181               	.LVL11:
 182               	/* #APP */
 183               	 ;  83 "c:/winavr-20080610/lib/gcc/../../avr/include/util/delay_basic.h" 1
 184 009e 8A95      		1: dec r24
 185 00a0 01F4      		brne 1b
 186               	 ;  0 "" 2
 187               	/* #NOAPP */
 188               	.LBE645:
 189               	.LBE644:
 190               	.LBE643:
 191               	.LBE642:
 192               	.LBB646:
 193               	.LBB647:
 194               	.LM27:
 195 00a2 709A      		sbi 46-32,0
 196               	.LBB648:
 197               	.LBB649:
 198               	.LBB650:
 199               	.LBB651:
 200               	.LBB652:
 201               	.LBB653:
 202               	.LM28:
 203 00a4 23E3      		ldi r18,lo8(1843)
 204 00a6 37E0      		ldi r19,hi8(1843)
 205 00a8 C901      		movw r24,r18
 206               	.LVL12:
 207               	/* #APP */
 208               	 ;  105 "c:/winavr-20080610/lib/gcc/../../avr/include/util/delay_basic.h" 1
 209 00aa 0197      		1: sbiw r24,1
 210 00ac 01F4      		brne 1b
 211               	 ;  0 "" 2
 212               	/* #NOAPP */
 213               	.LBE653:
 214               	.LBE652:
 215               	.LBE651:
 216               	.LBE650:
 217               	.LBE649:
 218               	.LBE648:
 219               	.LM29:
 220 00ae 7098      		cbi 46-32,0
 221               	.LBE647:
 222               	.LBE646:
 223               	.LM30:
 224 00b0 A59A      		sbi 52-32,5
 225               	.LM31:
 226 00b2 A598      		cbi 52-32,5
 227               	.LM32:
 228 00b4 7098      		cbi 46-32,0
 229               	.LM33:
 230 00b6 CA01      		movw r24,r20
 231               	.LVL13:
 232 00b8 74E0      		ldi r23,4
 233 00ba 880F      	1:	lsl r24
 234 00bc 991F      		rol r25
 235 00be 7A95      		dec r23
 236 00c0 01F4      		brne 1b
 237 00c2 807C      		andi r24,lo8(192)
 238 00c4 9070      		andi r25,hi8(192)
 239 00c6 8EB9      		out 46-32,r24
 240               	.LM34:
 241 00c8 8EB1      		in r24,46-32
 242 00ca 440F      		lsl r20
 243 00cc 551F      		rol r21
 244 00ce 4670      		andi r20,lo8(6)
 245 00d0 5070      		andi r21,hi8(6)
 246 00d2 842B      		or r24,r20
 247 00d4 8EB9      		out 46-32,r24
 248               	.LBB654:
 249               	.LBB655:
 250               	.LBB656:
 251               	.LBB657:
 252               	.LM35:
 253               	/* #APP */
 254               	 ;  83 "c:/winavr-20080610/lib/gcc/../../avr/include/util/delay_basic.h" 1
 255 00d6 6A95      		1: dec r22
 256 00d8 01F4      		brne 1b
 257               	 ;  0 "" 2
 258               	.LVL14:
 259               	/* #NOAPP */
 260               	.LBE657:
 261               	.LBE656:
 262               	.LBE655:
 263               	.LBE654:
 264               	.LBB658:
 265               	.LBB659:
 266               	.LM36:
 267 00da 709A      		sbi 46-32,0
 268               	.LBB660:
 269               	.LBB661:
 270               	.LBB662:
 271               	.LBB663:
 272               	.LBB664:
 273               	.LBB665:
 274               	.LM37:
 275 00dc C901      		movw r24,r18
 276               	.LVL15:
 277               	/* #APP */
 278               	 ;  105 "c:/winavr-20080610/lib/gcc/../../avr/include/util/delay_basic.h" 1
 279 00de 0197      		1: sbiw r24,1
 280 00e0 01F4      		brne 1b
 281               	 ;  0 "" 2
 282               	/* #NOAPP */
 283               	.LBE665:
 284               	.LBE664:
 285               	.LBE663:
 286               	.LBE662:
 287               	.LBE661:
 288               	.LBE660:
 289               	.LM38:
 290 00e2 7098      		cbi 46-32,0
 291               	.LBE659:
 292               	.LBE658:
 293               	.LM39:
 294 00e4 1EB8      		out 46-32,__zero_reg__
 295 00e6 2AE0      		ldi r18,lo8(10)
 296 00e8 30E0      		ldi r19,hi8(10)
 297               	.LVL16:
 298 00ea 00C0      		rjmp .L16
 299               	.LVL17:
 300               	.L18:
 301 00ec 80E0      		ldi r24,lo8(0)
 302 00ee 90E0      		ldi r25,hi8(0)
 303               	.LVL18:
 304               	.L17:
 305               	.LBB666:
 306               	.LBB667:
 307               	.LM40:
 308               	/* #APP */
 309               	 ;  340 "LCD640.h" 1
 310 00f0 0000      		nop
 311               	 ;  0 "" 2
 312               	.LM41:
 313               	/* #NOAPP */
 314 00f2 0196      		adiw r24,1
 315 00f4 4CE0      		ldi r20,hi8(3276)
 316 00f6 8C3C      		cpi r24,lo8(3276)
 317 00f8 9407      		cpc r25,r20
 318 00fa 01F4      		brne .L17
 319               	.LVL19:
 320               	.L16:
 321               	.LM42:
 322 00fc 2150      		subi r18,lo8(-(-1))
 323 00fe 3040      		sbci r19,hi8(-(-1))
 324 0100 8FEF      		ldi r24,hi8(-1)
 325 0102 2F3F      		cpi r18,lo8(-1)
 326 0104 3807      		cpc r19,r24
 327               	.LVL20:
 328 0106 01F4      		brne .L18
 329               	/* epilogue start */
 330               	.LBE667:
 331               	.LBE666:
 332               	.LM43:
 333 0108 0895      		ret
 334               	.LFE14:
 336               	.global	lcd_init
 338               	lcd_init:
 339               	.LFB11:
 340               	.LM44:
 341               	/* prologue: function */
 342               	/* frame size = 0 */
 343               	.LM45:
 344 010a 8FEF      		ldi r24,lo8(-1)
 345 010c 8DB9      		out 45-32,r24
 346               	.LM46:
 347 010e 83BB      		out 51-32,r24
 348 0110 2FE0      		ldi r18,lo8(15)
 349 0112 30E0      		ldi r19,hi8(15)
 350               	.LVL21:
 351 0114 00C0      		rjmp .L22
 352               	.L24:
 353 0116 80E0      		ldi r24,lo8(0)
 354 0118 90E0      		ldi r25,hi8(0)
 355               	.LVL22:
 356               	.L23:
 357               	.LBB668:
 358               	.LBB669:
 359               	.LM47:
 360               	/* #APP */
 361               	 ;  340 "LCD640.h" 1
 362 011a 0000      		nop
 363               	 ;  0 "" 2
 364               	.LM48:
 365               	/* #NOAPP */
 366 011c 0196      		adiw r24,1
 367 011e 4CE0      		ldi r20,hi8(3276)
 368 0120 8C3C      		cpi r24,lo8(3276)
 369 0122 9407      		cpc r25,r20
 370 0124 01F4      		brne .L23
 371               	.L22:
 372               	.LM49:
 373 0126 2150      		subi r18,lo8(-(-1))
 374 0128 3040      		sbci r19,hi8(-(-1))
 375 012a 8FEF      		ldi r24,hi8(-1)
 376 012c 2F3F      		cpi r18,lo8(-1)
 377 012e 3807      		cpc r19,r24
 378               	.LVL23:
 379 0130 01F4      		brne .L24
 380               	.LBE669:
 381               	.LBE668:
 382               	.LM50:
 383 0132 A598      		cbi 52-32,5
 384               	.LM51:
 385 0134 7098      		cbi 46-32,0
 386               	.LM52:
 387 0136 1EB8      		out 46-32,__zero_reg__
 388               	.LM53:
 389 0138 80E2      		ldi r24,lo8(32)
 390 013a 0E94 0000 		call lcd_cmd
 391               	.LVL24:
 392 013e 21E0      		ldi r18,lo8(1)
 393 0140 30E0      		ldi r19,hi8(1)
 394               	.LVL25:
 395 0142 00C0      		rjmp .L25
 396               	.L27:
 397 0144 80E0      		ldi r24,lo8(0)
 398 0146 90E0      		ldi r25,hi8(0)
 399               	.LVL26:
 400               	.L26:
 401               	.LBB670:
 402               	.LBB671:
 403               	.LM54:
 404               	/* #APP */
 405               	 ;  340 "LCD640.h" 1
 406 0148 0000      		nop
 407               	 ;  0 "" 2
 408               	.LM55:
 409               	/* #NOAPP */
 410 014a 0196      		adiw r24,1
 411 014c 4CE0      		ldi r20,hi8(3276)
 412 014e 8C3C      		cpi r24,lo8(3276)
 413 0150 9407      		cpc r25,r20
 414 0152 01F4      		brne .L26
 415               	.L25:
 416               	.LM56:
 417 0154 2150      		subi r18,lo8(-(-1))
 418 0156 3040      		sbci r19,hi8(-(-1))
 419 0158 8FEF      		ldi r24,hi8(-1)
 420 015a 2F3F      		cpi r18,lo8(-1)
 421 015c 3807      		cpc r19,r24
 422               	.LVL27:
 423 015e 01F4      		brne .L27
 424               	.LBE671:
 425               	.LBE670:
 426               	.LM57:
 427 0160 80E2      		ldi r24,lo8(32)
 428 0162 0E94 0000 		call lcd_cmd
 429               	.LVL28:
 430 0166 21E0      		ldi r18,lo8(1)
 431 0168 30E0      		ldi r19,hi8(1)
 432               	.LVL29:
 433 016a 00C0      		rjmp .L28
 434               	.L30:
 435 016c 80E0      		ldi r24,lo8(0)
 436 016e 90E0      		ldi r25,hi8(0)
 437               	.LVL30:
 438               	.L29:
 439               	.LBB672:
 440               	.LBB673:
 441               	.LM58:
 442               	/* #APP */
 443               	 ;  340 "LCD640.h" 1
 444 0170 0000      		nop
 445               	 ;  0 "" 2
 446               	.LM59:
 447               	/* #NOAPP */
 448 0172 0196      		adiw r24,1
 449 0174 4CE0      		ldi r20,hi8(3276)
 450 0176 8C3C      		cpi r24,lo8(3276)
 451 0178 9407      		cpc r25,r20
 452 017a 01F4      		brne .L29
 453               	.L28:
 454               	.LM60:
 455 017c 2150      		subi r18,lo8(-(-1))
 456 017e 3040      		sbci r19,hi8(-(-1))
 457 0180 8FEF      		ldi r24,hi8(-1)
 458 0182 2F3F      		cpi r18,lo8(-1)
 459 0184 3807      		cpc r19,r24
 460               	.LVL31:
 461 0186 01F4      		brne .L30
 462               	.LBE673:
 463               	.LBE672:
 464               	.LM61:
 465 0188 80E2      		ldi r24,lo8(32)
 466 018a 0E94 0000 		call lcd_cmd
 467               	.LVL32:
 468 018e 21E0      		ldi r18,lo8(1)
 469 0190 30E0      		ldi r19,hi8(1)
 470               	.LVL33:
 471 0192 00C0      		rjmp .L31
 472               	.L33:
 473 0194 80E0      		ldi r24,lo8(0)
 474 0196 90E0      		ldi r25,hi8(0)
 475               	.LVL34:
 476               	.L32:
 477               	.LBB674:
 478               	.LBB675:
 479               	.LM62:
 480               	/* #APP */
 481               	 ;  340 "LCD640.h" 1
 482 0198 0000      		nop
 483               	 ;  0 "" 2
 484               	.LM63:
 485               	/* #NOAPP */
 486 019a 0196      		adiw r24,1
 487 019c 4CE0      		ldi r20,hi8(3276)
 488 019e 8C3C      		cpi r24,lo8(3276)
 489 01a0 9407      		cpc r25,r20
 490 01a2 01F4      		brne .L32
 491               	.L31:
 492               	.LM64:
 493 01a4 2150      		subi r18,lo8(-(-1))
 494 01a6 3040      		sbci r19,hi8(-(-1))
 495 01a8 8FEF      		ldi r24,hi8(-1)
 496 01aa 2F3F      		cpi r18,lo8(-1)
 497 01ac 3807      		cpc r19,r24
 498               	.LVL35:
 499 01ae 01F4      		brne .L33
 500               	.LBE675:
 501               	.LBE674:
 502               	.LM65:
 503 01b0 88E2      		ldi r24,lo8(40)
 504 01b2 0E94 0000 		call lcd_cmd
 505               	.LVL36:
 506 01b6 21E0      		ldi r18,lo8(1)
 507 01b8 30E0      		ldi r19,hi8(1)
 508               	.LVL37:
 509 01ba 00C0      		rjmp .L34
 510               	.L36:
 511 01bc 80E0      		ldi r24,lo8(0)
 512 01be 90E0      		ldi r25,hi8(0)
 513               	.LVL38:
 514               	.L35:
 515               	.LBB676:
 516               	.LBB677:
 517               	.LM66:
 518               	/* #APP */
 519               	 ;  340 "LCD640.h" 1
 520 01c0 0000      		nop
 521               	 ;  0 "" 2
 522               	.LM67:
 523               	/* #NOAPP */
 524 01c2 0196      		adiw r24,1
 525 01c4 4CE0      		ldi r20,hi8(3276)
 526 01c6 8C3C      		cpi r24,lo8(3276)
 527 01c8 9407      		cpc r25,r20
 528 01ca 01F4      		brne .L35
 529               	.L34:
 530               	.LM68:
 531 01cc 2150      		subi r18,lo8(-(-1))
 532 01ce 3040      		sbci r19,hi8(-(-1))
 533 01d0 8FEF      		ldi r24,hi8(-1)
 534 01d2 2F3F      		cpi r18,lo8(-1)
 535 01d4 3807      		cpc r19,r24
 536               	.LVL39:
 537 01d6 01F4      		brne .L36
 538               	.LBE677:
 539               	.LBE676:
 540               	.LM69:
 541 01d8 8EE0      		ldi r24,lo8(14)
 542 01da 0E94 0000 		call lcd_cmd
 543               	.LVL40:
 544 01de 21E0      		ldi r18,lo8(1)
 545 01e0 30E0      		ldi r19,hi8(1)
 546               	.LVL41:
 547 01e2 00C0      		rjmp .L37
 548               	.L39:
 549 01e4 80E0      		ldi r24,lo8(0)
 550 01e6 90E0      		ldi r25,hi8(0)
 551               	.LVL42:
 552               	.L38:
 553               	.LBB678:
 554               	.LBB679:
 555               	.LM70:
 556               	/* #APP */
 557               	 ;  340 "LCD640.h" 1
 558 01e8 0000      		nop
 559               	 ;  0 "" 2
 560               	.LM71:
 561               	/* #NOAPP */
 562 01ea 0196      		adiw r24,1
 563 01ec 4CE0      		ldi r20,hi8(3276)
 564 01ee 8C3C      		cpi r24,lo8(3276)
 565 01f0 9407      		cpc r25,r20
 566 01f2 01F4      		brne .L38
 567               	.L37:
 568               	.LM72:
 569 01f4 2150      		subi r18,lo8(-(-1))
 570 01f6 3040      		sbci r19,hi8(-(-1))
 571 01f8 8FEF      		ldi r24,hi8(-1)
 572 01fa 2F3F      		cpi r18,lo8(-1)
 573 01fc 3807      		cpc r19,r24
 574               	.LVL43:
 575 01fe 01F4      		brne .L39
 576               	.LBE679:
 577               	.LBE678:
 578               	.LM73:
 579 0200 81E0      		ldi r24,lo8(1)
 580 0202 0E94 0000 		call lcd_cmd
 581               	.LVL44:
 582 0206 21E0      		ldi r18,lo8(1)
 583 0208 30E0      		ldi r19,hi8(1)
 584               	.LVL45:
 585 020a 00C0      		rjmp .L40
 586               	.L42:
 587 020c 80E0      		ldi r24,lo8(0)
 588 020e 90E0      		ldi r25,hi8(0)
 589               	.LVL46:
 590               	.L41:
 591               	.LBB680:
 592               	.LBB681:
 593               	.LM74:
 594               	/* #APP */
 595               	 ;  340 "LCD640.h" 1
 596 0210 0000      		nop
 597               	 ;  0 "" 2
 598               	.LM75:
 599               	/* #NOAPP */
 600 0212 0196      		adiw r24,1
 601 0214 4CE0      		ldi r20,hi8(3276)
 602 0216 8C3C      		cpi r24,lo8(3276)
 603 0218 9407      		cpc r25,r20
 604 021a 01F4      		brne .L41
 605               	.L40:
 606               	.LM76:
 607 021c 2150      		subi r18,lo8(-(-1))
 608 021e 3040      		sbci r19,hi8(-(-1))
 609 0220 8FEF      		ldi r24,hi8(-1)
 610 0222 2F3F      		cpi r18,lo8(-1)
 611 0224 3807      		cpc r19,r24
 612               	.LVL47:
 613 0226 01F4      		brne .L42
 614               	.LBE681:
 615               	.LBE680:
 616               	.LM77:
 617 0228 86E0      		ldi r24,lo8(6)
 618 022a 0E94 0000 		call lcd_cmd
 619               	.LVL48:
 620 022e 21E0      		ldi r18,lo8(1)
 621 0230 30E0      		ldi r19,hi8(1)
 622               	.LVL49:
 623 0232 00C0      		rjmp .L43
 624               	.L45:
 625 0234 80E0      		ldi r24,lo8(0)
 626 0236 90E0      		ldi r25,hi8(0)
 627               	.LVL50:
 628               	.L44:
 629               	.LBB682:
 630               	.LBB683:
 631               	.LM78:
 632               	/* #APP */
 633               	 ;  340 "LCD640.h" 1
 634 0238 0000      		nop
 635               	 ;  0 "" 2
 636               	.LM79:
 637               	/* #NOAPP */
 638 023a 0196      		adiw r24,1
 639 023c 4CE0      		ldi r20,hi8(3276)
 640 023e 8C3C      		cpi r24,lo8(3276)
 641 0240 9407      		cpc r25,r20
 642 0242 01F4      		brne .L44
 643               	.L43:
 644               	.LM80:
 645 0244 2150      		subi r18,lo8(-(-1))
 646 0246 3040      		sbci r19,hi8(-(-1))
 647 0248 8FEF      		ldi r24,hi8(-1)
 648 024a 2F3F      		cpi r18,lo8(-1)
 649 024c 3807      		cpc r19,r24
 650               	.LVL51:
 651 024e 01F4      		brne .L45
 652               	/* epilogue start */
 653               	.LBE683:
 654               	.LBE682:
 655               	.LM81:
 656 0250 0895      		ret
 657               	.LFE11:
 659               	.global	lcd_char
 661               	lcd_char:
 662               	.LFB15:
 663               	.LM82:
 664               	.LVL52:
 665               	/* prologue: function */
 666               	/* frame size = 0 */
 667 0252 482F      		mov r20,r24
 668               	.LM83:
 669 0254 2FE0      		ldi r18,lo8(15)
 670 0256 30E0      		ldi r19,hi8(15)
 671               	.LVL53:
 672 0258 00C0      		rjmp .L56
 673               	.LVL54:
 674               	.L58:
 675 025a 80E0      		ldi r24,lo8(0)
 676 025c 90E0      		ldi r25,hi8(0)
 677               	.LVL55:
 678               	.L57:
 679               	.LBB684:
 680               	.LBB685:
 681               	.LM84:
 682               	/* #APP */
 683               	 ;  340 "LCD640.h" 1
 684 025e 0000      		nop
 685               	 ;  0 "" 2
 686               	.LM85:
 687               	/* #NOAPP */
 688 0260 0196      		adiw r24,1
 689 0262 5CE0      		ldi r21,hi8(3276)
 690 0264 8C3C      		cpi r24,lo8(3276)
 691 0266 9507      		cpc r25,r21
 692 0268 01F4      		brne .L57
 693               	.LVL56:
 694               	.L56:
 695               	.LM86:
 696 026a 2150      		subi r18,lo8(-(-1))
 697 026c 3040      		sbci r19,hi8(-(-1))
 698 026e 8FEF      		ldi r24,hi8(-1)
 699 0270 2F3F      		cpi r18,lo8(-1)
 700 0272 3807      		cpc r19,r24
 701               	.LVL57:
 702 0274 01F4      		brne .L58
 703               	.LBE685:
 704               	.LBE684:
 705               	.LM87:
 706 0276 A59A      		sbi 52-32,5
 707               	.LM88:
 708 0278 7098      		cbi 46-32,0
 709               	.LM89:
 710 027a 242F      		mov r18,r20
 711               	.LVL58:
 712 027c 30E0      		ldi r19,lo8(0)
 713               	.LM90:
 714 027e C901      		movw r24,r18
 715 0280 807C      		andi r24,lo8(192)
 716 0282 9070      		andi r25,hi8(192)
 717 0284 8EB9      		out 46-32,r24
 718               	.LM91:
 719 0286 8EB1      		in r24,46-32
 720 0288 4695      		lsr r20
 721 028a 4695      		lsr r20
 722 028c 4695      		lsr r20
 723 028e 4670      		andi r20,lo8(6)
 724 0290 842B      		or r24,r20
 725 0292 8EB9      		out 46-32,r24
 726               	.LBB686:
 727               	.LBB687:
 728               	.LBB688:
 729               	.LBB689:
 730               	.LM92:
 731 0294 68E1      		ldi r22,lo8(24)
 732 0296 862F      		mov r24,r22
 733               	.LVL59:
 734               	/* #APP */
 735               	 ;  83 "c:/winavr-20080610/lib/gcc/../../avr/include/util/delay_basic.h" 1
 736 0298 8A95      		1: dec r24
 737 029a 01F4      		brne 1b
 738               	 ;  0 "" 2
 739               	/* #NOAPP */
 740               	.LBE689:
 741               	.LBE688:
 742               	.LBE687:
 743               	.LBE686:
 744               	.LBB690:
 745               	.LBB691:
 746               	.LM93:
 747 029c 709A      		sbi 46-32,0
 748               	.LBB692:
 749               	.LBB693:
 750               	.LBB694:
 751               	.LBB695:
 752               	.LBB696:
 753               	.LBB697:
 754               	.LM94:
 755 029e 43E3      		ldi r20,lo8(1843)
 756 02a0 57E0      		ldi r21,hi8(1843)
 757               	.LVL60:
 758 02a2 CA01      		movw r24,r20
 759               	.LVL61:
 760               	/* #APP */
 761               	 ;  105 "c:/winavr-20080610/lib/gcc/../../avr/include/util/delay_basic.h" 1
 762 02a4 0197      		1: sbiw r24,1
 763 02a6 01F4      		brne 1b
 764               	 ;  0 "" 2
 765               	/* #NOAPP */
 766               	.LBE697:
 767               	.LBE696:
 768               	.LBE695:
 769               	.LBE694:
 770               	.LBE693:
 771               	.LBE692:
 772               	.LM95:
 773 02a8 7098      		cbi 46-32,0
 774               	.LBE691:
 775               	.LBE690:
 776               	.LM96:
 777 02aa A598      		cbi 52-32,5
 778               	.LM97:
 779 02ac 7098      		cbi 46-32,0
 780               	.LM98:
 781 02ae A59A      		sbi 52-32,5
 782               	.LM99:
 783 02b0 C901      		movw r24,r18
 784               	.LVL62:
 785 02b2 F4E0      		ldi r31,4
 786 02b4 880F      	1:	lsl r24
 787 02b6 991F      		rol r25
 788 02b8 FA95      		dec r31
 789 02ba 01F4      		brne 1b
 790 02bc 807C      		andi r24,lo8(192)
 791 02be 9070      		andi r25,hi8(192)
 792 02c0 8EB9      		out 46-32,r24
 793               	.LM100:
 794 02c2 8EB1      		in r24,46-32
 795 02c4 220F      		lsl r18
 796 02c6 331F      		rol r19
 797 02c8 2670      		andi r18,lo8(6)
 798 02ca 3070      		andi r19,hi8(6)
 799 02cc 822B      		or r24,r18
 800 02ce 8EB9      		out 46-32,r24
 801               	.LBB698:
 802               	.LBB699:
 803               	.LBB700:
 804               	.LBB701:
 805               	.LM101:
 806               	/* #APP */
 807               	 ;  83 "c:/winavr-20080610/lib/gcc/../../avr/include/util/delay_basic.h" 1
 808 02d0 6A95      		1: dec r22
 809 02d2 01F4      		brne 1b
 810               	 ;  0 "" 2
 811               	.LVL63:
 812               	/* #NOAPP */
 813               	.LBE701:
 814               	.LBE700:
 815               	.LBE699:
 816               	.LBE698:
 817               	.LBB702:
 818               	.LBB703:
 819               	.LM102:
 820 02d4 709A      		sbi 46-32,0
 821               	.LBB704:
 822               	.LBB705:
 823               	.LBB706:
 824               	.LBB707:
 825               	.LBB708:
 826               	.LBB709:
 827               	.LM103:
 828 02d6 CA01      		movw r24,r20
 829               	.LVL64:
 830               	/* #APP */
 831               	 ;  105 "c:/winavr-20080610/lib/gcc/../../avr/include/util/delay_basic.h" 1
 832 02d8 0197      		1: sbiw r24,1
 833 02da 01F4      		brne 1b
 834               	 ;  0 "" 2
 835               	/* #NOAPP */
 836               	.LBE709:
 837               	.LBE708:
 838               	.LBE707:
 839               	.LBE706:
 840               	.LBE705:
 841               	.LBE704:
 842               	.LM104:
 843 02dc 7098      		cbi 46-32,0
 844               	/* epilogue start */
 845               	.LBE703:
 846               	.LBE702:
 847               	.LM105:
 848 02de 0895      		ret
 849               	.LFE15:
 851               	.global	lcd_string
 853               	lcd_string:
 854               	.LFB16:
 855               	.LM106:
 856               	.LVL65:
 857 02e0 CF92      		push r12
 858 02e2 DF92      		push r13
 859 02e4 EF92      		push r14
 860 02e6 FF92      		push r15
 861 02e8 1F93      		push r17
 862 02ea CF93      		push r28
 863 02ec DF93      		push r29
 864               	/* prologue: function */
 865               	/* frame size = 0 */
 866 02ee 7C01      		movw r14,r24
 867               	.LM107:
 868 02f0 81E0      		ldi r24,lo8(1)
 869               	.LVL66:
 870 02f2 82B9      		out 34-32,r24
 871               	.LM108:
 872 02f4 A59A      		sbi 52-32,5
 873               	.LM109:
 874 02f6 7098      		cbi 46-32,0
 875 02f8 10E0      		ldi r17,lo8(0)
 876               	.LVL67:
 877               	.LBB710:
 878               	.LBB711:
 879               	.LBB712:
 880               	.LBB713:
 881               	.LBB714:
 882               	.LBB715:
 883               	.LBB716:
 884               	.LBB717:
 885               	.LM110:
 886 02fa 63E3      		ldi r22,lo8(1843)
 887 02fc C62E      		mov r12,r22
 888 02fe 67E0      		ldi r22,hi8(1843)
 889 0300 D62E      		mov r13,r22
 890 0302 00C0      		rjmp .L62
 891               	.LVL68:
 892               	.L67:
 893               	.LBE717:
 894               	.LBE716:
 895               	.LBE715:
 896               	.LBE714:
 897               	.LBE713:
 898               	.LBE712:
 899               	.LBE711:
 900               	.LBE710:
 901               	.LM111:
 902 0304 1031      		cpi r17,lo8(16)
 903 0306 01F4      		brne .L63
 904               	.LM112:
 905 0308 80EC      		ldi r24,lo8(-64)
 906 030a 0E94 0000 		call lcd_cmd
 907               	.LVL69:
 908               	.L63:
 909               	.LM113:
 910 030e A59A      		sbi 52-32,5
 911               	.LM114:
 912 0310 7098      		cbi 46-32,0
 913               	.LM115:
 914 0312 2881      		ld r18,Y
 915               	.LVL70:
 916 0314 30E0      		ldi r19,lo8(0)
 917               	.LM116:
 918 0316 C901      		movw r24,r18
 919               	.LVL71:
 920 0318 807C      		andi r24,lo8(192)
 921 031a 9070      		andi r25,hi8(192)
 922 031c 8EB9      		out 46-32,r24
 923               	.LM117:
 924 031e 4EB1      		in r20,46-32
 925 0320 C901      		movw r24,r18
 926 0322 53E0      		ldi r21,3
 927 0324 9595      	1:	asr r25
 928 0326 8795      		ror r24
 929 0328 5A95      		dec r21
 930 032a 01F4      		brne 1b
 931 032c 8670      		andi r24,lo8(6)
 932 032e 9070      		andi r25,hi8(6)
 933 0330 482B      		or r20,r24
 934 0332 4EB9      		out 46-32,r20
 935               	.LBB725:
 936               	.LBB724:
 937               	.LM118:
 938 0334 709A      		sbi 46-32,0
 939               	.LBB723:
 940               	.LBB722:
 941               	.LBB721:
 942               	.LBB720:
 943               	.LBB719:
 944               	.LBB718:
 945               	.LM119:
 946 0336 C601      		movw r24,r12
 947               	.LVL72:
 948               	/* #APP */
 949               	 ;  105 "c:/winavr-20080610/lib/gcc/../../avr/include/util/delay_basic.h" 1
 950 0338 0197      		1: sbiw r24,1
 951 033a 01F4      		brne 1b
 952               	 ;  0 "" 2
 953               	/* #NOAPP */
 954               	.LBE718:
 955               	.LBE719:
 956               	.LBE720:
 957               	.LBE721:
 958               	.LBE722:
 959               	.LBE723:
 960               	.LM120:
 961 033c 7098      		cbi 46-32,0
 962               	.LBE724:
 963               	.LBE725:
 964               	.LM121:
 965 033e A598      		cbi 52-32,5
 966               	.LM122:
 967 0340 A59A      		sbi 52-32,5
 968               	.LM123:
 969 0342 7098      		cbi 46-32,0
 970               	.LM124:
 971 0344 C901      		movw r24,r18
 972               	.LVL73:
 973 0346 B4E0      		ldi r27,4
 974 0348 880F      	1:	lsl r24
 975 034a 991F      		rol r25
 976 034c BA95      		dec r27
 977 034e 01F4      		brne 1b
 978 0350 807C      		andi r24,lo8(192)
 979 0352 9070      		andi r25,hi8(192)
 980 0354 8EB9      		out 46-32,r24
 981               	.LM125:
 982 0356 8EB1      		in r24,46-32
 983 0358 220F      		lsl r18
 984 035a 331F      		rol r19
 985 035c 2670      		andi r18,lo8(6)
 986 035e 3070      		andi r19,hi8(6)
 987 0360 822B      		or r24,r18
 988 0362 8EB9      		out 46-32,r24
 989               	.LBB726:
 990               	.LBB727:
 991               	.LM126:
 992 0364 709A      		sbi 46-32,0
 993               	.LBB728:
 994               	.LBB729:
 995               	.LBB730:
 996               	.LBB731:
 997               	.LBB732:
 998               	.LBB733:
 999               	.LM127:
 1000 0366 C601      		movw r24,r12
 1001               	.LVL74:
 1002               	/* #APP */
 1003               	 ;  105 "c:/winavr-20080610/lib/gcc/../../avr/include/util/delay_basic.h" 1
 1004 0368 0197      		1: sbiw r24,1
 1005 036a 01F4      		brne 1b
 1006               	 ;  0 "" 2
 1007               	/* #NOAPP */
 1008               	.LBE733:
 1009               	.LBE732:
 1010               	.LBE731:
 1011               	.LBE730:
 1012               	.LBE729:
 1013               	.LBE728:
 1014               	.LM128:
 1015 036c 7098      		cbi 46-32,0
 1016 036e 21E0      		ldi r18,lo8(1)
 1017 0370 30E0      		ldi r19,hi8(1)
 1018               	.LVL75:
 1019 0372 00C0      		rjmp .L64
 1020               	.LVL76:
 1021               	.L66:
 1022 0374 80E0      		ldi r24,lo8(0)
 1023 0376 90E0      		ldi r25,hi8(0)
 1024               	.LVL77:
 1025               	.L65:
 1026               	.LBE727:
 1027               	.LBE726:
 1028               	.LBB734:
 1029               	.LBB735:
 1030               	.LM129:
 1031               	/* #APP */
 1032               	 ;  340 "LCD640.h" 1
 1033 0378 0000      		nop
 1034               	 ;  0 "" 2
 1035               	.LM130:
 1036               	/* #NOAPP */
 1037 037a 0196      		adiw r24,1
 1038 037c 4CE0      		ldi r20,hi8(3276)
 1039 037e 8C3C      		cpi r24,lo8(3276)
 1040 0380 9407      		cpc r25,r20
 1041 0382 01F4      		brne .L65
 1042               	.LVL78:
 1043               	.L64:
 1044               	.LM131:
 1045 0384 2150      		subi r18,lo8(-(-1))
 1046 0386 3040      		sbci r19,hi8(-(-1))
 1047 0388 8FEF      		ldi r24,hi8(-1)
 1048 038a 2F3F      		cpi r18,lo8(-1)
 1049 038c 3807      		cpc r19,r24
 1050               	.LVL79:
 1051 038e 01F4      		brne .L66
 1052               	.LBE735:
 1053               	.LBE734:
 1054               	.LM132:
 1055 0390 1F5F      		subi r17,lo8(-(1))
 1056               	.L62:
 1057               	.LM133:
 1058 0392 E701      		movw r28,r14
 1059 0394 C10F      		add r28,r17
 1060 0396 D11D      		adc r29,__zero_reg__
 1061 0398 8881      		ld r24,Y
 1062 039a 8823      		tst r24
 1063 039c 01F0      		breq .+2
 1064 039e 00C0      		rjmp .L67
 1065               	/* epilogue start */
 1066               	.LM134:
 1067 03a0 DF91      		pop r29
 1068 03a2 CF91      		pop r28
 1069 03a4 1F91      		pop r17
 1070               	.LVL80:
 1071 03a6 FF90      		pop r15
 1072 03a8 EF90      		pop r14
 1073               	.LVL81:
 1074 03aa DF90      		pop r13
 1075 03ac CF90      		pop r12
 1076 03ae 0895      		ret
 1077               	.LFE16:
 1079               	.global	lcd_showvalue
 1081               	lcd_showvalue:
 1082               	.LFB17:
 1083               	.LM135:
 1084               	.LVL82:
 1085 03b0 8F92      		push r8
 1086 03b2 9F92      		push r9
 1087 03b4 AF92      		push r10
 1088 03b6 BF92      		push r11
 1089 03b8 CF92      		push r12
 1090 03ba DF92      		push r13
 1091 03bc EF92      		push r14
 1092 03be FF92      		push r15
 1093 03c0 1F93      		push r17
 1094 03c2 CF93      		push r28
 1095 03c4 DF93      		push r29
 1096               	/* prologue: function */
 1097               	/* frame size = 0 */
 1098 03c6 4B01      		movw r8,r22
 1099 03c8 5C01      		movw r10,r24
 1100               	.LM136:
 1101 03ca 20EA      		ldi r18,lo8(100000)
 1102 03cc 36E8      		ldi r19,hi8(100000)
 1103 03ce 41E0      		ldi r20,hlo8(100000)
 1104 03d0 50E0      		ldi r21,hhi8(100000)
 1105 03d2 0E94 0000 		call __udivmodsi4
 1106               	.LVL83:
 1107 03d6 6115      		cp r22,__zero_reg__
 1108 03d8 7105      		cpc r23,__zero_reg__
 1109 03da 8105      		cpc r24,__zero_reg__
 1110 03dc 9105      		cpc r25,__zero_reg__
 1111 03de 01F4      		brne .L71
 1112 03e0 C5E0      		ldi r28,lo8(5)
 1113 03e2 D0E0      		ldi r29,hi8(5)
 1114               	.LVL84:
 1115 03e4 00C0      		rjmp .L72
 1116               	.LVL85:
 1117               	.L71:
 1118               	.LM137:
 1119 03e6 C501      		movw r24,r10
 1120 03e8 B401      		movw r22,r8
 1121 03ea 20E1      		ldi r18,lo8(10000)
 1122 03ec 37E2      		ldi r19,hi8(10000)
 1123 03ee 40E0      		ldi r20,hlo8(10000)
 1124 03f0 50E0      		ldi r21,hhi8(10000)
 1125 03f2 0E94 0000 		call __udivmodsi4
 1126 03f6 6115      		cp r22,__zero_reg__
 1127 03f8 7105      		cpc r23,__zero_reg__
 1128 03fa 8105      		cpc r24,__zero_reg__
 1129 03fc 9105      		cpc r25,__zero_reg__
 1130 03fe 01F4      		brne .L73
 1131 0400 C4E0      		ldi r28,lo8(4)
 1132 0402 D0E0      		ldi r29,hi8(4)
 1133               	.LVL86:
 1134 0404 00C0      		rjmp .L72
 1135               	.LVL87:
 1136               	.L73:
 1137               	.LM138:
 1138 0406 C501      		movw r24,r10
 1139 0408 B401      		movw r22,r8
 1140 040a 28EE      		ldi r18,lo8(1000)
 1141 040c 33E0      		ldi r19,hi8(1000)
 1142 040e 40E0      		ldi r20,hlo8(1000)
 1143 0410 50E0      		ldi r21,hhi8(1000)
 1144 0412 0E94 0000 		call __udivmodsi4
 1145 0416 6115      		cp r22,__zero_reg__
 1146 0418 7105      		cpc r23,__zero_reg__
 1147 041a 8105      		cpc r24,__zero_reg__
 1148 041c 9105      		cpc r25,__zero_reg__
 1149 041e 01F4      		brne .L74
 1150 0420 C3E0      		ldi r28,lo8(3)
 1151 0422 D0E0      		ldi r29,hi8(3)
 1152               	.LVL88:
 1153 0424 00C0      		rjmp .L72
 1154               	.LVL89:
 1155               	.L74:
 1156               	.LM139:
 1157 0426 C501      		movw r24,r10
 1158 0428 B401      		movw r22,r8
 1159 042a 24E6      		ldi r18,lo8(100)
 1160 042c 30E0      		ldi r19,hi8(100)
 1161 042e 40E0      		ldi r20,hlo8(100)
 1162 0430 50E0      		ldi r21,hhi8(100)
 1163 0432 0E94 0000 		call __udivmodsi4
 1164 0436 6115      		cp r22,__zero_reg__
 1165 0438 7105      		cpc r23,__zero_reg__
 1166 043a 8105      		cpc r24,__zero_reg__
 1167 043c 9105      		cpc r25,__zero_reg__
 1168 043e 01F4      		brne .L75
 1169 0440 C2E0      		ldi r28,lo8(2)
 1170 0442 D0E0      		ldi r29,hi8(2)
 1171               	.LVL90:
 1172 0444 00C0      		rjmp .L72
 1173               	.LVL91:
 1174               	.L75:
 1175 0446 C0E0      		ldi r28,lo8(0)
 1176 0448 D0E0      		ldi r29,hi8(0)
 1177               	.LVL92:
 1178 044a C501      		movw r24,r10
 1179 044c B401      		movw r22,r8
 1180 044e 2AE0      		ldi r18,lo8(10)
 1181 0450 30E0      		ldi r19,hi8(10)
 1182 0452 40E0      		ldi r20,hlo8(10)
 1183 0454 50E0      		ldi r21,hhi8(10)
 1184 0456 0E94 0000 		call __udivmodsi4
 1185 045a 6115      		cp r22,__zero_reg__
 1186 045c 7105      		cpc r23,__zero_reg__
 1187 045e 8105      		cpc r24,__zero_reg__
 1188 0460 9105      		cpc r25,__zero_reg__
 1189 0462 01F4      		brne .L72
 1190 0464 C1E0      		ldi r28,lo8(1)
 1191 0466 D0E0      		ldi r29,hi8(1)
 1192               	.L72:
 1193 0468 CC24      		clr r12
 1194 046a DD24      		clr r13
 1195 046c 7601      		movw r14,r12
 1196               	.LVL93:
 1197 046e 00C0      		rjmp .L77
 1198               	.LVL94:
 1199               	.L78:
 1200               	.LM140:
 1201 0470 C501      		movw r24,r10
 1202 0472 B401      		movw r22,r8
 1203 0474 2AE0      		ldi r18,lo8(10)
 1204 0476 30E0      		ldi r19,hi8(10)
 1205 0478 40E0      		ldi r20,hlo8(10)
 1206 047a 50E0      		ldi r21,hhi8(10)
 1207 047c 0E94 0000 		call __udivmodsi4
 1208 0480 162F      		mov r17,r22
 1209               	.LM141:
 1210 0482 C501      		movw r24,r10
 1211 0484 B401      		movw r22,r8
 1212 0486 2AE0      		ldi r18,lo8(10)
 1213 0488 30E0      		ldi r19,hi8(10)
 1214 048a 40E0      		ldi r20,hlo8(10)
 1215 048c 50E0      		ldi r21,hhi8(10)
 1216 048e 0E94 0000 		call __udivmodsi4
 1217 0492 C901      		movw r24,r18
 1218 0494 DA01      		movw r26,r20
 1219 0496 4C01      		movw r8,r24
 1220 0498 5D01      		movw r10,r26
 1221               	.LM142:
 1222 049a C701      		movw r24,r14
 1223 049c B601      		movw r22,r12
 1224 049e 2AE0      		ldi r18,lo8(10)
 1225 04a0 30E0      		ldi r19,hi8(10)
 1226 04a2 40E0      		ldi r20,hlo8(10)
 1227 04a4 50E0      		ldi r21,hhi8(10)
 1228 04a6 0E94 0000 		call __mulsi3
 1229 04aa 6B01      		movw r12,r22
 1230 04ac 7C01      		movw r14,r24
 1231 04ae C10E      		add r12,r17
 1232 04b0 D11C      		adc r13,__zero_reg__
 1233 04b2 E11C      		adc r14,__zero_reg__
 1234 04b4 F11C      		adc r15,__zero_reg__
 1235               	.L77:
 1236               	.LM143:
 1237 04b6 8114      		cp r8,__zero_reg__
 1238 04b8 9104      		cpc r9,__zero_reg__
 1239 04ba A104      		cpc r10,__zero_reg__
 1240 04bc B104      		cpc r11,__zero_reg__
 1241 04be 01F4      		brne .L78
 1242 04c0 00C0      		rjmp .L84
 1243               	.L80:
 1244               	.LM144:
 1245 04c2 C701      		movw r24,r14
 1246 04c4 B601      		movw r22,r12
 1247 04c6 2AE0      		ldi r18,lo8(10)
 1248 04c8 30E0      		ldi r19,hi8(10)
 1249 04ca 40E0      		ldi r20,hlo8(10)
 1250 04cc 50E0      		ldi r21,hhi8(10)
 1251 04ce 0E94 0000 		call __udivmodsi4
 1252 04d2 162F      		mov r17,r22
 1253               	.LM145:
 1254 04d4 C701      		movw r24,r14
 1255 04d6 B601      		movw r22,r12
 1256 04d8 2AE0      		ldi r18,lo8(10)
 1257 04da 30E0      		ldi r19,hi8(10)
 1258 04dc 40E0      		ldi r20,hlo8(10)
 1259 04de 50E0      		ldi r21,hhi8(10)
 1260 04e0 0E94 0000 		call __udivmodsi4
 1261 04e4 C901      		movw r24,r18
 1262 04e6 DA01      		movw r26,r20
 1263 04e8 6C01      		movw r12,r24
 1264 04ea 7D01      		movw r14,r26
 1265               	.LM146:
 1266 04ec 812F      		mov r24,r17
 1267 04ee 805D      		subi r24,lo8(-(48))
 1268 04f0 0E94 0000 		call lcd_char
 1269               	.LVL95:
 1270               	.L84:
 1271               	.LM147:
 1272 04f4 C114      		cp r12,__zero_reg__
 1273 04f6 D104      		cpc r13,__zero_reg__
 1274 04f8 E104      		cpc r14,__zero_reg__
 1275 04fa F104      		cpc r15,__zero_reg__
 1276 04fc 01F4      		brne .L80
 1277 04fe 00C0      		rjmp .L85
 1278               	.L82:
 1279               	.LM148:
 1280 0500 80E3      		ldi r24,lo8(48)
 1281 0502 0E94 0000 		call lcd_char
 1282               	.LM149:
 1283 0506 2197      		sbiw r28,1
 1284               	.LVL96:
 1285               	.L85:
 1286               	.LM150:
 1287 0508 2097      		sbiw r28,0
 1288 050a 01F4      		brne .L82
 1289               	/* epilogue start */
 1290               	.LM151:
 1291 050c DF91      		pop r29
 1292 050e CF91      		pop r28
 1293               	.LVL97:
 1294 0510 1F91      		pop r17
 1295 0512 FF90      		pop r15
 1296 0514 EF90      		pop r14
 1297 0516 DF90      		pop r13
 1298 0518 CF90      		pop r12
 1299               	.LVL98:
 1300 051a BF90      		pop r11
 1301 051c AF90      		pop r10
 1302 051e 9F90      		pop r9
 1303 0520 8F90      		pop r8
 1304               	.LVL99:
 1305 0522 0895      		ret
 1306               	.LFE17:
 1308               	.global	lcd_gotoxy1
 1310               	lcd_gotoxy1:
 1311               	.LFB19:
 1312               	.LM152:
 1313               	.LVL100:
 1314               	/* prologue: function */
 1315               	/* frame size = 0 */
 1316               	.LM153:
 1317 0524 8058      		subi r24,lo8(-(-128))
 1318               	.LVL101:
 1319 0526 0E94 0000 		call lcd_cmd
 1320               	/* epilogue start */
 1321               	.LM154:
 1322 052a 0895      		ret
 1323               	.LFE19:
 1325               	.global	lcd_gotoxy2
 1327               	lcd_gotoxy2:
 1328               	.LFB20:
 1329               	.LM155:
 1330               	.LVL102:
 1331               	/* prologue: function */
 1332               	/* frame size = 0 */
 1333               	.LM156:
 1334 052c 8054      		subi r24,lo8(-(-64))
 1335               	.LVL103:
 1336 052e 0E94 0000 		call lcd_cmd
 1337               	/* epilogue start */
 1338               	.LM157:
 1339 0532 0895      		ret
 1340               	.LFE20:
 1342               	.global	lcd_showvalueh
 1344               	lcd_showvalueh:
 1345               	.LFB21:
 1346               	.LM158:
 1347               	.LVL104:
 1348 0534 EF92      		push r14
 1349 0536 FF92      		push r15
 1350 0538 0F93      		push r16
 1351 053a 1F93      		push r17
 1352               	/* prologue: function */
 1353               	/* frame size = 0 */
 1354 053c 8C01      		movw r16,r24
 1355               	.LM159:
 1356 053e 64E6      		ldi r22,lo8(100)
 1357 0540 70E0      		ldi r23,hi8(100)
 1358 0542 0E94 0000 		call __udivmodhi4
 1359               	.LVL105:
 1360 0546 462F      		mov r20,r22
 1361               	.LM160:
 1362 0548 262F      		mov r18,r22
 1363               	.LVL106:
 1364 054a 30E0      		ldi r19,lo8(0)
 1365               	.LVL107:
 1366 054c 8CE9      		ldi r24,lo8(-100)
 1367 054e 9FEF      		ldi r25,hi8(-100)
 1368 0550 289F      		mul r18,r24
 1369 0552 7001      		movw r14,r0
 1370 0554 299F      		mul r18,r25
 1371 0556 F00C      		add r15,r0
 1372 0558 389F      		mul r19,r24
 1373 055a F00C      		add r15,r0
 1374 055c 1124      		clr r1
 1375 055e C701      		movw r24,r14
 1376 0560 800F      		add r24,r16
 1377 0562 911F      		adc r25,r17
 1378 0564 6AE0      		ldi r22,lo8(10)
 1379 0566 70E0      		ldi r23,hi8(10)
 1380 0568 0E94 0000 		call __udivmodhi4
 1381 056c 162F      		mov r17,r22
 1382               	.LM161:
 1383 056e 842F      		mov r24,r20
 1384 0570 805D      		subi r24,lo8(-(48))
 1385 0572 0E94 0000 		call lcd_char
 1386               	.LVL108:
 1387               	.LM162:
 1388 0576 812F      		mov r24,r17
 1389 0578 805D      		subi r24,lo8(-(48))
 1390 057a 0E94 0000 		call lcd_char
 1391               	.LM163:
 1392 057e 005D      		subi r16,lo8(-(48))
 1393               	.LVL109:
 1394 0580 0E0D      		add r16,r14
 1395 0582 86EF      		ldi r24,lo8(-10)
 1396 0584 9FEF      		ldi r25,hi8(-10)
 1397 0586 189F      		mul r17,r24
 1398 0588 602D      		mov r22,r0
 1399 058a 1124      		clr r1
 1400 058c 862F      		mov r24,r22
 1401 058e 800F      		add r24,r16
 1402 0590 0E94 0000 		call lcd_char
 1403               	/* epilogue start */
 1404               	.LM164:
 1405 0594 1F91      		pop r17
 1406 0596 0F91      		pop r16
 1407 0598 FF90      		pop r15
 1408 059a EF90      		pop r14
 1409 059c 0895      		ret
 1410               	.LFE21:
 1412               	.global	lcd_exit
 1414               	lcd_exit:
 1415               	.LFB22:
 1416               	.LM165:
 1417               	/* prologue: function */
 1418               	/* frame size = 0 */
 1419               	.LM166:
 1420 059e 8091 0000 		lds r24,save
 1421 05a2 82B9      		out 34-32,r24
 1422               	/* epilogue start */
 1423               	.LM167:
 1424 05a4 0895      		ret
 1425               	.LFE22:
 1427               	.global	WaitMs
 1429               	WaitMs:
 1430               	.LFB23:
 1431               	.LM168:
 1432               	.LVL110:
 1433               	/* prologue: function */
 1434               	/* frame size = 0 */
 1435 05a6 00C0      		rjmp .L95
 1436               	.LVL111:
 1437               	.L97:
 1438               	.LM169:
 1439 05a8 20E0      		ldi r18,lo8(0)
 1440 05aa 30E0      		ldi r19,hi8(0)
 1441               	.L96:
 1442               	.LM170:
 1443               	/* #APP */
 1444               	 ;  340 "LCD640.h" 1
 1445 05ac 0000      		nop
 1446               	 ;  0 "" 2
 1447               	.LM171:
 1448               	/* #NOAPP */
 1449 05ae 2F5F      		subi r18,lo8(-(1))
 1450 05b0 3F4F      		sbci r19,hi8(-(1))
 1451 05b2 4CE0      		ldi r20,hi8(3276)
 1452 05b4 2C3C      		cpi r18,lo8(3276)
 1453 05b6 3407      		cpc r19,r20
 1454 05b8 01F4      		brne .L96
 1455 05ba 0197      		sbiw r24,1
 1456               	.LVL112:
 1457               	.L95:
 1458               	.LM172:
 1459 05bc 0097      		sbiw r24,0
 1460 05be 01F4      		brne .L97
 1461               	/* epilogue start */
 1462               	.LM173:
 1463 05c0 0895      		ret
 1464               	.LFE23:
 1466               	.global	gameByte
 1468               	gameByte:
 1469               	.LFB24:
 1470               	.LM174:
 1471               	.LVL113:
 1472               	/* prologue: function */
 1473               	/* frame size = 0 */
 1474 05c2 BC01      		movw r22,r24
 1475               	.LBB736:
 1476               	.LBB737:
 1477               	.LBB738:
 1478               	.LBB739:
 1479               	.LM175:
 1480 05c4 84E0      		ldi r24,lo8(4)
 1481               	.LVL114:
 1482               	/* #APP */
 1483               	 ;  83 "c:/winavr-20080610/lib/gcc/../../avr/include/util/delay_basic.h" 1
 1484 05c6 8A95      		1: dec r24
 1485 05c8 01F4      		brne 1b
 1486               	 ;  0 "" 2
 1487               	/* #NOAPP */
 1488 05ca 20E0      		ldi r18,lo8(0)
 1489 05cc 30E0      		ldi r19,hi8(0)
 1490               	.LVL115:
 1491 05ce 40E0      		ldi r20,lo8(0)
 1492 05d0 50E0      		ldi r21,hi8(0)
 1493               	.LVL116:
 1494               	.LBE739:
 1495               	.LBE738:
 1496               	.LBE737:
 1497               	.LBE736:
 1498               	.LBB740:
 1499               	.LBB741:
 1500               	.LBB742:
 1501               	.LBB743:
 1502 05d2 A4E0      		ldi r26,lo8(4)
 1503               	.LBE743:
 1504               	.LBE742:
 1505               	.LBE741:
 1506               	.LBE740:
 1507               	.LM176:
 1508 05d4 E1E0      		ldi r30,lo8(1)
 1509 05d6 F0E0      		ldi r31,hi8(1)
 1510               	.LVL117:
 1511               	.L104:
 1512               	.LM177:
 1513 05d8 CB01      		movw r24,r22
 1514               	.LVL118:
 1515 05da 022E      		mov r0,r18
 1516 05dc 00C0      		rjmp 2f
 1517 05de 9595      	1:	asr r25
 1518 05e0 8795      		ror r24
 1519 05e2 0A94      	2:	dec r0
 1520 05e4 02F4      		brpl 1b
 1521 05e6 80FF      		sbrs r24,0
 1522 05e8 00C0      		rjmp .L101
 1523               	.LM178:
 1524 05ea 5B9A      		sbi 43-32,3
 1525 05ec 00C0      		rjmp .L102
 1526               	.L101:
 1527               	.LM179:
 1528 05ee 5B98      		cbi 43-32,3
 1529               	.L102:
 1530               	.LM180:
 1531 05f0 5898      		cbi 43-32,0
 1532               	.LBB747:
 1533               	.LBB746:
 1534               	.LBB745:
 1535               	.LBB744:
 1536               	.LM181:
 1537 05f2 8A2F      		mov r24,r26
 1538               	.LVL119:
 1539               	/* #APP */
 1540               	 ;  83 "c:/winavr-20080610/lib/gcc/../../avr/include/util/delay_basic.h" 1
 1541 05f4 8A95      		1: dec r24
 1542 05f6 01F4      		brne 1b
 1543               	 ;  0 "" 2
 1544               	/* #NOAPP */
 1545               	.LBE744:
 1546               	.LBE745:
 1547               	.LBE746:
 1548               	.LBE747:
 1549               	.LM182:
 1550 05f8 499B      		sbis 41-32,1
 1551 05fa 00C0      		rjmp .L103
 1552               	.LM183:
 1553 05fc CF01      		movw r24,r30
 1554               	.LVL120:
 1555 05fe 022E      		mov r0,r18
 1556 0600 00C0      		rjmp 2f
 1557 0602 880F      	1:	lsl r24
 1558 0604 991F      		rol r25
 1559 0606 0A94      	2:	dec r0
 1560 0608 02F4      		brpl 1b
 1561 060a 482B      		or r20,r24
 1562 060c 592B      		or r21,r25
 1563               	.LVL121:
 1564               	.L103:
 1565               	.LM184:
 1566 060e 589A      		sbi 43-32,0
 1567               	.LM185:
 1568 0610 2F5F      		subi r18,lo8(-(1))
 1569 0612 3F4F      		sbci r19,hi8(-(1))
 1570 0614 2830      		cpi r18,8
 1571 0616 3105      		cpc r19,__zero_reg__
 1572 0618 01F4      		brne .L104
 1573               	.LM186:
 1574 061a 5B9A      		sbi 43-32,3
 1575               	.LBB748:
 1576               	.LBB749:
 1577               	.LBB750:
 1578               	.LBB751:
 1579               	.LM187:
 1580 061c 82E6      		ldi r24,lo8(98)
 1581               	.LVL122:
 1582               	/* #APP */
 1583               	 ;  83 "c:/winavr-20080610/lib/gcc/../../avr/include/util/delay_basic.h" 1
 1584 061e 8A95      		1: dec r24
 1585 0620 01F4      		brne 1b
 1586               	 ;  0 "" 2
 1587               	/* #NOAPP */
 1588               	.LBE751:
 1589               	.LBE750:
 1590               	.LBE749:
 1591               	.LBE748:
 1592               	.LM188:
 1593 0622 CA01      		movw r24,r20
 1594               	.LVL123:
 1595               	/* epilogue start */
 1596 0624 0895      		ret
 1597               	.LFE24:
 1599               	.global	joystick_config
 1601               	joystick_config:
 1602               	.LFB25:
 1603               	.LM189:
 1604 0626 EF92      		push r14
 1605 0628 FF92      		push r15
 1606 062a 0F93      		push r16
 1607 062c 1F93      		push r17
 1608               	/* prologue: function */
 1609               	/* frame size = 0 */
 1610               	.LM190:
 1611 062e 5B9A      		sbi 43-32,3
 1612               	.LM191:
 1613 0630 589A      		sbi 43-32,0
 1614               	.LM192:
 1615 0632 5C98      		cbi 43-32,4
 1616               	.LM193:
 1617 0634 81E0      		ldi r24,lo8(1)
 1618 0636 90E0      		ldi r25,hi8(1)
 1619 0638 0E94 0000 		call gameByte
 1620               	.LM194:
 1621 063c 83E4      		ldi r24,lo8(67)
 1622 063e 90E0      		ldi r25,hi8(67)
 1623 0640 0E94 0000 		call gameByte
 1624               	.LM195:
 1625 0644 80E0      		ldi r24,lo8(0)
 1626 0646 90E0      		ldi r25,hi8(0)
 1627 0648 0E94 0000 		call gameByte
 1628               	.LM196:
 1629 064c 81E0      		ldi r24,lo8(1)
 1630 064e 90E0      		ldi r25,hi8(1)
 1631 0650 0E94 0000 		call gameByte
 1632               	.LM197:
 1633 0654 80E0      		ldi r24,lo8(0)
 1634 0656 90E0      		ldi r25,hi8(0)
 1635 0658 0E94 0000 		call gameByte
 1636               	.LM198:
 1637 065c 5B9A      		sbi 43-32,3
 1638               	.LBB752:
 1639               	.LBB753:
 1640               	.LBB754:
 1641               	.LBB755:
 1642               	.LM199:
 1643 065e 76E6      		ldi r23,lo8(3686)
 1644 0660 E72E      		mov r14,r23
 1645 0662 7EE0      		ldi r23,hi8(3686)
 1646 0664 F72E      		mov r15,r23
 1647 0666 C701      		movw r24,r14
 1648               	.LVL124:
 1649               	/* #APP */
 1650               	 ;  105 "c:/winavr-20080610/lib/gcc/../../avr/include/util/delay_basic.h" 1
 1651 0668 0197      		1: sbiw r24,1
 1652 066a 01F4      		brne 1b
 1653               	 ;  0 "" 2
 1654               	/* #NOAPP */
 1655               	.LBE755:
 1656               	.LBE754:
 1657               	.LBE753:
 1658               	.LBE752:
 1659               	.LM200:
 1660 066c 5C9A      		sbi 43-32,4
 1661               	.LBB756:
 1662               	.LBB757:
 1663               	.LBB758:
 1664               	.LBB759:
 1665               	.LM201:
 1666 066e 00E0      		ldi r16,lo8(-28672)
 1667 0670 10E9      		ldi r17,hi8(-28672)
 1668 0672 C801      		movw r24,r16
 1669               	.LVL125:
 1670               	/* #APP */
 1671               	 ;  105 "c:/winavr-20080610/lib/gcc/../../avr/include/util/delay_basic.h" 1
 1672 0674 0197      		1: sbiw r24,1
 1673 0676 01F4      		brne 1b
 1674               	 ;  0 "" 2
 1675               	/* #NOAPP */
 1676               	.LBE759:
 1677               	.LBE758:
 1678               	.LBE757:
 1679               	.LBE756:
 1680               	.LM202:
 1681 0678 5B9A      		sbi 43-32,3
 1682               	.LM203:
 1683 067a 589A      		sbi 43-32,0
 1684               	.LM204:
 1685 067c 5C98      		cbi 43-32,4
 1686               	.LM205:
 1687 067e 81E0      		ldi r24,lo8(1)
 1688 0680 90E0      		ldi r25,hi8(1)
 1689               	.LVL126:
 1690 0682 0E94 0000 		call gameByte
 1691               	.LM206:
 1692 0686 84E4      		ldi r24,lo8(68)
 1693 0688 90E0      		ldi r25,hi8(68)
 1694 068a 0E94 0000 		call gameByte
 1695               	.LM207:
 1696 068e 80E0      		ldi r24,lo8(0)
 1697 0690 90E0      		ldi r25,hi8(0)
 1698 0692 0E94 0000 		call gameByte
 1699               	.LM208:
 1700 0696 81E0      		ldi r24,lo8(1)
 1701 0698 90E0      		ldi r25,hi8(1)
 1702 069a 0E94 0000 		call gameByte
 1703               	.LM209:
 1704 069e 83E0      		ldi r24,lo8(3)
 1705 06a0 90E0      		ldi r25,hi8(3)
 1706 06a2 0E94 0000 		call gameByte
 1707               	.LM210:
 1708 06a6 80E0      		ldi r24,lo8(0)
 1709 06a8 90E0      		ldi r25,hi8(0)
 1710 06aa 0E94 0000 		call gameByte
 1711               	.LM211:
 1712 06ae 80E0      		ldi r24,lo8(0)
 1713 06b0 90E0      		ldi r25,hi8(0)
 1714 06b2 0E94 0000 		call gameByte
 1715               	.LM212:
 1716 06b6 80E0      		ldi r24,lo8(0)
 1717 06b8 90E0      		ldi r25,hi8(0)
 1718 06ba 0E94 0000 		call gameByte
 1719               	.LM213:
 1720 06be 80E0      		ldi r24,lo8(0)
 1721 06c0 90E0      		ldi r25,hi8(0)
 1722 06c2 0E94 0000 		call gameByte
 1723               	.LM214:
 1724 06c6 5B9A      		sbi 43-32,3
 1725               	.LBB760:
 1726               	.LBB761:
 1727               	.LBB762:
 1728               	.LBB763:
 1729               	.LM215:
 1730 06c8 C701      		movw r24,r14
 1731               	.LVL127:
 1732               	/* #APP */
 1733               	 ;  105 "c:/winavr-20080610/lib/gcc/../../avr/include/util/delay_basic.h" 1
 1734 06ca 0197      		1: sbiw r24,1
 1735 06cc 01F4      		brne 1b
 1736               	 ;  0 "" 2
 1737               	/* #NOAPP */
 1738               	.LBE763:
 1739               	.LBE762:
 1740               	.LBE761:
 1741               	.LBE760:
 1742               	.LM216:
 1743 06ce 5C9A      		sbi 43-32,4
 1744               	.LBB764:
 1745               	.LBB765:
 1746               	.LBB766:
 1747               	.LBB767:
 1748               	.LM217:
 1749 06d0 C801      		movw r24,r16
 1750               	.LVL128:
 1751               	/* #APP */
 1752               	 ;  105 "c:/winavr-20080610/lib/gcc/../../avr/include/util/delay_basic.h" 1
 1753 06d2 0197      		1: sbiw r24,1
 1754 06d4 01F4      		brne 1b
 1755               	 ;  0 "" 2
 1756               	/* #NOAPP */
 1757               	.LBE767:
 1758               	.LBE766:
 1759               	.LBE765:
 1760               	.LBE764:
 1761               	.LM218:
 1762 06d6 5B9A      		sbi 43-32,3
 1763               	.LM219:
 1764 06d8 589A      		sbi 43-32,0
 1765               	.LM220:
 1766 06da 5C98      		cbi 43-32,4
 1767               	.LM221:
 1768 06dc 81E0      		ldi r24,lo8(1)
 1769 06de 90E0      		ldi r25,hi8(1)
 1770               	.LVL129:
 1771 06e0 0E94 0000 		call gameByte
 1772               	.LM222:
 1773 06e4 83E4      		ldi r24,lo8(67)
 1774 06e6 90E0      		ldi r25,hi8(67)
 1775 06e8 0E94 0000 		call gameByte
 1776               	.LM223:
 1777 06ec 80E0      		ldi r24,lo8(0)
 1778 06ee 90E0      		ldi r25,hi8(0)
 1779 06f0 0E94 0000 		call gameByte
 1780               	.LM224:
 1781 06f4 80E0      		ldi r24,lo8(0)
 1782 06f6 90E0      		ldi r25,hi8(0)
 1783 06f8 0E94 0000 		call gameByte
 1784               	.LM225:
 1785 06fc 8AE5      		ldi r24,lo8(90)
 1786 06fe 90E0      		ldi r25,hi8(90)
 1787 0700 0E94 0000 		call gameByte
 1788               	.LM226:
 1789 0704 8AE5      		ldi r24,lo8(90)
 1790 0706 90E0      		ldi r25,hi8(90)
 1791 0708 0E94 0000 		call gameByte
 1792               	.LM227:
 1793 070c 8AE5      		ldi r24,lo8(90)
 1794 070e 90E0      		ldi r25,hi8(90)
 1795 0710 0E94 0000 		call gameByte
 1796               	.LM228:
 1797 0714 8AE5      		ldi r24,lo8(90)
 1798 0716 90E0      		ldi r25,hi8(90)
 1799 0718 0E94 0000 		call gameByte
 1800               	.LM229:
 1801 071c 8AE5      		ldi r24,lo8(90)
 1802 071e 90E0      		ldi r25,hi8(90)
 1803 0720 0E94 0000 		call gameByte
 1804               	.LM230:
 1805 0724 5B9A      		sbi 43-32,3
 1806               	.LBB768:
 1807               	.LBB769:
 1808               	.LBB770:
 1809               	.LBB771:
 1810               	.LM231:
 1811 0726 C701      		movw r24,r14
 1812               	.LVL130:
 1813               	/* #APP */
 1814               	 ;  105 "c:/winavr-20080610/lib/gcc/../../avr/include/util/delay_basic.h" 1
 1815 0728 0197      		1: sbiw r24,1
 1816 072a 01F4      		brne 1b
 1817               	 ;  0 "" 2
 1818               	/* #NOAPP */
 1819               	.LBE771:
 1820               	.LBE770:
 1821               	.LBE769:
 1822               	.LBE768:
 1823               	.LM232:
 1824 072c 5C9A      		sbi 43-32,4
 1825               	.LBB772:
 1826               	.LBB773:
 1827               	.LBB774:
 1828               	.LBB775:
 1829               	.LM233:
 1830 072e C801      		movw r24,r16
 1831               	.LVL131:
 1832               	/* #APP */
 1833               	 ;  105 "c:/winavr-20080610/lib/gcc/../../avr/include/util/delay_basic.h" 1
 1834 0730 0197      		1: sbiw r24,1
 1835 0732 01F4      		brne 1b
 1836               	 ;  0 "" 2
 1837               	/* #NOAPP */
 1838               	.LBE775:
 1839               	.LBE774:
 1840               	.LBE773:
 1841               	.LBE772:
 1842               	.LM234:
 1843 0734 5B9A      		sbi 43-32,3
 1844               	.LM235:
 1845 0736 589A      		sbi 43-32,0
 1846               	.LM236:
 1847 0738 5C98      		cbi 43-32,4
 1848               	.LM237:
 1849 073a 81E0      		ldi r24,lo8(1)
 1850 073c 90E0      		ldi r25,hi8(1)
 1851               	.LVL132:
 1852 073e 0E94 0000 		call gameByte
 1853               	.LM238:
 1854 0742 82E4      		ldi r24,lo8(66)
 1855 0744 90E0      		ldi r25,hi8(66)
 1856 0746 0E94 0000 		call gameByte
 1857 074a 8093 0000 		sts chk_ana,r24
 1858               	.LM239:
 1859 074e 80E0      		ldi r24,lo8(0)
 1860 0750 90E0      		ldi r25,hi8(0)
 1861 0752 0E94 0000 		call gameByte
 1862               	.LM240:
 1863 0756 80E0      		ldi r24,lo8(0)
 1864 0758 90E0      		ldi r25,hi8(0)
 1865 075a 0E94 0000 		call gameByte
 1866               	.LM241:
 1867 075e 80E0      		ldi r24,lo8(0)
 1868 0760 90E0      		ldi r25,hi8(0)
 1869 0762 0E94 0000 		call gameByte
 1870               	.LM242:
 1871 0766 80E0      		ldi r24,lo8(0)
 1872 0768 90E0      		ldi r25,hi8(0)
 1873 076a 0E94 0000 		call gameByte
 1874               	.LM243:
 1875 076e 80E0      		ldi r24,lo8(0)
 1876 0770 90E0      		ldi r25,hi8(0)
 1877 0772 0E94 0000 		call gameByte
 1878               	.LM244:
 1879 0776 80E0      		ldi r24,lo8(0)
 1880 0778 90E0      		ldi r25,hi8(0)
 1881 077a 0E94 0000 		call gameByte
 1882               	.LM245:
 1883 077e 80E0      		ldi r24,lo8(0)
 1884 0780 90E0      		ldi r25,hi8(0)
 1885 0782 0E94 0000 		call gameByte
 1886               	.LM246:
 1887 0786 5B9A      		sbi 43-32,3
 1888               	.LBB776:
 1889               	.LBB777:
 1890               	.LBB778:
 1891               	.LBB779:
 1892               	.LM247:
 1893 0788 C701      		movw r24,r14
 1894               	.LVL133:
 1895               	/* #APP */
 1896               	 ;  105 "c:/winavr-20080610/lib/gcc/../../avr/include/util/delay_basic.h" 1
 1897 078a 0197      		1: sbiw r24,1
 1898 078c 01F4      		brne 1b
 1899               	 ;  0 "" 2
 1900               	/* #NOAPP */
 1901               	.LBE779:
 1902               	.LBE778:
 1903               	.LBE777:
 1904               	.LBE776:
 1905               	.LM248:
 1906 078e 5C9A      		sbi 43-32,4
 1907               	.LBB780:
 1908               	.LBB781:
 1909               	.LBB782:
 1910               	.LBB783:
 1911               	.LM249:
 1912 0790 C801      		movw r24,r16
 1913               	.LVL134:
 1914               	/* #APP */
 1915               	 ;  105 "c:/winavr-20080610/lib/gcc/../../avr/include/util/delay_basic.h" 1
 1916 0792 0197      		1: sbiw r24,1
 1917 0794 01F4      		brne 1b
 1918               	 ;  0 "" 2
 1919               	/* epilogue start */
 1920               	/* #NOAPP */
 1921               	.LBE783:
 1922               	.LBE782:
 1923               	.LBE781:
 1924               	.LBE780:
 1925               	.LM250:
 1926 0796 1F91      		pop r17
 1927 0798 0F91      		pop r16
 1928 079a FF90      		pop r15
 1929 079c EF90      		pop r14
 1930 079e 0895      		ret
 1931               	.LFE25:
 1933               	.global	ps2_init
 1935               	ps2_init:
 1936               	.LFB26:
 1937               	.LM251:
 1938               	/* prologue: function */
 1939               	/* frame size = 0 */
 1940               	.LM252:
 1941 07a0 509A      		sbi 42-32,0
 1942               	.LM253:
 1943 07a2 5198      		cbi 42-32,1
 1944               	.LM254:
 1945 07a4 599A      		sbi 43-32,1
 1946               	.LM255:
 1947 07a6 5298      		cbi 42-32,2
 1948               	.LM256:
 1949 07a8 5A9A      		sbi 43-32,2
 1950               	.LM257:
 1951 07aa 539A      		sbi 42-32,3
 1952               	.LM258:
 1953 07ac 549A      		sbi 42-32,4
 1954               	/* epilogue start */
 1955               	.LM259:
 1956 07ae 0895      		ret
 1957               	.LFE26:
 1959               	.global	joystick_poll
 1961               	joystick_poll:
 1962               	.LFB27:
 1963               	.LM260:
 1964               	/* prologue: function */
 1965               	/* frame size = 0 */
 1966               	.LM261:
 1967 07b0 5B9A      		sbi 43-32,3
 1968               	.LM262:
 1969 07b2 589A      		sbi 43-32,0
 1970               	.LM263:
 1971 07b4 5C98      		cbi 43-32,4
 1972               	.LM264:
 1973 07b6 81E0      		ldi r24,lo8(1)
 1974 07b8 90E0      		ldi r25,hi8(1)
 1975 07ba 0E94 0000 		call gameByte
 1976               	.LM265:
 1977 07be 82E4      		ldi r24,lo8(66)
 1978 07c0 90E0      		ldi r25,hi8(66)
 1979 07c2 0E94 0000 		call gameByte
 1980 07c6 9093 0000 		sts (temp)+1,r25
 1981 07ca 8093 0000 		sts temp,r24
 1982               	.LM266:
 1983 07ce 80E0      		ldi r24,lo8(0)
 1984 07d0 90E0      		ldi r25,hi8(0)
 1985 07d2 0E94 0000 		call gameByte
 1986               	.LM267:
 1987 07d6 80E0      		ldi r24,lo8(0)
 1988 07d8 90E0      		ldi r25,hi8(0)
 1989 07da 0E94 0000 		call gameByte
 1990 07de 9093 0000 		sts (data0)+1,r25
 1991 07e2 8093 0000 		sts data0,r24
 1992               	.LM268:
 1993 07e6 80E0      		ldi r24,lo8(0)
 1994 07e8 90E0      		ldi r25,hi8(0)
 1995 07ea 0E94 0000 		call gameByte
 1996 07ee 9093 0000 		sts (data1)+1,r25
 1997 07f2 8093 0000 		sts data1,r24
 1998               	.LM269:
 1999 07f6 80E0      		ldi r24,lo8(0)
 2000 07f8 90E0      		ldi r25,hi8(0)
 2001 07fa 0E94 0000 		call gameByte
 2002 07fe 9093 0000 		sts (data2)+1,r25
 2003 0802 8093 0000 		sts data2,r24
 2004               	.LM270:
 2005 0806 80E0      		ldi r24,lo8(0)
 2006 0808 90E0      		ldi r25,hi8(0)
 2007 080a 0E94 0000 		call gameByte
 2008 080e 9093 0000 		sts (data3)+1,r25
 2009 0812 8093 0000 		sts data3,r24
 2010               	.LM271:
 2011 0816 80E0      		ldi r24,lo8(0)
 2012 0818 90E0      		ldi r25,hi8(0)
 2013 081a 0E94 0000 		call gameByte
 2014 081e 9093 0000 		sts (data4)+1,r25
 2015 0822 8093 0000 		sts data4,r24
 2016               	.LM272:
 2017 0826 80E0      		ldi r24,lo8(0)
 2018 0828 90E0      		ldi r25,hi8(0)
 2019 082a 0E94 0000 		call gameByte
 2020 082e 9093 0000 		sts (data5)+1,r25
 2021 0832 8093 0000 		sts data5,r24
 2022               	.LBB784:
 2023               	.LBB785:
 2024               	.LBB786:
 2025               	.LBB787:
 2026               	.LM273:
 2027 0836 84E0      		ldi r24,lo8(4)
 2028 0838 982F      		mov r25,r24
 2029               	.LVL135:
 2030               	/* #APP */
 2031               	 ;  83 "c:/winavr-20080610/lib/gcc/../../avr/include/util/delay_basic.h" 1
 2032 083a 9A95      		1: dec r25
 2033 083c 01F4      		brne 1b
 2034               	 ;  0 "" 2
 2035               	/* #NOAPP */
 2036               	.LBE787:
 2037               	.LBE786:
 2038               	.LBE785:
 2039               	.LBE784:
 2040               	.LM274:
 2041 083e 5B9A      		sbi 43-32,3
 2042               	.LBB788:
 2043               	.LBB789:
 2044               	.LBB790:
 2045               	.LBB791:
 2046               	.LM275:
 2047               	/* #APP */
 2048               	 ;  83 "c:/winavr-20080610/lib/gcc/../../avr/include/util/delay_basic.h" 1
 2049 0840 8A95      		1: dec r24
 2050 0842 01F4      		brne 1b
 2051               	 ;  0 "" 2
 2052               	.LVL136:
 2053               	/* #NOAPP */
 2054               	.LBE791:
 2055               	.LBE790:
 2056               	.LBE789:
 2057               	.LBE788:
 2058               	.LM276:
 2059 0844 5C9A      		sbi 43-32,4
 2060               	/* epilogue start */
 2061               	.LM277:
 2062 0846 0895      		ret
 2063               	.LFE27:
 2065               	.global	port_init
 2067               	port_init:
 2068               	.LFB29:
 2069               	.LM278:
 2070               	/* prologue: function */
 2071               	/* frame size = 0 */
 2072               	.LM279:
 2073 0848 8FEF      		ldi r24,lo8(-1)
 2074 084a 8DB9      		out 45-32,r24
 2075               	.LM280:
 2076 084c 8093 0101 		sts 257,r24
 2077               	.LM281:
 2078 0850 EAE0      		ldi r30,lo8(266)
 2079 0852 F1E0      		ldi r31,hi8(266)
 2080 0854 8083      		st Z,r24
 2081               	.LM282:
 2082 0856 83BB      		out 51-32,r24
 2083               	.LM283:
 2084 0858 8093 0401 		sts 260,r24
 2085               	.LM284:
 2086 085c 1092 0501 		sts 261,__zero_reg__
 2087               	.LM285:
 2088 0860 10BA      		out 48-32,__zero_reg__
 2089               	.LM286:
 2090 0862 81B9      		out 33-32,r24
 2091               	.LM287:
 2092 0864 12B8      		out 34-32,__zero_reg__
 2093               	.LM288:
 2094 0866 1082      		st Z,__zero_reg__
 2095               	.LM289:
 2096 0868 8093 0B01 		sts 267,r24
 2097               	.LM290:
 2098 086c 14B8      		out 36-32,__zero_reg__
 2099               	.LM291:
 2100 086e 85B9      		out 37-32,r24
 2101               	.LM292:
 2102 0870 17B8      		out 39-32,__zero_reg__
 2103               	.LM293:
 2104 0872 88B9      		out 40-32,r24
 2105               	/* epilogue start */
 2106               	.LM294:
 2107 0874 0895      		ret
 2108               	.LFE29:
 2110               	.global	adc_init
 2112               	adc_init:
 2113               	.LFB40:
 2114               	.LM295:
 2115               	/* prologue: function */
 2116               	/* frame size = 0 */
 2117               	.LM296:
 2118 0876 EAE7      		ldi r30,lo8(122)
 2119 0878 F0E0      		ldi r31,hi8(122)
 2120 087a 8081      		ld r24,Z
 2121 087c 8768      		ori r24,lo8(-121)
 2122 087e 8083      		st Z,r24
 2123               	.LM297:
 2124 0880 ECE7      		ldi r30,lo8(124)
 2125 0882 F0E0      		ldi r31,hi8(124)
 2126 0884 8081      		ld r24,Z
 2127 0886 8160      		ori r24,lo8(1)
 2128 0888 8083      		st Z,r24
 2129               	/* epilogue start */
 2130               	.LM298:
 2131 088a 0895      		ret
 2132               	.LFE40:
 2134               	.global	poll_adc
 2136               	poll_adc:
 2137               	.LFB41:
 2138               	.LM299:
 2139               	/* prologue: function */
 2140               	/* frame size = 0 */
 2141               	.LM300:
 2142 088c 8091 7A00 		lds r24,122
 2143 0890 8064      		ori r24,lo8(64)
 2144 0892 8093 7A00 		sts 122,r24
 2145               	.L118:
 2146               	.LM301:
 2147 0896 8091 7A00 		lds r24,122
 2148 089a 84FF      		sbrs r24,4
 2149 089c 00C0      		rjmp .L118
 2150               	.LM302:
 2151 089e 8091 7800 		lds r24,120
 2152 08a2 90E0      		ldi r25,lo8(0)
 2153 08a4 9093 0000 		sts (x1)+1,r25
 2154 08a8 8093 0000 		sts x1,r24
 2155               	.LM303:
 2156 08ac 4091 7900 		lds r20,121
 2157               	.LM304:
 2158 08b0 342F      		mov r19,r20
 2159 08b2 20E0      		ldi r18,lo8(0)
 2160 08b4 282B      		or r18,r24
 2161 08b6 392B      		or r19,r25
 2162 08b8 3093 0000 		sts (temp)+1,r19
 2163 08bc 2093 0000 		sts temp,r18
 2164               	.LBB792:
 2165               	.LBB793:
 2166               	.LBB794:
 2167               	.LBB795:
 2168               	.LM305:
 2169 08c0 84EC      		ldi r24,lo8(-60)
 2170               	.LVL137:
 2171               	/* #APP */
 2172               	 ;  83 "c:/winavr-20080610/lib/gcc/../../avr/include/util/delay_basic.h" 1
 2173 08c2 8A95      		1: dec r24
 2174 08c4 01F4      		brne 1b
 2175               	 ;  0 "" 2
 2176               	/* #NOAPP */
 2177               	.LBE795:
 2178               	.LBE794:
 2179               	.LBE793:
 2180               	.LBE792:
 2181               	.LM306:
 2182 08c6 C901      		movw r24,r18
 2183               	.LVL138:
 2184               	/* epilogue start */
 2185 08c8 0895      		ret
 2186               	.LFE41:
 2188               	.global	distance
 2190               	distance:
 2191               	.LFB46:
 2192               	.LM307:
 2193               	/* prologue: function */
 2194               	/* frame size = 0 */
 2195               	.LBB796:
 2196               	.LBB797:
 2197               	.LM308:
 2198 08ca 8091 7A00 		lds r24,122
 2199 08ce 8064      		ori r24,lo8(64)
 2200 08d0 8093 7A00 		sts 122,r24
 2201               	.L122:
 2202               	.LM309:
 2203 08d4 8091 7A00 		lds r24,122
 2204 08d8 84FF      		sbrs r24,4
 2205 08da 00C0      		rjmp .L122
 2206               	.LM310:
 2207 08dc 4091 7800 		lds r20,120
 2208               	.LM311:
 2209 08e0 B091 7900 		lds r27,121
 2210               	.LBB798:
 2211               	.LBB799:
 2212               	.LBB800:
 2213               	.LBB801:
 2214               	.LM312:
 2215 08e4 84EC      		ldi r24,lo8(-60)
 2216               	.LVL139:
 2217               	/* #APP */
 2218               	 ;  83 "c:/winavr-20080610/lib/gcc/../../avr/include/util/delay_basic.h" 1
 2219 08e6 8A95      		1: dec r24
 2220 08e8 01F4      		brne 1b
 2221               	 ;  0 "" 2
 2222               	/* #NOAPP */
 2223               	.LBE801:
 2224               	.LBE800:
 2225               	.LBE799:
 2226               	.LBE798:
 2227               	.LBE797:
 2228               	.LBE796:
 2229               	.LBB802:
 2230               	.LBB803:
 2231               	.LM313:
 2232 08ea 8091 7A00 		lds r24,122
 2233               	.LVL140:
 2234 08ee 8064      		ori r24,lo8(64)
 2235 08f0 8093 7A00 		sts 122,r24
 2236               	.L123:
 2237               	.LM314:
 2238 08f4 8091 7A00 		lds r24,122
 2239 08f8 84FF      		sbrs r24,4
 2240 08fa 00C0      		rjmp .L123
 2241               	.LM315:
 2242 08fc 2091 7800 		lds r18,120
 2243               	.LM316:
 2244 0900 7091 7900 		lds r23,121
 2245               	.LBB804:
 2246               	.LBB805:
 2247               	.LBB806:
 2248               	.LBB807:
 2249               	.LM317:
 2250 0904 84EC      		ldi r24,lo8(-60)
 2251               	.LVL141:
 2252               	/* #APP */
 2253               	 ;  83 "c:/winavr-20080610/lib/gcc/../../avr/include/util/delay_basic.h" 1
 2254 0906 8A95      		1: dec r24
 2255 0908 01F4      		brne 1b
 2256               	 ;  0 "" 2
 2257               	/* #NOAPP */
 2258               	.LBE807:
 2259               	.LBE806:
 2260               	.LBE805:
 2261               	.LBE804:
 2262               	.LBE803:
 2263               	.LBE802:
 2264               	.LBB808:
 2265               	.LBB809:
 2266               	.LM318:
 2267 090a 8091 7A00 		lds r24,122
 2268               	.LVL142:
 2269 090e 8064      		ori r24,lo8(64)
 2270 0910 8093 7A00 		sts 122,r24
 2271               	.L124:
 2272               	.LM319:
 2273 0914 8091 7A00 		lds r24,122
 2274 0918 84FF      		sbrs r24,4
 2275 091a 00C0      		rjmp .L124
 2276               	.LM320:
 2277 091c A091 7800 		lds r26,120
 2278               	.LM321:
 2279 0920 F091 7900 		lds r31,121
 2280               	.LBB810:
 2281               	.LBB811:
 2282               	.LBB812:
 2283               	.LBB813:
 2284               	.LM322:
 2285 0924 84EC      		ldi r24,lo8(-60)
 2286               	.LVL143:
 2287               	/* #APP */
 2288               	 ;  83 "c:/winavr-20080610/lib/gcc/../../avr/include/util/delay_basic.h" 1
 2289 0926 8A95      		1: dec r24
 2290 0928 01F4      		brne 1b
 2291               	 ;  0 "" 2
 2292               	/* #NOAPP */
 2293               	.LBE813:
 2294               	.LBE812:
 2295               	.LBE811:
 2296               	.LBE810:
 2297               	.LBE809:
 2298               	.LBE808:
 2299               	.LBB814:
 2300               	.LBB815:
 2301               	.LM323:
 2302 092a 8091 7A00 		lds r24,122
 2303               	.LVL144:
 2304 092e 8064      		ori r24,lo8(64)
 2305 0930 8093 7A00 		sts 122,r24
 2306               	.L125:
 2307               	.LM324:
 2308 0934 8091 7A00 		lds r24,122
 2309 0938 84FF      		sbrs r24,4
 2310 093a 00C0      		rjmp .L125
 2311               	.LM325:
 2312 093c 6091 7800 		lds r22,120
 2313               	.LM326:
 2314 0940 E091 7900 		lds r30,121
 2315               	.LBB816:
 2316               	.LBB817:
 2317               	.LBB818:
 2318               	.LBB819:
 2319               	.LM327:
 2320 0944 84EC      		ldi r24,lo8(-60)
 2321               	.LVL145:
 2322               	/* #APP */
 2323               	 ;  83 "c:/winavr-20080610/lib/gcc/../../avr/include/util/delay_basic.h" 1
 2324 0946 8A95      		1: dec r24
 2325 0948 01F4      		brne 1b
 2326               	 ;  0 "" 2
 2327               	/* #NOAPP */
 2328               	.LBE819:
 2329               	.LBE818:
 2330               	.LBE817:
 2331               	.LBE816:
 2332               	.LBE815:
 2333               	.LBE814:
 2334               	.LM328:
 2335 094a 972F      		mov r25,r23
 2336 094c 80E0      		ldi r24,lo8(0)
 2337               	.LVL146:
 2338 094e 30E0      		ldi r19,lo8(0)
 2339 0950 822B      		or r24,r18
 2340 0952 932B      		or r25,r19
 2341 0954 3B2F      		mov r19,r27
 2342 0956 20E0      		ldi r18,lo8(0)
 2343 0958 50E0      		ldi r21,lo8(0)
 2344 095a 242B      		or r18,r20
 2345 095c 352B      		or r19,r21
 2346 095e 820F      		add r24,r18
 2347 0960 931F      		adc r25,r19
 2348 0962 3F2F      		mov r19,r31
 2349 0964 20E0      		ldi r18,lo8(0)
 2350 0966 4A2F      		mov r20,r26
 2351 0968 50E0      		ldi r21,lo8(0)
 2352 096a 242B      		or r18,r20
 2353 096c 352B      		or r19,r21
 2354 096e 820F      		add r24,r18
 2355 0970 931F      		adc r25,r19
 2356 0972 3E2F      		mov r19,r30
 2357 0974 20E0      		ldi r18,lo8(0)
 2358 0976 70E0      		ldi r23,lo8(0)
 2359 0978 262B      		or r18,r22
 2360 097a 372B      		or r19,r23
 2361 097c 820F      		add r24,r18
 2362 097e 931F      		adc r25,r19
 2363 0980 64E0      		ldi r22,lo8(4)
 2364 0982 70E0      		ldi r23,hi8(4)
 2365 0984 0E94 0000 		call __divmodhi4
 2366 0988 7093 0000 		sts (a2)+1,r23
 2367 098c 6093 0000 		sts a2,r22
 2368               	.LM329:
 2369 0990 8091 7C00 		lds r24,124
 2370 0994 8E7F      		andi r24,lo8(-2)
 2371 0996 8093 7C00 		sts 124,r24
 2372               	.LM330:
 2373 099a 8091 7C00 		lds r24,124
 2374 099e 8D7F      		andi r24,lo8(-3)
 2375 09a0 8093 7C00 		sts 124,r24
 2376               	.LBB820:
 2377               	.LBB821:
 2378               	.LM331:
 2379 09a4 8091 7A00 		lds r24,122
 2380 09a8 8064      		ori r24,lo8(64)
 2381 09aa 8093 7A00 		sts 122,r24
 2382               	.L126:
 2383               	.LM332:
 2384 09ae 8091 7A00 		lds r24,122
 2385 09b2 84FF      		sbrs r24,4
 2386 09b4 00C0      		rjmp .L126
 2387               	.LM333:
 2388 09b6 4091 7800 		lds r20,120
 2389               	.LM334:
 2390 09ba B091 7900 		lds r27,121
 2391               	.LBB822:
 2392               	.LBB823:
 2393               	.LBB824:
 2394               	.LBB825:
 2395               	.LM335:
 2396 09be 84EC      		ldi r24,lo8(-60)
 2397               	.LVL147:
 2398               	/* #APP */
 2399               	 ;  83 "c:/winavr-20080610/lib/gcc/../../avr/include/util/delay_basic.h" 1
 2400 09c0 8A95      		1: dec r24
 2401 09c2 01F4      		brne 1b
 2402               	 ;  0 "" 2
 2403               	/* #NOAPP */
 2404               	.LBE825:
 2405               	.LBE824:
 2406               	.LBE823:
 2407               	.LBE822:
 2408               	.LBE821:
 2409               	.LBE820:
 2410               	.LBB826:
 2411               	.LBB827:
 2412               	.LM336:
 2413 09c4 8091 7A00 		lds r24,122
 2414               	.LVL148:
 2415 09c8 8064      		ori r24,lo8(64)
 2416 09ca 8093 7A00 		sts 122,r24
 2417               	.L127:
 2418               	.LM337:
 2419 09ce 8091 7A00 		lds r24,122
 2420 09d2 84FF      		sbrs r24,4
 2421 09d4 00C0      		rjmp .L127
 2422               	.LM338:
 2423 09d6 3091 7800 		lds r19,120
 2424               	.LM339:
 2425 09da E091 7900 		lds r30,121
 2426               	.LBB828:
 2427               	.LBB829:
 2428               	.LBB830:
 2429               	.LBB831:
 2430               	.LM340:
 2431 09de 84EC      		ldi r24,lo8(-60)
 2432               	.LVL149:
 2433               	/* #APP */
 2434               	 ;  83 "c:/winavr-20080610/lib/gcc/../../avr/include/util/delay_basic.h" 1
 2435 09e0 8A95      		1: dec r24
 2436 09e2 01F4      		brne 1b
 2437               	 ;  0 "" 2
 2438               	/* #NOAPP */
 2439               	.LBE831:
 2440               	.LBE830:
 2441               	.LBE829:
 2442               	.LBE828:
 2443               	.LBE827:
 2444               	.LBE826:
 2445               	.LBB832:
 2446               	.LBB833:
 2447               	.LM341:
 2448 09e4 8091 7A00 		lds r24,122
 2449               	.LVL150:
 2450 09e8 8064      		ori r24,lo8(64)
 2451 09ea 8093 7A00 		sts 122,r24
 2452               	.L128:
 2453               	.LM342:
 2454 09ee 8091 7A00 		lds r24,122
 2455 09f2 84FF      		sbrs r24,4
 2456 09f4 00C0      		rjmp .L128
 2457               	.LM343:
 2458 09f6 A091 7800 		lds r26,120
 2459               	.LM344:
 2460 09fa F091 7900 		lds r31,121
 2461               	.LBB834:
 2462               	.LBB835:
 2463               	.LBB836:
 2464               	.LBB837:
 2465               	.LM345:
 2466 09fe 84EC      		ldi r24,lo8(-60)
 2467               	.LVL151:
 2468               	/* #APP */
 2469               	 ;  83 "c:/winavr-20080610/lib/gcc/../../avr/include/util/delay_basic.h" 1
 2470 0a00 8A95      		1: dec r24
 2471 0a02 01F4      		brne 1b
 2472               	 ;  0 "" 2
 2473               	/* #NOAPP */
 2474               	.LBE837:
 2475               	.LBE836:
 2476               	.LBE835:
 2477               	.LBE834:
 2478               	.LBE833:
 2479               	.LBE832:
 2480               	.LBB838:
 2481               	.LBB839:
 2482               	.LM346:
 2483 0a04 8091 7A00 		lds r24,122
 2484               	.LVL152:
 2485 0a08 8064      		ori r24,lo8(64)
 2486 0a0a 8093 7A00 		sts 122,r24
 2487               	.L129:
 2488               	.LM347:
 2489 0a0e 8091 7A00 		lds r24,122
 2490 0a12 84FF      		sbrs r24,4
 2491 0a14 00C0      		rjmp .L129
 2492               	.LM348:
 2493 0a16 8091 7800 		lds r24,120
 2494 0a1a 90E0      		ldi r25,lo8(0)
 2495 0a1c 9093 0000 		sts (x1)+1,r25
 2496 0a20 8093 0000 		sts x1,r24
 2497               	.LM349:
 2498 0a24 2091 7900 		lds r18,121
 2499               	.LM350:
 2500 0a28 722F      		mov r23,r18
 2501 0a2a 60E0      		ldi r22,lo8(0)
 2502 0a2c 682B      		or r22,r24
 2503 0a2e 792B      		or r23,r25
 2504 0a30 7093 0000 		sts (temp)+1,r23
 2505 0a34 6093 0000 		sts temp,r22
 2506               	.LBB840:
 2507               	.LBB841:
 2508               	.LBB842:
 2509               	.LBB843:
 2510               	.LM351:
 2511 0a38 84EC      		ldi r24,lo8(-60)
 2512               	.LVL153:
 2513               	/* #APP */
 2514               	 ;  83 "c:/winavr-20080610/lib/gcc/../../avr/include/util/delay_basic.h" 1
 2515 0a3a 8A95      		1: dec r24
 2516 0a3c 01F4      		brne 1b
 2517               	 ;  0 "" 2
 2518               	/* #NOAPP */
 2519               	.LBE843:
 2520               	.LBE842:
 2521               	.LBE841:
 2522               	.LBE840:
 2523               	.LBE839:
 2524               	.LBE838:
 2525               	.LM352:
 2526 0a3e 9E2F      		mov r25,r30
 2527 0a40 80E0      		ldi r24,lo8(0)
 2528               	.LVL154:
 2529 0a42 232F      		mov r18,r19
 2530 0a44 30E0      		ldi r19,lo8(0)
 2531 0a46 822B      		or r24,r18
 2532 0a48 932B      		or r25,r19
 2533 0a4a 3B2F      		mov r19,r27
 2534 0a4c 20E0      		ldi r18,lo8(0)
 2535 0a4e 50E0      		ldi r21,lo8(0)
 2536 0a50 242B      		or r18,r20
 2537 0a52 352B      		or r19,r21
 2538 0a54 820F      		add r24,r18
 2539 0a56 931F      		adc r25,r19
 2540 0a58 3F2F      		mov r19,r31
 2541 0a5a 20E0      		ldi r18,lo8(0)
 2542 0a5c 4A2F      		mov r20,r26
 2543 0a5e 50E0      		ldi r21,lo8(0)
 2544 0a60 242B      		or r18,r20
 2545 0a62 352B      		or r19,r21
 2546 0a64 820F      		add r24,r18
 2547 0a66 931F      		adc r25,r19
 2548 0a68 860F      		add r24,r22
 2549 0a6a 971F      		adc r25,r23
 2550 0a6c 64E0      		ldi r22,lo8(4)
 2551 0a6e 70E0      		ldi r23,hi8(4)
 2552 0a70 0E94 0000 		call __divmodhi4
 2553 0a74 7093 0000 		sts (a1)+1,r23
 2554 0a78 6093 0000 		sts a1,r22
 2555               	.LM353:
 2556 0a7c 8091 7C00 		lds r24,124
 2557 0a80 8160      		ori r24,lo8(1)
 2558 0a82 8093 7C00 		sts 124,r24
 2559               	.LM354:
 2560 0a86 8091 7C00 		lds r24,124
 2561 0a8a 8260      		ori r24,lo8(2)
 2562 0a8c 8093 7C00 		sts 124,r24
 2563               	/* epilogue start */
 2564               	.LM355:
 2565 0a90 0895      		ret
 2566               	.LFE46:
 2568               	.global	lcd_showvaluef
 2570               	lcd_showvaluef:
 2571               	.LFB18:
 2572               	.LM356:
 2573               	.LVL155:
 2574 0a92 EF92      		push r14
 2575 0a94 FF92      		push r15
 2576 0a96 0F93      		push r16
 2577 0a98 1F93      		push r17
 2578 0a9a DF93      		push r29
 2579 0a9c CF93      		push r28
 2580 0a9e 00D0      		rcall .
 2581 0aa0 00D0      		rcall .
 2582 0aa2 CDB7      		in r28,__SP_L__
 2583 0aa4 DEB7      		in r29,__SP_H__
 2584               	/* prologue: function */
 2585               	/* frame size = 4 */
 2586 0aa6 7B01      		movw r14,r22
 2587 0aa8 8C01      		movw r16,r24
 2588               	.LM357:
 2589 0aaa 0E94 0000 		call __fixunssfsi
 2590               	.LVL156:
 2591 0aae 0E94 0000 		call lcd_showvalue
 2592               	.LM358:
 2593 0ab2 AE01      		movw r20,r28
 2594 0ab4 4F5F      		subi r20,lo8(-(1))
 2595 0ab6 5F4F      		sbci r21,hi8(-(1))
 2596 0ab8 C801      		movw r24,r16
 2597 0aba B701      		movw r22,r14
 2598 0abc 0E94 0000 		call modf
 2599 0ac0 7B01      		movw r14,r22
 2600 0ac2 8C01      		movw r16,r24
 2601               	.LVL157:
 2602               	.LM359:
 2603 0ac4 8EE2      		ldi r24,lo8(46)
 2604 0ac6 0E94 0000 		call lcd_char
 2605               	.LM360:
 2606 0aca 20E0      		ldi r18,lo8(0x47c35000)
 2607 0acc 30E5      		ldi r19,hi8(0x47c35000)
 2608 0ace 43EC      		ldi r20,hlo8(0x47c35000)
 2609 0ad0 57E4      		ldi r21,hhi8(0x47c35000)
 2610 0ad2 C801      		movw r24,r16
 2611 0ad4 B701      		movw r22,r14
 2612 0ad6 0E94 0000 		call __mulsf3
 2613 0ada 0E94 0000 		call __fixunssfsi
 2614 0ade 0E94 0000 		call lcd_showvalue
 2615               	/* epilogue start */
 2616               	.LM361:
 2617 0ae2 0F90      		pop __tmp_reg__
 2618 0ae4 0F90      		pop __tmp_reg__
 2619 0ae6 0F90      		pop __tmp_reg__
 2620 0ae8 0F90      		pop __tmp_reg__
 2621 0aea CF91      		pop r28
 2622 0aec DF91      		pop r29
 2623 0aee 1F91      		pop r17
 2624 0af0 0F91      		pop r16
 2625 0af2 FF90      		pop r15
 2626 0af4 EF90      		pop r14
 2627               	.LVL158:
 2628 0af6 0895      		ret
 2629               	.LFE18:
 2631               	.global	PWM
 2633               	PWM:
 2634               	.LFB7:
 2635               	.LM362:
 2636               	.LVL159:
 2637 0af8 0F93      		push r16
 2638 0afa 1F93      		push r17
 2639 0afc CF93      		push r28
 2640 0afe DF93      		push r29
 2641               	/* prologue: function */
 2642               	/* frame size = 0 */
 2643 0b00 162F      		mov r17,r22
 2644 0b02 E901      		movw r28,r18
 2645               	.LM363:
 2646 0b04 90E0      		ldi r25,lo8(0)
 2647 0b06 0E94 0000 		call toupper
 2648               	.LVL160:
 2649 0b0a 082F      		mov r16,r24
 2650               	.LVL161:
 2651               	.LM364:
 2652 0b0c 812F      		mov r24,r17
 2653 0b0e 90E0      		ldi r25,lo8(0)
 2654 0b10 0E94 0000 		call toupper
 2655 0b14 182F      		mov r17,r24
 2656               	.LVL162:
 2657               	.LM365:
 2658 0b16 0133      		cpi r16,lo8(49)
 2659 0b18 01F4      		brne .L142
 2660               	.LM366:
 2661 0b1a 61E3      		ldi r22,lo8(49)
 2662 0b1c CE01      		movw r24,r28
 2663 0b1e 0E94 0000 		call compute_duty_cycle
 2664               	.LM367:
 2665 0b22 1134      		cpi r17,lo8(65)
 2666 0b24 01F4      		brne .L143
 2667               	.LM368:
 2668 0b26 259A      		sbi 36-32,5
 2669               	.LM369:
 2670 0b28 9093 8900 		sts (136)+1,r25
 2671 0b2c 8093 8800 		sts 136,r24
 2672               	.LVL163:
 2673 0b30 00C0      		rjmp .L154
 2674               	.LVL164:
 2675               	.L143:
 2676               	.LM370:
 2677 0b32 1234      		cpi r17,lo8(66)
 2678 0b34 01F4      		brne .L145
 2679               	.LM371:
 2680 0b36 269A      		sbi 36-32,6
 2681               	.LM372:
 2682 0b38 9093 8B00 		sts (138)+1,r25
 2683 0b3c 8093 8A00 		sts 138,r24
 2684               	.LVL165:
 2685 0b40 00C0      		rjmp .L154
 2686               	.LVL166:
 2687               	.L145:
 2688               	.LM373:
 2689 0b42 279A      		sbi 36-32,7
 2690               	.LM374:
 2691 0b44 9093 8D00 		sts (140)+1,r25
 2692 0b48 8093 8C00 		sts 140,r24
 2693               	.LVL167:
 2694 0b4c 00C0      		rjmp .L154
 2695               	.LVL168:
 2696               	.L142:
 2697               	.LM375:
 2698 0b4e 0333      		cpi r16,lo8(51)
 2699 0b50 01F4      		brne .L147
 2700               	.LM376:
 2701 0b52 63E3      		ldi r22,lo8(51)
 2702 0b54 CE01      		movw r24,r28
 2703 0b56 0E94 0000 		call compute_duty_cycle
 2704               	.LM377:
 2705 0b5a 1134      		cpi r17,lo8(65)
 2706 0b5c 01F4      		brne .L148
 2707               	.LM378:
 2708 0b5e 6B9A      		sbi 45-32,3
 2709               	.LM379:
 2710 0b60 9093 9900 		sts (152)+1,r25
 2711 0b64 8093 9800 		sts 152,r24
 2712               	.LVL169:
 2713 0b68 00C0      		rjmp .L154
 2714               	.LVL170:
 2715               	.L148:
 2716               	.LM380:
 2717 0b6a 1234      		cpi r17,lo8(66)
 2718 0b6c 01F4      		brne .L149
 2719               	.LM381:
 2720 0b6e 6C9A      		sbi 45-32,4
 2721               	.LM382:
 2722 0b70 9093 9B00 		sts (154)+1,r25
 2723 0b74 8093 9A00 		sts 154,r24
 2724               	.LVL171:
 2725 0b78 00C0      		rjmp .L154
 2726               	.LVL172:
 2727               	.L149:
 2728               	.LM383:
 2729 0b7a 6D9A      		sbi 45-32,5
 2730               	.LM384:
 2731 0b7c 9093 9D00 		sts (156)+1,r25
 2732 0b80 8093 9C00 		sts 156,r24
 2733               	.LVL173:
 2734 0b84 00C0      		rjmp .L154
 2735               	.LVL174:
 2736               	.L147:
 2737               	.LM385:
 2738 0b86 0433      		cpi r16,lo8(52)
 2739 0b88 01F4      		brne .L146
 2740               	.LM386:
 2741 0b8a 64E3      		ldi r22,lo8(52)
 2742 0b8c CE01      		movw r24,r28
 2743 0b8e 0E94 0000 		call compute_duty_cycle
 2744 0b92 9C01      		movw r18,r24
 2745               	.LVL175:
 2746               	.LM387:
 2747 0b94 1134      		cpi r17,lo8(65)
 2748 0b96 01F4      		brne .L150
 2749               	.LM388:
 2750 0b98 8091 0101 		lds r24,257
 2751 0b9c 8860      		ori r24,lo8(8)
 2752 0b9e 8093 0101 		sts 257,r24
 2753               	.LM389:
 2754 0ba2 3093 A900 		sts (168)+1,r19
 2755 0ba6 2093 A800 		sts 168,r18
 2756 0baa 00C0      		rjmp .L154
 2757               	.L150:
 2758               	.LM390:
 2759 0bac 1234      		cpi r17,lo8(66)
 2760 0bae 01F4      		brne .L151
 2761               	.LM391:
 2762 0bb0 8091 0101 		lds r24,257
 2763 0bb4 8061      		ori r24,lo8(16)
 2764 0bb6 8093 0101 		sts 257,r24
 2765               	.LM392:
 2766 0bba 3093 AB00 		sts (170)+1,r19
 2767 0bbe 2093 AA00 		sts 170,r18
 2768 0bc2 00C0      		rjmp .L154
 2769               	.L151:
 2770               	.LM393:
 2771 0bc4 8091 0101 		lds r24,257
 2772 0bc8 8062      		ori r24,lo8(32)
 2773 0bca 8093 0101 		sts 257,r24
 2774               	.LM394:
 2775 0bce 3093 AD00 		sts (172)+1,r19
 2776 0bd2 2093 AC00 		sts 172,r18
 2777 0bd6 00C0      		rjmp .L154
 2778               	.LVL176:
 2779               	.L146:
 2780               	.LM395:
 2781 0bd8 0533      		cpi r16,lo8(53)
 2782 0bda 01F4      		brne .L154
 2783               	.LM396:
 2784 0bdc 65E3      		ldi r22,lo8(53)
 2785 0bde CE01      		movw r24,r28
 2786 0be0 0E94 0000 		call compute_duty_cycle
 2787 0be4 9C01      		movw r18,r24
 2788               	.LVL177:
 2789               	.LM397:
 2790 0be6 1134      		cpi r17,lo8(65)
 2791 0be8 01F4      		brne .L152
 2792               	.LM398:
 2793 0bea 8091 0A01 		lds r24,266
 2794 0bee 8860      		ori r24,lo8(8)
 2795 0bf0 8093 0A01 		sts 266,r24
 2796               	.LM399:
 2797 0bf4 3093 2901 		sts (296)+1,r19
 2798 0bf8 2093 2801 		sts 296,r18
 2799 0bfc 00C0      		rjmp .L154
 2800               	.L152:
 2801               	.LM400:
 2802 0bfe 1234      		cpi r17,lo8(66)
 2803 0c00 01F4      		brne .L153
 2804               	.LM401:
 2805 0c02 8091 0A01 		lds r24,266
 2806 0c06 8061      		ori r24,lo8(16)
 2807 0c08 8093 0A01 		sts 266,r24
 2808               	.LM402:
 2809 0c0c 3093 2B01 		sts (298)+1,r19
 2810 0c10 2093 2A01 		sts 298,r18
 2811 0c14 00C0      		rjmp .L154
 2812               	.L153:
 2813               	.LM403:
 2814 0c16 8091 0A01 		lds r24,266
 2815 0c1a 8062      		ori r24,lo8(32)
 2816 0c1c 8093 0A01 		sts 266,r24
 2817               	.LM404:
 2818 0c20 3093 2D01 		sts (300)+1,r19
 2819 0c24 2093 2C01 		sts 300,r18
 2820               	.LVL178:
 2821               	.L154:
 2822               	/* epilogue start */
 2823               	.LM405:
 2824 0c28 DF91      		pop r29
 2825 0c2a CF91      		pop r28
 2826               	.LVL179:
 2827 0c2c 1F91      		pop r17
 2828               	.LVL180:
 2829 0c2e 0F91      		pop r16
 2830               	.LVL181:
 2831 0c30 0895      		ret
 2832               	.LFE7:
 2834               	.global	stop2
 2836               	stop2:
 2837               	.LFB39:
 2838               	.LM406:
 2839               	/* prologue: function */
 2840               	/* frame size = 0 */
 2841               	.LM407:
 2842 0c32 20E0      		ldi r18,lo8(0)
 2843 0c34 30E0      		ldi r19,hi8(0)
 2844 0c36 40E1      		ldi r20,lo8(10000)
 2845 0c38 57E2      		ldi r21,hi8(10000)
 2846 0c3a 61E6      		ldi r22,lo8(97)
 2847 0c3c 83E3      		ldi r24,lo8(51)
 2848 0c3e 0E94 0000 		call PWM
 2849               	.LM408:
 2850 0c42 20E0      		ldi r18,lo8(0)
 2851 0c44 30E0      		ldi r19,hi8(0)
 2852 0c46 40E1      		ldi r20,lo8(10000)
 2853 0c48 57E2      		ldi r21,hi8(10000)
 2854 0c4a 62E6      		ldi r22,lo8(98)
 2855 0c4c 83E3      		ldi r24,lo8(51)
 2856 0c4e 0E94 0000 		call PWM
 2857               	.LM409:
 2858 0c52 20E0      		ldi r18,lo8(0)
 2859 0c54 30E0      		ldi r19,hi8(0)
 2860 0c56 40E1      		ldi r20,lo8(10000)
 2861 0c58 57E2      		ldi r21,hi8(10000)
 2862 0c5a 63E6      		ldi r22,lo8(99)
 2863 0c5c 83E3      		ldi r24,lo8(51)
 2864 0c5e 0E94 0000 		call PWM
 2865               	.LM410:
 2866 0c62 20E0      		ldi r18,lo8(0)
 2867 0c64 30E0      		ldi r19,hi8(0)
 2868 0c66 40E1      		ldi r20,lo8(10000)
 2869 0c68 57E2      		ldi r21,hi8(10000)
 2870 0c6a 61E6      		ldi r22,lo8(97)
 2871 0c6c 84E3      		ldi r24,lo8(52)
 2872 0c6e 0E94 0000 		call PWM
 2873               	.LM411:
 2874 0c72 8091 0000 		lds r24,flag
 2875 0c76 9091 0000 		lds r25,(flag)+1
 2876 0c7a 0197      		sbiw r24,1
 2877 0c7c 01F4      		brne .L156
 2878               	.LM412:
 2879 0c7e 8091 0201 		lds r24,258
 2880 0c82 8058      		subi r24,lo8(-(-128))
 2881 0c84 8093 0201 		sts 258,r24
 2882               	.LM413:
 2883 0c88 8091 0201 		lds r24,258
 2884 0c8c 90E4      		ldi r25,lo8(64)
 2885 0c8e 8927      		eor r24,r25
 2886 0c90 8093 0201 		sts 258,r24
 2887               	.LM414:
 2888 0c94 1092 0000 		sts (flag)+1,__zero_reg__
 2889 0c98 1092 0000 		sts flag,__zero_reg__
 2890               	.L156:
 2891               	.LM415:
 2892 0c9c 8091 0000 		lds r24,flagb
 2893 0ca0 9091 0000 		lds r25,(flagb)+1
 2894 0ca4 0197      		sbiw r24,1
 2895 0ca6 01F4      		brne .L158
 2896               	.LM416:
 2897 0ca8 84B3      		in r24,52-32
 2898 0caa 98E0      		ldi r25,lo8(8)
 2899 0cac 8927      		eor r24,r25
 2900 0cae 84BB      		out 52-32,r24
 2901               	.LM417:
 2902 0cb0 84B3      		in r24,52-32
 2903 0cb2 90E1      		ldi r25,lo8(16)
 2904 0cb4 8927      		eor r24,r25
 2905 0cb6 84BB      		out 52-32,r24
 2906               	.LM418:
 2907 0cb8 1092 0000 		sts (flagb)+1,__zero_reg__
 2908 0cbc 1092 0000 		sts flagb,__zero_reg__
 2909               	.L158:
 2910 0cc0 0895      		ret
 2911               	.LFE39:
 2913               	.global	stop1
 2915               	stop1:
 2916               	.LFB38:
 2917               	.LM419:
 2918               	/* prologue: function */
 2919               	/* frame size = 0 */
 2920               	.LM420:
 2921 0cc2 20E0      		ldi r18,lo8(0)
 2922 0cc4 30E0      		ldi r19,hi8(0)
 2923 0cc6 40E1      		ldi r20,lo8(10000)
 2924 0cc8 57E2      		ldi r21,hi8(10000)
 2925 0cca 61E6      		ldi r22,lo8(97)
 2926 0ccc 83E3      		ldi r24,lo8(51)
 2927 0cce 0E94 0000 		call PWM
 2928               	.LM421:
 2929 0cd2 20E0      		ldi r18,lo8(0)
 2930 0cd4 30E0      		ldi r19,hi8(0)
 2931 0cd6 40E1      		ldi r20,lo8(10000)
 2932 0cd8 57E2      		ldi r21,hi8(10000)
 2933 0cda 62E6      		ldi r22,lo8(98)
 2934 0cdc 83E3      		ldi r24,lo8(51)
 2935 0cde 0E94 0000 		call PWM
 2936               	.LM422:
 2937 0ce2 20E0      		ldi r18,lo8(0)
 2938 0ce4 30E0      		ldi r19,hi8(0)
 2939 0ce6 40E1      		ldi r20,lo8(10000)
 2940 0ce8 57E2      		ldi r21,hi8(10000)
 2941 0cea 63E6      		ldi r22,lo8(99)
 2942 0cec 83E3      		ldi r24,lo8(51)
 2943 0cee 0E94 0000 		call PWM
 2944               	.LM423:
 2945 0cf2 20E0      		ldi r18,lo8(0)
 2946 0cf4 30E0      		ldi r19,hi8(0)
 2947 0cf6 40E1      		ldi r20,lo8(10000)
 2948 0cf8 57E2      		ldi r21,hi8(10000)
 2949 0cfa 61E6      		ldi r22,lo8(97)
 2950 0cfc 84E3      		ldi r24,lo8(52)
 2951 0cfe 0E94 0000 		call PWM
 2952               	.LM424:
 2953 0d02 8091 0000 		lds r24,flag
 2954 0d06 9091 0000 		lds r25,(flag)+1
 2955 0d0a 0197      		sbiw r24,1
 2956 0d0c 01F4      		brne .L160
 2957               	.LM425:
 2958 0d0e 1092 0000 		sts (flag)+1,__zero_reg__
 2959 0d12 1092 0000 		sts flag,__zero_reg__
 2960               	.L160:
 2961               	.LM426:
 2962 0d16 8091 0000 		lds r24,flagb
 2963 0d1a 9091 0000 		lds r25,(flagb)+1
 2964 0d1e 0197      		sbiw r24,1
 2965 0d20 01F4      		brne .L162
 2966               	.LM427:
 2967 0d22 1092 0000 		sts (flagb)+1,__zero_reg__
 2968 0d26 1092 0000 		sts flagb,__zero_reg__
 2969               	.L162:
 2970 0d2a 0895      		ret
 2971               	.LFE38:
 2973               	.global	shiftdown
 2975               	shiftdown:
 2976               	.LFB37:
 2977               	.LM428:
 2978               	.LVL182:
 2979               	/* prologue: function */
 2980               	/* frame size = 0 */
 2981               	.LM429:
 2982 0d2c 21E0      		ldi r18,lo8(1)
 2983 0d2e 30E0      		ldi r19,hi8(1)
 2984 0d30 3093 0000 		sts (flagb)+1,r19
 2985 0d34 2093 0000 		sts flagb,r18
 2986               	.LM430:
 2987 0d38 9C01      		movw r18,r24
 2988 0d3a 40E1      		ldi r20,lo8(10000)
 2989 0d3c 57E2      		ldi r21,hi8(10000)
 2990 0d3e 61E6      		ldi r22,lo8(97)
 2991 0d40 84E3      		ldi r24,lo8(52)
 2992               	.LVL183:
 2993 0d42 0E94 0000 		call PWM
 2994               	.LVL184:
 2995               	.LM431:
 2996 0d46 A49A      		sbi 52-32,4
 2997               	/* epilogue start */
 2998               	.LM432:
 2999 0d48 0895      		ret
 3000               	.LFE37:
 3002               	.global	shiftup
 3004               	shiftup:
 3005               	.LFB36:
 3006               	.LM433:
 3007               	.LVL185:
 3008               	/* prologue: function */
 3009               	/* frame size = 0 */
 3010               	.LM434:
 3011 0d4a 21E0      		ldi r18,lo8(1)
 3012 0d4c 30E0      		ldi r19,hi8(1)
 3013 0d4e 3093 0000 		sts (flagb)+1,r19
 3014 0d52 2093 0000 		sts flagb,r18
 3015               	.LM435:
 3016 0d56 9C01      		movw r18,r24
 3017 0d58 40E1      		ldi r20,lo8(10000)
 3018 0d5a 57E2      		ldi r21,hi8(10000)
 3019 0d5c 61E6      		ldi r22,lo8(97)
 3020 0d5e 84E3      		ldi r24,lo8(52)
 3021               	.LVL186:
 3022 0d60 0E94 0000 		call PWM
 3023               	.LVL187:
 3024               	.LM436:
 3025 0d64 A498      		cbi 52-32,4
 3026               	/* epilogue start */
 3027               	.LM437:
 3028 0d66 0895      		ret
 3029               	.LFE36:
 3031               	.global	BotDown
 3033               	BotDown:
 3034               	.LFB35:
 3035               	.LM438:
 3036               	.LVL188:
 3037               	/* prologue: function */
 3038               	/* frame size = 0 */
 3039               	.LM439:
 3040 0d68 21E0      		ldi r18,lo8(1)
 3041 0d6a 30E0      		ldi r19,hi8(1)
 3042 0d6c 3093 0000 		sts (flagb)+1,r19
 3043 0d70 2093 0000 		sts flagb,r18
 3044               	.LM440:
 3045 0d74 9C01      		movw r18,r24
 3046 0d76 40E1      		ldi r20,lo8(10000)
 3047 0d78 57E2      		ldi r21,hi8(10000)
 3048 0d7a 63E6      		ldi r22,lo8(99)
 3049 0d7c 83E3      		ldi r24,lo8(51)
 3050               	.LVL189:
 3051 0d7e 0E94 0000 		call PWM
 3052               	.LVL190:
 3053               	.LM441:
 3054 0d82 A398      		cbi 52-32,3
 3055               	/* epilogue start */
 3056               	.LM442:
 3057 0d84 0895      		ret
 3058               	.LFE35:
 3060               	.global	reswing
 3062               	reswing:
 3063               	.LFB50:
 3064               	.LM443:
 3065               	/* prologue: function */
 3066               	/* frame size = 0 */
 3067               	.LM444:
 3068 0d86 8091 0501 		lds r24,261
 3069 0d8a 8F7D      		andi r24,lo8(-33)
 3070 0d8c 8093 0501 		sts 261,r24
 3071               	.LM445:
 3072 0d90 8091 0000 		lds r24,swing1
 3073 0d94 9091 0000 		lds r25,(swing1)+1
 3074 0d98 0197      		sbiw r24,1
 3075 0d9a 01F4      		brne .L172
 3076               	.LM446:
 3077 0d9c 84E6      		ldi r24,lo8(100)
 3078 0d9e 90E0      		ldi r25,hi8(100)
 3079 0da0 0E94 0000 		call BotDown
 3080 0da4 88E2      		ldi r24,lo8(9000)
 3081 0da6 93E2      		ldi r25,hi8(9000)
 3082               	.LVL191:
 3083               	.LBB844:
 3084               	.LBB845:
 3085               	.LBB846:
 3086               	.LBB847:
 3087               	.LM447:
 3088 0da8 20E7      		ldi r18,lo8(368)
 3089 0daa 31E0      		ldi r19,hi8(368)
 3090               	.L171:
 3091 0dac F901      		movw r30,r18
 3092               	.LVL192:
 3093               	/* #APP */
 3094               	 ;  105 "c:/winavr-20080610/lib/gcc/../../avr/include/util/delay_basic.h" 1
 3095 0dae 3197      		1: sbiw r30,1
 3096 0db0 01F4      		brne 1b
 3097               	 ;  0 "" 2
 3098               	/* #NOAPP */
 3099               	.LBE847:
 3100               	.LBE846:
 3101               	.LM448:
 3102 0db2 0197      		sbiw r24,1
 3103               	.LM449:
 3104 0db4 01F4      		brne .L171
 3105               	.LBE845:
 3106               	.LBE844:
 3107               	.LM450:
 3108 0db6 0E94 0000 		call stop1
 3109               	.LVL193:
 3110               	.LM451:
 3111 0dba 1092 0000 		sts (swing1)+1,__zero_reg__
 3112 0dbe 1092 0000 		sts swing1,__zero_reg__
 3113               	.L172:
 3114 0dc2 0895      		ret
 3115               	.LFE50:
 3117               	.global	BotUp
 3119               	BotUp:
 3120               	.LFB34:
 3121               	.LM452:
 3122               	.LVL194:
 3123               	/* prologue: function */
 3124               	/* frame size = 0 */
 3125               	.LM453:
 3126 0dc4 21E0      		ldi r18,lo8(1)
 3127 0dc6 30E0      		ldi r19,hi8(1)
 3128 0dc8 3093 0000 		sts (flagb)+1,r19
 3129 0dcc 2093 0000 		sts flagb,r18
 3130               	.LM454:
 3131 0dd0 9C01      		movw r18,r24
 3132 0dd2 40E1      		ldi r20,lo8(10000)
 3133 0dd4 57E2      		ldi r21,hi8(10000)
 3134 0dd6 63E6      		ldi r22,lo8(99)
 3135 0dd8 83E3      		ldi r24,lo8(51)
 3136               	.LVL195:
 3137 0dda 0E94 0000 		call PWM
 3138               	.LVL196:
 3139               	.LM455:
 3140 0dde A39A      		sbi 52-32,3
 3141               	/* epilogue start */
 3142               	.LM456:
 3143 0de0 0895      		ret
 3144               	.LFE34:
 3146               	.global	swing
 3148               	swing:
 3149               	.LFB49:
 3150               	.LM457:
 3151               	/* prologue: function */
 3152               	/* frame size = 0 */
 3153               	.LM458:
 3154 0de2 8091 0000 		lds r24,swing1
 3155 0de6 9091 0000 		lds r25,(swing1)+1
 3156 0dea 892B      		or r24,r25
 3157 0dec 01F4      		brne .L180
 3158               	.LM459:
 3159 0dee 84E6      		ldi r24,lo8(100)
 3160 0df0 90E0      		ldi r25,hi8(100)
 3161 0df2 0E94 0000 		call BotUp
 3162 0df6 80EE      		ldi r24,lo8(12000)
 3163 0df8 9EE2      		ldi r25,hi8(12000)
 3164               	.LVL197:
 3165               	.LBB848:
 3166               	.LBB849:
 3167               	.LBB850:
 3168               	.LBB851:
 3169               	.LM460:
 3170 0dfa 20E7      		ldi r18,lo8(368)
 3171 0dfc 31E0      		ldi r19,hi8(368)
 3172               	.L178:
 3173 0dfe F901      		movw r30,r18
 3174               	.LVL198:
 3175               	/* #APP */
 3176               	 ;  105 "c:/winavr-20080610/lib/gcc/../../avr/include/util/delay_basic.h" 1
 3177 0e00 3197      		1: sbiw r30,1
 3178 0e02 01F4      		brne 1b
 3179               	 ;  0 "" 2
 3180               	/* #NOAPP */
 3181               	.LBE851:
 3182               	.LBE850:
 3183               	.LM461:
 3184 0e04 0197      		sbiw r24,1
 3185               	.LM462:
 3186 0e06 01F4      		brne .L178
 3187               	.LBE849:
 3188               	.LBE848:
 3189               	.LM463:
 3190 0e08 0E94 0000 		call stop1
 3191               	.LVL199:
 3192               	.LM464:
 3193 0e0c 81E0      		ldi r24,lo8(1)
 3194 0e0e 90E0      		ldi r25,hi8(1)
 3195 0e10 9093 0000 		sts (swing1)+1,r25
 3196 0e14 8093 0000 		sts swing1,r24
 3197 0e18 80E2      		ldi r24,lo8(20000)
 3198 0e1a 9EE4      		ldi r25,hi8(20000)
 3199               	.LVL200:
 3200               	.LBB852:
 3201               	.LBB853:
 3202               	.LBB854:
 3203               	.LBB855:
 3204               	.LM465:
 3205 0e1c 20E7      		ldi r18,lo8(368)
 3206 0e1e 31E0      		ldi r19,hi8(368)
 3207               	.L179:
 3208 0e20 F901      		movw r30,r18
 3209               	.LVL201:
 3210               	/* #APP */
 3211               	 ;  105 "c:/winavr-20080610/lib/gcc/../../avr/include/util/delay_basic.h" 1
 3212 0e22 3197      		1: sbiw r30,1
 3213 0e24 01F4      		brne 1b
 3214               	 ;  0 "" 2
 3215               	/* #NOAPP */
 3216               	.LBE855:
 3217               	.LBE854:
 3218               	.LM466:
 3219 0e26 0197      		sbiw r24,1
 3220               	.LM467:
 3221 0e28 01F4      		brne .L179
 3222               	.L180:
 3223 0e2a 0895      		ret
 3224               	.LBE853:
 3225               	.LBE852:
 3226               	.LFE49:
 3228               	.global	ladder
 3230               	ladder:
 3231               	.LFB47:
 3232               	.LM468:
 3233 0e2c CF93      		push r28
 3234 0e2e DF93      		push r29
 3235               	/* prologue: function */
 3236               	/* frame size = 0 */
 3237               	.LM469:
 3238 0e30 0E94 0000 		call distance
 3239               	.LM470:
 3240 0e34 8091 0000 		lds r24,step
 3241 0e38 9091 0000 		lds r25,(step)+1
 3242 0e3c 0197      		sbiw r24,1
 3243 0e3e 01F4      		brne .L185
 3244 0e40 00C0      		rjmp .L300
 3245               	.L186:
 3246               	.LM471:
 3247 0e42 0E94 0000 		call distance
 3248               	.LM472:
 3249 0e46 84E6      		ldi r24,lo8(100)
 3250 0e48 90E0      		ldi r25,hi8(100)
 3251 0e4a 0E94 0000 		call BotUp
 3252               	.L300:
 3253               	.LM473:
 3254 0e4e 8091 0000 		lds r24,a1
 3255 0e52 9091 0000 		lds r25,(a1)+1
 3256 0e56 8C52      		subi r24,lo8(300)
 3257 0e58 9140      		sbci r25,hi8(300)
 3258 0e5a 04F0      		brlt .L186
 3259               	.LM474:
 3260 0e5c 82E0      		ldi r24,lo8(2)
 3261 0e5e 90E0      		ldi r25,hi8(2)
 3262 0e60 9093 0000 		sts (step)+1,r25
 3263 0e64 8093 0000 		sts step,r24
 3264               	.L185:
 3265               	.LM475:
 3266 0e68 8091 0000 		lds r24,step
 3267 0e6c 9091 0000 		lds r25,(step)+1
 3268 0e70 0297      		sbiw r24,2
 3269 0e72 01F4      		brne .L188
 3270 0e74 00C0      		rjmp .L301
 3271               	.L189:
 3272               	.LM476:
 3273 0e76 0E94 0000 		call distance
 3274               	.LM477:
 3275 0e7a 84E6      		ldi r24,lo8(100)
 3276 0e7c 90E0      		ldi r25,hi8(100)
 3277 0e7e 0E94 0000 		call BotUp
 3278               	.L301:
 3279               	.LM478:
 3280 0e82 8091 0000 		lds r24,a1
 3281 0e86 9091 0000 		lds r25,(a1)+1
 3282 0e8a 853B      		cpi r24,181
 3283 0e8c 9105      		cpc r25,__zero_reg__
 3284 0e8e 04F4      		brge .L189
 3285               	.LM479:
 3286 0e90 83E0      		ldi r24,lo8(3)
 3287 0e92 90E0      		ldi r25,hi8(3)
 3288 0e94 9093 0000 		sts (step)+1,r25
 3289 0e98 8093 0000 		sts step,r24
 3290               	.L188:
 3291               	.LM480:
 3292 0e9c 8091 0000 		lds r24,step
 3293 0ea0 9091 0000 		lds r25,(step)+1
 3294 0ea4 0397      		sbiw r24,3
 3295 0ea6 01F4      		brne .L191
 3296 0ea8 00C0      		rjmp .L302
 3297               	.L192:
 3298               	.LM481:
 3299 0eaa 0E94 0000 		call distance
 3300               	.LM482:
 3301 0eae 84E6      		ldi r24,lo8(100)
 3302 0eb0 90E0      		ldi r25,hi8(100)
 3303 0eb2 0E94 0000 		call BotUp
 3304               	.L302:
 3305               	.LM483:
 3306 0eb6 8091 0000 		lds r24,a1
 3307 0eba 9091 0000 		lds r25,(a1)+1
 3308 0ebe 8C52      		subi r24,lo8(300)
 3309 0ec0 9140      		sbci r25,hi8(300)
 3310 0ec2 04F0      		brlt .L192
 3311 0ec4 80ED      		ldi r24,lo8(2000)
 3312 0ec6 97E0      		ldi r25,hi8(2000)
 3313               	.LVL202:
 3314               	.LBB856:
 3315               	.LBB857:
 3316               	.LBB858:
 3317               	.LBB859:
 3318               	.LM484:
 3319 0ec8 20E7      		ldi r18,lo8(368)
 3320 0eca 31E0      		ldi r19,hi8(368)
 3321               	.L193:
 3322 0ecc F901      		movw r30,r18
 3323               	.LVL203:
 3324               	/* #APP */
 3325               	 ;  105 "c:/winavr-20080610/lib/gcc/../../avr/include/util/delay_basic.h" 1
 3326 0ece 3197      		1: sbiw r30,1
 3327 0ed0 01F4      		brne 1b
 3328               	 ;  0 "" 2
 3329               	/* #NOAPP */
 3330               	.LBE859:
 3331               	.LBE858:
 3332               	.LM485:
 3333 0ed2 0197      		sbiw r24,1
 3334               	.LM486:
 3335 0ed4 01F4      		brne .L193
 3336               	.LBE857:
 3337               	.LBE856:
 3338               	.LM487:
 3339 0ed6 84E0      		ldi r24,lo8(4)
 3340 0ed8 90E0      		ldi r25,hi8(4)
 3341               	.LVL204:
 3342 0eda 9093 0000 		sts (step)+1,r25
 3343 0ede 8093 0000 		sts step,r24
 3344               	.L191:
 3345               	.LM488:
 3346 0ee2 8091 0000 		lds r24,step
 3347 0ee6 9091 0000 		lds r25,(step)+1
 3348 0eea 0497      		sbiw r24,4
 3349 0eec 01F4      		brne .L195
 3350 0eee 00C0      		rjmp .L303
 3351               	.L196:
 3352               	.LM489:
 3353 0ef0 0E94 0000 		call distance
 3354               	.LVL205:
 3355               	.LM490:
 3356 0ef4 84E6      		ldi r24,lo8(100)
 3357 0ef6 90E0      		ldi r25,hi8(100)
 3358 0ef8 0E94 0000 		call BotDown
 3359               	.LVL206:
 3360               	.L303:
 3361               	.LM491:
 3362 0efc 8091 0000 		lds r24,a2
 3363 0f00 9091 0000 		lds r25,(a2)+1
 3364 0f04 8E3B      		cpi r24,190
 3365 0f06 9105      		cpc r25,__zero_reg__
 3366 0f08 04F0      		brlt .L196
 3367               	.LM492:
 3368 0f0a 85E0      		ldi r24,lo8(5)
 3369 0f0c 90E0      		ldi r25,hi8(5)
 3370 0f0e 9093 0000 		sts (step)+1,r25
 3371 0f12 8093 0000 		sts step,r24
 3372               	.L195:
 3373               	.LM493:
 3374 0f16 8091 0000 		lds r24,step
 3375 0f1a 9091 0000 		lds r25,(step)+1
 3376 0f1e 0597      		sbiw r24,5
 3377 0f20 01F4      		brne .L198
 3378 0f22 00C0      		rjmp .L304
 3379               	.L199:
 3380               	.LM494:
 3381 0f24 0E94 0000 		call distance
 3382               	.LVL207:
 3383               	.LM495:
 3384 0f28 84E6      		ldi r24,lo8(100)
 3385 0f2a 90E0      		ldi r25,hi8(100)
 3386 0f2c 0E94 0000 		call BotDown
 3387               	.LVL208:
 3388               	.L304:
 3389               	.LM496:
 3390 0f30 8091 0000 		lds r24,a2
 3391 0f34 9091 0000 		lds r25,(a2)+1
 3392 0f38 8536      		cpi r24,101
 3393 0f3a 9105      		cpc r25,__zero_reg__
 3394 0f3c 04F4      		brge .L199
 3395               	.LM497:
 3396 0f3e 86E0      		ldi r24,lo8(6)
 3397 0f40 90E0      		ldi r25,hi8(6)
 3398 0f42 9093 0000 		sts (step)+1,r25
 3399 0f46 8093 0000 		sts step,r24
 3400               	.L198:
 3401               	.LM498:
 3402 0f4a 8091 0000 		lds r24,step
 3403 0f4e 9091 0000 		lds r25,(step)+1
 3404 0f52 0697      		sbiw r24,6
 3405 0f54 01F4      		brne .L201
 3406 0f56 00C0      		rjmp .L305
 3407               	.L202:
 3408               	.LM499:
 3409 0f58 0E94 0000 		call distance
 3410               	.LVL209:
 3411               	.LM500:
 3412 0f5c 84E6      		ldi r24,lo8(100)
 3413 0f5e 90E0      		ldi r25,hi8(100)
 3414 0f60 0E94 0000 		call BotDown
 3415               	.LVL210:
 3416               	.L305:
 3417               	.LM501:
 3418 0f64 8091 0000 		lds r24,a2
 3419 0f68 9091 0000 		lds r25,(a2)+1
 3420 0f6c 8E3B      		cpi r24,190
 3421 0f6e 9105      		cpc r25,__zero_reg__
 3422 0f70 04F0      		brlt .L202
 3423               	.LM502:
 3424 0f72 87E0      		ldi r24,lo8(7)
 3425 0f74 90E0      		ldi r25,hi8(7)
 3426 0f76 9093 0000 		sts (step)+1,r25
 3427 0f7a 8093 0000 		sts step,r24
 3428 0f7e 80ED      		ldi r24,lo8(2000)
 3429 0f80 97E0      		ldi r25,hi8(2000)
 3430               	.LVL211:
 3431               	.LBB860:
 3432               	.LBB861:
 3433               	.LBB862:
 3434               	.LBB863:
 3435               	.LM503:
 3436 0f82 20E7      		ldi r18,lo8(368)
 3437 0f84 31E0      		ldi r19,hi8(368)
 3438               	.L203:
 3439 0f86 F901      		movw r30,r18
 3440               	.LVL212:
 3441               	/* #APP */
 3442               	 ;  105 "c:/winavr-20080610/lib/gcc/../../avr/include/util/delay_basic.h" 1
 3443 0f88 3197      		1: sbiw r30,1
 3444 0f8a 01F4      		brne 1b
 3445               	 ;  0 "" 2
 3446               	/* #NOAPP */
 3447               	.LBE863:
 3448               	.LBE862:
 3449               	.LM504:
 3450 0f8c 0197      		sbiw r24,1
 3451               	.LM505:
 3452 0f8e 01F4      		brne .L203
 3453               	.LBE861:
 3454               	.LBE860:
 3455               	.LM506:
 3456 0f90 0E94 0000 		call stop1
 3457               	.LVL213:
 3458               	.L201:
 3459               	.LM507:
 3460 0f94 8091 0000 		lds r24,step
 3461 0f98 9091 0000 		lds r25,(step)+1
 3462 0f9c 0797      		sbiw r24,7
 3463 0f9e 01F4      		brne .L205
 3464 0fa0 00C0      		rjmp .L306
 3465               	.L206:
 3466               	.LM508:
 3467 0fa2 0E94 0000 		call distance
 3468               	.LVL214:
 3469               	.LM509:
 3470 0fa6 84E6      		ldi r24,lo8(100)
 3471 0fa8 90E0      		ldi r25,hi8(100)
 3472 0faa 0E94 0000 		call BotUp
 3473               	.LVL215:
 3474               	.L306:
 3475               	.LM510:
 3476 0fae 8091 0000 		lds r24,a1
 3477 0fb2 9091 0000 		lds r25,(a1)+1
 3478 0fb6 8C52      		subi r24,lo8(300)
 3479 0fb8 9140      		sbci r25,hi8(300)
 3480 0fba 04F0      		brlt .L206
 3481               	.LM511:
 3482 0fbc 88E0      		ldi r24,lo8(8)
 3483 0fbe 90E0      		ldi r25,hi8(8)
 3484 0fc0 9093 0000 		sts (step)+1,r25
 3485 0fc4 8093 0000 		sts step,r24
 3486               	.L205:
 3487               	.LM512:
 3488 0fc8 8091 0000 		lds r24,step
 3489 0fcc 9091 0000 		lds r25,(step)+1
 3490 0fd0 0897      		sbiw r24,8
 3491 0fd2 01F4      		brne .L208
 3492 0fd4 00C0      		rjmp .L307
 3493               	.L209:
 3494               	.LM513:
 3495 0fd6 0E94 0000 		call distance
 3496               	.LVL216:
 3497               	.LM514:
 3498 0fda 84E6      		ldi r24,lo8(100)
 3499 0fdc 90E0      		ldi r25,hi8(100)
 3500 0fde 0E94 0000 		call BotUp
 3501               	.LVL217:
 3502               	.L307:
 3503               	.LM515:
 3504 0fe2 8091 0000 		lds r24,a1
 3505 0fe6 9091 0000 		lds r25,(a1)+1
 3506 0fea 853B      		cpi r24,181
 3507 0fec 9105      		cpc r25,__zero_reg__
 3508 0fee 04F4      		brge .L209
 3509               	.LM516:
 3510 0ff0 89E0      		ldi r24,lo8(9)
 3511 0ff2 90E0      		ldi r25,hi8(9)
 3512 0ff4 9093 0000 		sts (step)+1,r25
 3513 0ff8 8093 0000 		sts step,r24
 3514               	.L208:
 3515               	.LM517:
 3516 0ffc 8091 0000 		lds r24,step
 3517 1000 9091 0000 		lds r25,(step)+1
 3518 1004 0997      		sbiw r24,9
 3519 1006 01F4      		brne .L211
 3520 1008 00C0      		rjmp .L308
 3521               	.L212:
 3522               	.LM518:
 3523 100a 0E94 0000 		call distance
 3524               	.LVL218:
 3525               	.LM519:
 3526 100e 84E6      		ldi r24,lo8(100)
 3527 1010 90E0      		ldi r25,hi8(100)
 3528 1012 0E94 0000 		call BotUp
 3529               	.LVL219:
 3530               	.L308:
 3531               	.LM520:
 3532 1016 8091 0000 		lds r24,a1
 3533 101a 9091 0000 		lds r25,(a1)+1
 3534 101e 8C52      		subi r24,lo8(300)
 3535 1020 9140      		sbci r25,hi8(300)
 3536 1022 04F0      		brlt .L212
 3537 1024 80ED      		ldi r24,lo8(2000)
 3538 1026 97E0      		ldi r25,hi8(2000)
 3539               	.LVL220:
 3540               	.LBB864:
 3541               	.LBB865:
 3542               	.LBB866:
 3543               	.LBB867:
 3544               	.LM521:
 3545 1028 20E7      		ldi r18,lo8(368)
 3546 102a 31E0      		ldi r19,hi8(368)
 3547               	.L213:
 3548 102c F901      		movw r30,r18
 3549               	.LVL221:
 3550               	/* #APP */
 3551               	 ;  105 "c:/winavr-20080610/lib/gcc/../../avr/include/util/delay_basic.h" 1
 3552 102e 3197      		1: sbiw r30,1
 3553 1030 01F4      		brne 1b
 3554               	 ;  0 "" 2
 3555               	/* #NOAPP */
 3556               	.LBE867:
 3557               	.LBE866:
 3558               	.LM522:
 3559 1032 0197      		sbiw r24,1
 3560               	.LM523:
 3561 1034 01F4      		brne .L213
 3562               	.LBE865:
 3563               	.LBE864:
 3564               	.LM524:
 3565 1036 8AE0      		ldi r24,lo8(10)
 3566 1038 90E0      		ldi r25,hi8(10)
 3567               	.LVL222:
 3568 103a 9093 0000 		sts (step)+1,r25
 3569 103e 8093 0000 		sts step,r24
 3570               	.LVL223:
 3571               	.L211:
 3572               	.LM525:
 3573 1042 8091 0000 		lds r24,step
 3574 1046 9091 0000 		lds r25,(step)+1
 3575 104a 0A97      		sbiw r24,10
 3576 104c 01F4      		brne .L215
 3577 104e 00C0      		rjmp .L309
 3578               	.L216:
 3579               	.LM526:
 3580 1050 0E94 0000 		call distance
 3581               	.LVL224:
 3582               	.LM527:
 3583 1054 84E6      		ldi r24,lo8(100)
 3584 1056 90E0      		ldi r25,hi8(100)
 3585 1058 0E94 0000 		call BotDown
 3586               	.LVL225:
 3587               	.L309:
 3588               	.LM528:
 3589 105c 8091 0000 		lds r24,a2
 3590 1060 9091 0000 		lds r25,(a2)+1
 3591 1064 843B      		cpi r24,180
 3592 1066 9105      		cpc r25,__zero_reg__
 3593 1068 04F0      		brlt .L216
 3594               	.LM529:
 3595 106a 8BE0      		ldi r24,lo8(11)
 3596 106c 90E0      		ldi r25,hi8(11)
 3597 106e 9093 0000 		sts (step)+1,r25
 3598 1072 8093 0000 		sts step,r24
 3599               	.L215:
 3600               	.LM530:
 3601 1076 8091 0000 		lds r24,step
 3602 107a 9091 0000 		lds r25,(step)+1
 3603 107e 0B97      		sbiw r24,11
 3604 1080 01F4      		brne .L218
 3605 1082 00C0      		rjmp .L310
 3606               	.L219:
 3607               	.LM531:
 3608 1084 0E94 0000 		call distance
 3609               	.LVL226:
 3610               	.LM532:
 3611 1088 84E6      		ldi r24,lo8(100)
 3612 108a 90E0      		ldi r25,hi8(100)
 3613 108c 0E94 0000 		call BotDown
 3614               	.LVL227:
 3615               	.L310:
 3616               	.LM533:
 3617 1090 8091 0000 		lds r24,a2
 3618 1094 9091 0000 		lds r25,(a2)+1
 3619 1098 8536      		cpi r24,101
 3620 109a 9105      		cpc r25,__zero_reg__
 3621 109c 04F4      		brge .L219
 3622               	.LM534:
 3623 109e 8CE0      		ldi r24,lo8(12)
 3624 10a0 90E0      		ldi r25,hi8(12)
 3625 10a2 9093 0000 		sts (step)+1,r25
 3626 10a6 8093 0000 		sts step,r24
 3627               	.L218:
 3628               	.LM535:
 3629 10aa 8091 0000 		lds r24,step
 3630 10ae 9091 0000 		lds r25,(step)+1
 3631 10b2 0C97      		sbiw r24,12
 3632 10b4 01F4      		brne .L221
 3633 10b6 00C0      		rjmp .L311
 3634               	.L222:
 3635               	.LM536:
 3636 10b8 0E94 0000 		call distance
 3637               	.LVL228:
 3638               	.LM537:
 3639 10bc 84E6      		ldi r24,lo8(100)
 3640 10be 90E0      		ldi r25,hi8(100)
 3641 10c0 0E94 0000 		call BotDown
 3642               	.LVL229:
 3643               	.L311:
 3644               	.LM538:
 3645 10c4 8091 0000 		lds r24,a2
 3646 10c8 9091 0000 		lds r25,(a2)+1
 3647 10cc 843B      		cpi r24,180
 3648 10ce 9105      		cpc r25,__zero_reg__
 3649 10d0 04F0      		brlt .L222
 3650               	.LM539:
 3651 10d2 8DE0      		ldi r24,lo8(13)
 3652 10d4 90E0      		ldi r25,hi8(13)
 3653 10d6 9093 0000 		sts (step)+1,r25
 3654 10da 8093 0000 		sts step,r24
 3655 10de 80ED      		ldi r24,lo8(2000)
 3656 10e0 97E0      		ldi r25,hi8(2000)
 3657               	.LVL230:
 3658               	.LBB868:
 3659               	.LBB869:
 3660               	.LBB870:
 3661               	.LBB871:
 3662               	.LM540:
 3663 10e2 20E7      		ldi r18,lo8(368)
 3664 10e4 31E0      		ldi r19,hi8(368)
 3665               	.L223:
 3666 10e6 F901      		movw r30,r18
 3667               	.LVL231:
 3668               	/* #APP */
 3669               	 ;  105 "c:/winavr-20080610/lib/gcc/../../avr/include/util/delay_basic.h" 1
 3670 10e8 3197      		1: sbiw r30,1
 3671 10ea 01F4      		brne 1b
 3672               	 ;  0 "" 2
 3673               	/* #NOAPP */
 3674               	.LBE871:
 3675               	.LBE870:
 3676               	.LM541:
 3677 10ec 0197      		sbiw r24,1
 3678               	.LM542:
 3679 10ee 01F4      		brne .L223
 3680               	.LVL232:
 3681               	.L221:
 3682               	.LBE869:
 3683               	.LBE868:
 3684               	.LM543:
 3685 10f0 8091 0000 		lds r24,step
 3686 10f4 9091 0000 		lds r25,(step)+1
 3687               	.LVL233:
 3688 10f8 0D97      		sbiw r24,13
 3689 10fa 01F4      		brne .L225
 3690 10fc 00C0      		rjmp .L312
 3691               	.L226:
 3692               	.LM544:
 3693 10fe 0E94 0000 		call distance
 3694               	.LVL234:
 3695               	.LM545:
 3696 1102 84E6      		ldi r24,lo8(100)
 3697 1104 90E0      		ldi r25,hi8(100)
 3698 1106 0E94 0000 		call BotUp
 3699               	.LVL235:
 3700               	.L312:
 3701               	.LM546:
 3702 110a 8091 0000 		lds r24,a1
 3703 110e 9091 0000 		lds r25,(a1)+1
 3704 1112 8C52      		subi r24,lo8(300)
 3705 1114 9140      		sbci r25,hi8(300)
 3706 1116 04F0      		brlt .L226
 3707               	.LM547:
 3708 1118 8EE0      		ldi r24,lo8(14)
 3709 111a 90E0      		ldi r25,hi8(14)
 3710 111c 9093 0000 		sts (step)+1,r25
 3711 1120 8093 0000 		sts step,r24
 3712               	.L225:
 3713               	.LM548:
 3714 1124 8091 0000 		lds r24,step
 3715 1128 9091 0000 		lds r25,(step)+1
 3716 112c 0E97      		sbiw r24,14
 3717 112e 01F4      		brne .L228
 3718 1130 00C0      		rjmp .L313
 3719               	.L229:
 3720               	.LM549:
 3721 1132 0E94 0000 		call distance
 3722               	.LVL236:
 3723               	.LM550:
 3724 1136 84E6      		ldi r24,lo8(100)
 3725 1138 90E0      		ldi r25,hi8(100)
 3726 113a 0E94 0000 		call BotUp
 3727               	.LVL237:
 3728               	.L313:
 3729               	.LM551:
 3730 113e 8091 0000 		lds r24,a1
 3731 1142 9091 0000 		lds r25,(a1)+1
 3732 1146 853B      		cpi r24,181
 3733 1148 9105      		cpc r25,__zero_reg__
 3734 114a 04F4      		brge .L229
 3735               	.LM552:
 3736 114c 8FE0      		ldi r24,lo8(15)
 3737 114e 90E0      		ldi r25,hi8(15)
 3738 1150 9093 0000 		sts (step)+1,r25
 3739 1154 8093 0000 		sts step,r24
 3740               	.L228:
 3741               	.LM553:
 3742 1158 8091 0000 		lds r24,step
 3743 115c 9091 0000 		lds r25,(step)+1
 3744 1160 0F97      		sbiw r24,15
 3745 1162 01F4      		brne .L231
 3746 1164 00C0      		rjmp .L314
 3747               	.L232:
 3748               	.LM554:
 3749 1166 0E94 0000 		call distance
 3750               	.LVL238:
 3751               	.LM555:
 3752 116a 84E6      		ldi r24,lo8(100)
 3753 116c 90E0      		ldi r25,hi8(100)
 3754 116e 0E94 0000 		call BotUp
 3755               	.LVL239:
 3756               	.L314:
 3757               	.LM556:
 3758 1172 8091 0000 		lds r24,a1
 3759 1176 9091 0000 		lds r25,(a1)+1
 3760 117a 8C52      		subi r24,lo8(300)
 3761 117c 9140      		sbci r25,hi8(300)
 3762 117e 04F0      		brlt .L232
 3763 1180 80ED      		ldi r24,lo8(2000)
 3764 1182 97E0      		ldi r25,hi8(2000)
 3765               	.LVL240:
 3766               	.LBB872:
 3767               	.LBB873:
 3768               	.LBB874:
 3769               	.LBB875:
 3770               	.LM557:
 3771 1184 20E7      		ldi r18,lo8(368)
 3772 1186 31E0      		ldi r19,hi8(368)
 3773               	.L233:
 3774 1188 F901      		movw r30,r18
 3775               	.LVL241:
 3776               	/* #APP */
 3777               	 ;  105 "c:/winavr-20080610/lib/gcc/../../avr/include/util/delay_basic.h" 1
 3778 118a 3197      		1: sbiw r30,1
 3779 118c 01F4      		brne 1b
 3780               	 ;  0 "" 2
 3781               	/* #NOAPP */
 3782               	.LBE875:
 3783               	.LBE874:
 3784               	.LM558:
 3785 118e 0197      		sbiw r24,1
 3786               	.LM559:
 3787 1190 01F4      		brne .L233
 3788               	.LBE873:
 3789               	.LBE872:
 3790               	.LM560:
 3791 1192 80E1      		ldi r24,lo8(16)
 3792 1194 90E0      		ldi r25,hi8(16)
 3793               	.LVL242:
 3794 1196 9093 0000 		sts (step)+1,r25
 3795 119a 8093 0000 		sts step,r24
 3796               	.LVL243:
 3797               	.L231:
 3798               	.LM561:
 3799 119e 8091 0000 		lds r24,step
 3800 11a2 9091 0000 		lds r25,(step)+1
 3801 11a6 4097      		sbiw r24,16
 3802 11a8 01F4      		brne .L235
 3803 11aa 00C0      		rjmp .L315
 3804               	.L236:
 3805               	.LM562:
 3806 11ac 0E94 0000 		call distance
 3807               	.LVL244:
 3808               	.LM563:
 3809 11b0 84E6      		ldi r24,lo8(100)
 3810 11b2 90E0      		ldi r25,hi8(100)
 3811 11b4 0E94 0000 		call BotDown
 3812               	.LVL245:
 3813               	.L315:
 3814               	.LM564:
 3815 11b8 8091 0000 		lds r24,a2
 3816 11bc 9091 0000 		lds r25,(a2)+1
 3817 11c0 8A3A      		cpi r24,170
 3818 11c2 9105      		cpc r25,__zero_reg__
 3819 11c4 04F0      		brlt .L236
 3820               	.LM565:
 3821 11c6 81E1      		ldi r24,lo8(17)
 3822 11c8 90E0      		ldi r25,hi8(17)
 3823 11ca 9093 0000 		sts (step)+1,r25
 3824 11ce 8093 0000 		sts step,r24
 3825               	.L235:
 3826               	.LM566:
 3827 11d2 8091 0000 		lds r24,step
 3828 11d6 9091 0000 		lds r25,(step)+1
 3829 11da 4197      		sbiw r24,17
 3830 11dc 01F4      		brne .L238
 3831 11de 00C0      		rjmp .L316
 3832               	.L239:
 3833               	.LM567:
 3834 11e0 0E94 0000 		call distance
 3835               	.LVL246:
 3836               	.LM568:
 3837 11e4 84E6      		ldi r24,lo8(100)
 3838 11e6 90E0      		ldi r25,hi8(100)
 3839 11e8 0E94 0000 		call BotDown
 3840               	.LVL247:
 3841               	.L316:
 3842               	.LM569:
 3843 11ec 8091 0000 		lds r24,a2
 3844 11f0 9091 0000 		lds r25,(a2)+1
 3845 11f4 8536      		cpi r24,101
 3846 11f6 9105      		cpc r25,__zero_reg__
 3847 11f8 04F4      		brge .L239
 3848               	.LM570:
 3849 11fa 82E1      		ldi r24,lo8(18)
 3850 11fc 90E0      		ldi r25,hi8(18)
 3851 11fe 9093 0000 		sts (step)+1,r25
 3852 1202 8093 0000 		sts step,r24
 3853               	.L238:
 3854               	.LM571:
 3855 1206 8091 0000 		lds r24,step
 3856 120a 9091 0000 		lds r25,(step)+1
 3857 120e 4297      		sbiw r24,18
 3858 1210 01F4      		brne .L241
 3859 1212 00C0      		rjmp .L317
 3860               	.L242:
 3861               	.LM572:
 3862 1214 0E94 0000 		call distance
 3863               	.LVL248:
 3864               	.LM573:
 3865 1218 84E6      		ldi r24,lo8(100)
 3866 121a 90E0      		ldi r25,hi8(100)
 3867 121c 0E94 0000 		call BotDown
 3868               	.LVL249:
 3869               	.L317:
 3870               	.LM574:
 3871 1220 8091 0000 		lds r24,a2
 3872 1224 9091 0000 		lds r25,(a2)+1
 3873 1228 8A3A      		cpi r24,170
 3874 122a 9105      		cpc r25,__zero_reg__
 3875 122c 04F0      		brlt .L242
 3876               	.LM575:
 3877 122e 83E1      		ldi r24,lo8(19)
 3878 1230 90E0      		ldi r25,hi8(19)
 3879 1232 9093 0000 		sts (step)+1,r25
 3880 1236 8093 0000 		sts step,r24
 3881 123a 80ED      		ldi r24,lo8(2000)
 3882 123c 97E0      		ldi r25,hi8(2000)
 3883               	.LVL250:
 3884               	.LBB876:
 3885               	.LBB877:
 3886               	.LBB878:
 3887               	.LBB879:
 3888               	.LM576:
 3889 123e 20E7      		ldi r18,lo8(368)
 3890 1240 31E0      		ldi r19,hi8(368)
 3891               	.L243:
 3892 1242 F901      		movw r30,r18
 3893               	.LVL251:
 3894               	/* #APP */
 3895               	 ;  105 "c:/winavr-20080610/lib/gcc/../../avr/include/util/delay_basic.h" 1
 3896 1244 3197      		1: sbiw r30,1
 3897 1246 01F4      		brne 1b
 3898               	 ;  0 "" 2
 3899               	/* #NOAPP */
 3900               	.LBE879:
 3901               	.LBE878:
 3902               	.LM577:
 3903 1248 0197      		sbiw r24,1
 3904               	.LM578:
 3905 124a 01F4      		brne .L243
 3906               	.LBE877:
 3907               	.LBE876:
 3908               	.LM579:
 3909 124c 0E94 0000 		call stop1
 3910               	.LVL252:
 3911               	.L241:
 3912               	.LM580:
 3913 1250 8091 0000 		lds r24,step
 3914 1254 9091 0000 		lds r25,(step)+1
 3915 1258 4397      		sbiw r24,19
 3916 125a 01F4      		brne .L245
 3917 125c 00C0      		rjmp .L318
 3918               	.L246:
 3919               	.LM581:
 3920 125e 0E94 0000 		call distance
 3921               	.LVL253:
 3922               	.LM582:
 3923 1262 84E6      		ldi r24,lo8(100)
 3924 1264 90E0      		ldi r25,hi8(100)
 3925 1266 0E94 0000 		call BotUp
 3926               	.LVL254:
 3927               	.L318:
 3928               	.LM583:
 3929 126a 8091 0000 		lds r24,a1
 3930 126e 9091 0000 		lds r25,(a1)+1
 3931 1272 8C52      		subi r24,lo8(300)
 3932 1274 9140      		sbci r25,hi8(300)
 3933 1276 04F0      		brlt .L246
 3934               	.LM584:
 3935 1278 84E1      		ldi r24,lo8(20)
 3936 127a 90E0      		ldi r25,hi8(20)
 3937 127c 9093 0000 		sts (step)+1,r25
 3938 1280 8093 0000 		sts step,r24
 3939               	.L245:
 3940               	.LM585:
 3941 1284 8091 0000 		lds r24,step
 3942 1288 9091 0000 		lds r25,(step)+1
 3943 128c 4497      		sbiw r24,20
 3944 128e 01F4      		brne .L248
 3945 1290 00C0      		rjmp .L319
 3946               	.L249:
 3947               	.LM586:
 3948 1292 0E94 0000 		call distance
 3949               	.LVL255:
 3950               	.LM587:
 3951 1296 84E6      		ldi r24,lo8(100)
 3952 1298 90E0      		ldi r25,hi8(100)
 3953 129a 0E94 0000 		call BotUp
 3954               	.LVL256:
 3955               	.L319:
 3956               	.LM588:
 3957 129e 8091 0000 		lds r24,a1
 3958 12a2 9091 0000 		lds r25,(a1)+1
 3959 12a6 853B      		cpi r24,181
 3960 12a8 9105      		cpc r25,__zero_reg__
 3961 12aa 04F4      		brge .L249
 3962               	.LM589:
 3963 12ac 85E1      		ldi r24,lo8(21)
 3964 12ae 90E0      		ldi r25,hi8(21)
 3965 12b0 9093 0000 		sts (step)+1,r25
 3966 12b4 8093 0000 		sts step,r24
 3967               	.L248:
 3968               	.LM590:
 3969 12b8 8091 0000 		lds r24,step
 3970 12bc 9091 0000 		lds r25,(step)+1
 3971 12c0 4597      		sbiw r24,21
 3972 12c2 01F4      		brne .L251
 3973 12c4 00C0      		rjmp .L320
 3974               	.L252:
 3975               	.LM591:
 3976 12c6 0E94 0000 		call distance
 3977               	.LVL257:
 3978               	.LM592:
 3979 12ca 84E6      		ldi r24,lo8(100)
 3980 12cc 90E0      		ldi r25,hi8(100)
 3981 12ce 0E94 0000 		call BotUp
 3982               	.LVL258:
 3983               	.L320:
 3984               	.LM593:
 3985 12d2 8091 0000 		lds r24,a1
 3986 12d6 9091 0000 		lds r25,(a1)+1
 3987 12da 805E      		subi r24,lo8(480)
 3988 12dc 9140      		sbci r25,hi8(480)
 3989 12de 04F0      		brlt .L252
 3990 12e0 80ED      		ldi r24,lo8(2000)
 3991 12e2 97E0      		ldi r25,hi8(2000)
 3992               	.LVL259:
 3993               	.LBB880:
 3994               	.LBB881:
 3995               	.LBB882:
 3996               	.LBB883:
 3997               	.LM594:
 3998 12e4 20E7      		ldi r18,lo8(368)
 3999 12e6 31E0      		ldi r19,hi8(368)
 4000               	.L253:
 4001 12e8 F901      		movw r30,r18
 4002               	.LVL260:
 4003               	/* #APP */
 4004               	 ;  105 "c:/winavr-20080610/lib/gcc/../../avr/include/util/delay_basic.h" 1
 4005 12ea 3197      		1: sbiw r30,1
 4006 12ec 01F4      		brne 1b
 4007               	 ;  0 "" 2
 4008               	/* #NOAPP */
 4009               	.LBE883:
 4010               	.LBE882:
 4011               	.LM595:
 4012 12ee 0197      		sbiw r24,1
 4013               	.LM596:
 4014 12f0 01F4      		brne .L253
 4015               	.LBE881:
 4016               	.LBE880:
 4017               	.LM597:
 4018 12f2 86E1      		ldi r24,lo8(22)
 4019 12f4 90E0      		ldi r25,hi8(22)
 4020               	.LVL261:
 4021 12f6 9093 0000 		sts (step)+1,r25
 4022 12fa 8093 0000 		sts step,r24
 4023               	.LVL262:
 4024               	.L251:
 4025               	.LM598:
 4026 12fe 8091 0000 		lds r24,step
 4027 1302 9091 0000 		lds r25,(step)+1
 4028 1306 4697      		sbiw r24,22
 4029 1308 01F4      		brne .L254
 4030               	.LM599:
 4031 130a 85E0      		ldi r24,lo8(5)
 4032 130c 90E0      		ldi r25,hi8(5)
 4033 130e 0E94 0000 		call BotUp
 4034               	.LVL263:
 4035               	.LM600:
 4036 1312 84E6      		ldi r24,lo8(100)
 4037 1314 90E0      		ldi r25,hi8(100)
 4038 1316 0E94 0000 		call shiftdown
 4039 131a 80EC      		ldi r24,lo8(24000)
 4040 131c 9DE5      		ldi r25,hi8(24000)
 4041               	.LVL264:
 4042               	.LBB884:
 4043               	.LBB885:
 4044               	.LBB886:
 4045               	.LBB887:
 4046               	.LM601:
 4047 131e 20E7      		ldi r18,lo8(368)
 4048 1320 31E0      		ldi r19,hi8(368)
 4049               	.L255:
 4050 1322 F901      		movw r30,r18
 4051               	.LVL265:
 4052               	/* #APP */
 4053               	 ;  105 "c:/winavr-20080610/lib/gcc/../../avr/include/util/delay_basic.h" 1
 4054 1324 3197      		1: sbiw r30,1
 4055 1326 01F4      		brne 1b
 4056               	 ;  0 "" 2
 4057               	/* #NOAPP */
 4058               	.LBE887:
 4059               	.LBE886:
 4060               	.LM602:
 4061 1328 0197      		sbiw r24,1
 4062               	.LM603:
 4063 132a 01F4      		brne .L255
 4064               	.LBE885:
 4065               	.LBE884:
 4066               	.LM604:
 4067 132c 84E6      		ldi r24,lo8(100)
 4068 132e 90E0      		ldi r25,hi8(100)
 4069               	.LVL266:
 4070 1330 0E94 0000 		call BotDown
 4071               	.LVL267:
 4072 1334 80ED      		ldi r24,lo8(2000)
 4073 1336 97E0      		ldi r25,hi8(2000)
 4074               	.LVL268:
 4075               	.LBB888:
 4076               	.LBB889:
 4077               	.LBB890:
 4078               	.LBB891:
 4079               	.LM605:
 4080 1338 20E7      		ldi r18,lo8(368)
 4081 133a 31E0      		ldi r19,hi8(368)
 4082               	.L256:
 4083 133c F901      		movw r30,r18
 4084               	.LVL269:
 4085               	/* #APP */
 4086               	 ;  105 "c:/winavr-20080610/lib/gcc/../../avr/include/util/delay_basic.h" 1
 4087 133e 3197      		1: sbiw r30,1
 4088 1340 01F4      		brne 1b
 4089               	 ;  0 "" 2
 4090               	/* #NOAPP */
 4091               	.LBE891:
 4092               	.LBE890:
 4093               	.LM606:
 4094 1342 0197      		sbiw r24,1
 4095               	.LM607:
 4096 1344 01F4      		brne .L256
 4097               	.LBE889:
 4098               	.LBE888:
 4099               	.LM608:
 4100 1346 87E1      		ldi r24,lo8(23)
 4101 1348 90E0      		ldi r25,hi8(23)
 4102               	.LVL270:
 4103 134a 9093 0000 		sts (step)+1,r25
 4104 134e 8093 0000 		sts step,r24
 4105               	.LM609:
 4106 1352 84E6      		ldi r24,lo8(100)
 4107 1354 90E0      		ldi r25,hi8(100)
 4108 1356 0E94 0000 		call shiftup
 4109               	.LVL271:
 4110 135a 88E9      		ldi r24,lo8(15000)
 4111 135c 9AE3      		ldi r25,hi8(15000)
 4112               	.LVL272:
 4113               	.LBB892:
 4114               	.LBB893:
 4115               	.LBB894:
 4116               	.LBB895:
 4117               	.LM610:
 4118 135e 20E7      		ldi r18,lo8(368)
 4119 1360 31E0      		ldi r19,hi8(368)
 4120               	.L257:
 4121 1362 F901      		movw r30,r18
 4122               	.LVL273:
 4123               	/* #APP */
 4124               	 ;  105 "c:/winavr-20080610/lib/gcc/../../avr/include/util/delay_basic.h" 1
 4125 1364 3197      		1: sbiw r30,1
 4126 1366 01F4      		brne 1b
 4127               	 ;  0 "" 2
 4128               	/* #NOAPP */
 4129               	.LBE895:
 4130               	.LBE894:
 4131               	.LM611:
 4132 1368 0197      		sbiw r24,1
 4133               	.LM612:
 4134 136a 01F4      		brne .L257
 4135               	.LBE893:
 4136               	.LBE892:
 4137               	.LM613:
 4138 136c 0E94 0000 		call stop1
 4139               	.LVL274:
 4140               	.L254:
 4141               	.LM614:
 4142 1370 8091 0000 		lds r24,step
 4143 1374 9091 0000 		lds r25,(step)+1
 4144 1378 4797      		sbiw r24,23
 4145 137a 01F4      		brne .L259
 4146 137c 00C0      		rjmp .L321
 4147               	.L260:
 4148               	.LM615:
 4149 137e 0E94 0000 		call distance
 4150               	.LVL275:
 4151               	.LM616:
 4152 1382 84E6      		ldi r24,lo8(100)
 4153 1384 90E0      		ldi r25,hi8(100)
 4154 1386 0E94 0000 		call BotDown
 4155               	.LVL276:
 4156               	.L321:
 4157               	.LM617:
 4158 138a 8091 0000 		lds r24,a2
 4159 138e 9091 0000 		lds r25,(a2)+1
 4160 1392 8536      		cpi r24,101
 4161 1394 9105      		cpc r25,__zero_reg__
 4162 1396 04F4      		brge .L260
 4163               	.LM618:
 4164 1398 88E1      		ldi r24,lo8(24)
 4165 139a 90E0      		ldi r25,hi8(24)
 4166 139c 9093 0000 		sts (step)+1,r25
 4167 13a0 8093 0000 		sts step,r24
 4168               	.L259:
 4169               	.LM619:
 4170 13a4 8091 0000 		lds r24,step
 4171 13a8 9091 0000 		lds r25,(step)+1
 4172 13ac 4897      		sbiw r24,24
 4173 13ae 01F4      		brne .L262
 4174 13b0 00C0      		rjmp .L322
 4175               	.L263:
 4176               	.LM620:
 4177 13b2 0E94 0000 		call distance
 4178               	.LVL277:
 4179               	.LM621:
 4180 13b6 84E6      		ldi r24,lo8(100)
 4181 13b8 90E0      		ldi r25,hi8(100)
 4182 13ba 0E94 0000 		call BotUp
 4183               	.LVL278:
 4184               	.L322:
 4185               	.LM622:
 4186 13be 8091 0000 		lds r24,a1
 4187 13c2 9091 0000 		lds r25,(a1)+1
 4188 13c6 8C52      		subi r24,lo8(300)
 4189 13c8 9140      		sbci r25,hi8(300)
 4190 13ca 04F0      		brlt .L263
 4191               	.LM623:
 4192 13cc 89E1      		ldi r24,lo8(25)
 4193 13ce 90E0      		ldi r25,hi8(25)
 4194 13d0 9093 0000 		sts (step)+1,r25
 4195 13d4 8093 0000 		sts step,r24
 4196               	.L262:
 4197               	.LM624:
 4198 13d8 8091 0000 		lds r24,step
 4199 13dc 9091 0000 		lds r25,(step)+1
 4200 13e0 4997      		sbiw r24,25
 4201 13e2 01F4      		brne .L265
 4202 13e4 00C0      		rjmp .L323
 4203               	.L266:
 4204               	.LM625:
 4205 13e6 0E94 0000 		call distance
 4206               	.LVL279:
 4207               	.LM626:
 4208 13ea 84E6      		ldi r24,lo8(100)
 4209 13ec 90E0      		ldi r25,hi8(100)
 4210 13ee 0E94 0000 		call BotUp
 4211               	.LVL280:
 4212               	.L323:
 4213               	.LM627:
 4214 13f2 8091 0000 		lds r24,a1
 4215 13f6 9091 0000 		lds r25,(a1)+1
 4216 13fa 845F      		subi r24,lo8(500)
 4217 13fc 9140      		sbci r25,hi8(500)
 4218 13fe 04F0      		brlt .L266
 4219               	.LM628:
 4220 1400 8AE1      		ldi r24,lo8(26)
 4221 1402 90E0      		ldi r25,hi8(26)
 4222 1404 9093 0000 		sts (step)+1,r25
 4223 1408 8093 0000 		sts step,r24
 4224               	.L265:
 4225               	.LM629:
 4226 140c 8091 0000 		lds r24,step
 4227 1410 9091 0000 		lds r25,(step)+1
 4228 1414 4A97      		sbiw r24,26
 4229 1416 01F4      		brne .L268
 4230 1418 00C0      		rjmp .L325
 4231               	.LVL281:
 4232               	.L270:
 4233               	.LM630:
 4234 141a 0E94 0000 		call distance
 4235               	.LVL282:
 4236               	.LM631:
 4237 141e 84E6      		ldi r24,lo8(100)
 4238 1420 90E0      		ldi r25,hi8(100)
 4239 1422 0E94 0000 		call BotUp
 4240 1426 80ED      		ldi r24,lo8(2000)
 4241 1428 97E0      		ldi r25,hi8(2000)
 4242               	.LVL283:
 4243               	.L269:
 4244               	.LBB896:
 4245               	.LBB897:
 4246               	.LBB898:
 4247               	.LBB899:
 4248               	.LM632:
 4249 142a FE01      		movw r30,r28
 4250               	.LVL284:
 4251               	/* #APP */
 4252               	 ;  105 "c:/winavr-20080610/lib/gcc/../../avr/include/util/delay_basic.h" 1
 4253 142c 3197      		1: sbiw r30,1
 4254 142e 01F4      		brne 1b
 4255               	 ;  0 "" 2
 4256               	/* #NOAPP */
 4257               	.LBE899:
 4258               	.LBE898:
 4259               	.LM633:
 4260 1430 0197      		sbiw r24,1
 4261               	.LM634:
 4262 1432 01F4      		brne .L269
 4263 1434 00C0      		rjmp .L324
 4264               	.LVL285:
 4265               	.L325:
 4266               	.LBB901:
 4267               	.LBB900:
 4268               	.LM635:
 4269 1436 C0E7      		ldi r28,lo8(368)
 4270 1438 D1E0      		ldi r29,hi8(368)
 4271               	.LVL286:
 4272               	.L324:
 4273               	.LBE900:
 4274               	.LBE901:
 4275               	.LBE897:
 4276               	.LBE896:
 4277               	.LM636:
 4278 143a 8091 0000 		lds r24,a1
 4279 143e 9091 0000 		lds r25,(a1)+1
 4280               	.LVL287:
 4281 1442 8352      		subi r24,lo8(291)
 4282 1444 9140      		sbci r25,hi8(291)
 4283 1446 04F4      		brge .L270
 4284               	.LM637:
 4285 1448 8BE1      		ldi r24,lo8(27)
 4286 144a 90E0      		ldi r25,hi8(27)
 4287 144c 9093 0000 		sts (step)+1,r25
 4288 1450 8093 0000 		sts step,r24
 4289               	.L268:
 4290               	.LM638:
 4291 1454 8091 0000 		lds r24,step
 4292 1458 9091 0000 		lds r25,(step)+1
 4293 145c 4B97      		sbiw r24,27
 4294 145e 01F0      		breq .+2
 4295 1460 00C0      		rjmp .L280
 4296               	.LM639:
 4297 1462 85E0      		ldi r24,lo8(5)
 4298 1464 90E0      		ldi r25,hi8(5)
 4299 1466 0E94 0000 		call BotUp
 4300               	.LVL288:
 4301               	.LM640:
 4302 146a 84E6      		ldi r24,lo8(100)
 4303 146c 90E0      		ldi r25,hi8(100)
 4304 146e 0E94 0000 		call shiftdown
 4305 1472 80E2      		ldi r24,lo8(20000)
 4306 1474 9EE4      		ldi r25,hi8(20000)
 4307               	.LVL289:
 4308               	.LBB902:
 4309               	.LBB903:
 4310               	.LBB904:
 4311               	.LBB905:
 4312               	.LM641:
 4313 1476 20E7      		ldi r18,lo8(368)
 4314 1478 31E0      		ldi r19,hi8(368)
 4315               	.L272:
 4316 147a F901      		movw r30,r18
 4317               	.LVL290:
 4318               	/* #APP */
 4319               	 ;  105 "c:/winavr-20080610/lib/gcc/../../avr/include/util/delay_basic.h" 1
 4320 147c 3197      		1: sbiw r30,1
 4321 147e 01F4      		brne 1b
 4322               	 ;  0 "" 2
 4323               	/* #NOAPP */
 4324               	.LBE905:
 4325               	.LBE904:
 4326               	.LM642:
 4327 1480 0197      		sbiw r24,1
 4328               	.LM643:
 4329 1482 01F4      		brne .L272
 4330               	.LBE903:
 4331               	.LBE902:
 4332               	.LM644:
 4333 1484 0E94 0000 		call stop1
 4334               	.LVL291:
 4335               	.LM645:
 4336 1488 84E6      		ldi r24,lo8(100)
 4337 148a 90E0      		ldi r25,hi8(100)
 4338 148c 0E94 0000 		call shiftup
 4339 1490 80E1      		ldi r24,lo8(10000)
 4340 1492 97E2      		ldi r25,hi8(10000)
 4341               	.LVL292:
 4342               	.LBB906:
 4343               	.LBB907:
 4344               	.LBB908:
 4345               	.LBB909:
 4346               	.LM646:
 4347 1494 20E7      		ldi r18,lo8(368)
 4348 1496 31E0      		ldi r19,hi8(368)
 4349               	.L273:
 4350 1498 F901      		movw r30,r18
 4351               	.LVL293:
 4352               	/* #APP */
 4353               	 ;  105 "c:/winavr-20080610/lib/gcc/../../avr/include/util/delay_basic.h" 1
 4354 149a 3197      		1: sbiw r30,1
 4355 149c 01F4      		brne 1b
 4356               	 ;  0 "" 2
 4357               	/* #NOAPP */
 4358               	.LBE909:
 4359               	.LBE908:
 4360               	.LM647:
 4361 149e 0197      		sbiw r24,1
 4362               	.LM648:
 4363 14a0 01F4      		brne .L273
 4364               	.LBE907:
 4365               	.LBE906:
 4366               	.LM649:
 4367 14a2 0E94 0000 		call stop1
 4368               	.LVL294:
 4369               	.LM650:
 4370 14a6 84E6      		ldi r24,lo8(100)
 4371 14a8 90E0      		ldi r25,hi8(100)
 4372 14aa 0E94 0000 		call BotDown
 4373 14ae 88E9      		ldi r24,lo8(15000)
 4374 14b0 9AE3      		ldi r25,hi8(15000)
 4375               	.LVL295:
 4376               	.LBB910:
 4377               	.LBB911:
 4378               	.LBB912:
 4379               	.LBB913:
 4380               	.LM651:
 4381 14b2 20E7      		ldi r18,lo8(368)
 4382 14b4 31E0      		ldi r19,hi8(368)
 4383               	.L274:
 4384 14b6 F901      		movw r30,r18
 4385               	.LVL296:
 4386               	/* #APP */
 4387               	 ;  105 "c:/winavr-20080610/lib/gcc/../../avr/include/util/delay_basic.h" 1
 4388 14b8 3197      		1: sbiw r30,1
 4389 14ba 01F4      		brne 1b
 4390               	 ;  0 "" 2
 4391               	/* #NOAPP */
 4392               	.LBE913:
 4393               	.LBE912:
 4394               	.LM652:
 4395 14bc 0197      		sbiw r24,1
 4396               	.LM653:
 4397 14be 01F4      		brne .L274
 4398               	.LBE911:
 4399               	.LBE910:
 4400               	.LM654:
 4401 14c0 0E94 0000 		call stop1
 4402               	.LVL297:
 4403               	.LM655:
 4404 14c4 84E6      		ldi r24,lo8(100)
 4405 14c6 90E0      		ldi r25,hi8(100)
 4406 14c8 0E94 0000 		call shiftdown
 4407 14cc 80E1      		ldi r24,lo8(10000)
 4408 14ce 97E2      		ldi r25,hi8(10000)
 4409               	.LVL298:
 4410               	.LBB914:
 4411               	.LBB915:
 4412               	.LBB916:
 4413               	.LBB917:
 4414               	.LM656:
 4415 14d0 20E7      		ldi r18,lo8(368)
 4416 14d2 31E0      		ldi r19,hi8(368)
 4417               	.L275:
 4418 14d4 F901      		movw r30,r18
 4419               	.LVL299:
 4420               	/* #APP */
 4421               	 ;  105 "c:/winavr-20080610/lib/gcc/../../avr/include/util/delay_basic.h" 1
 4422 14d6 3197      		1: sbiw r30,1
 4423 14d8 01F4      		brne 1b
 4424               	 ;  0 "" 2
 4425               	/* #NOAPP */
 4426               	.LBE917:
 4427               	.LBE916:
 4428               	.LM657:
 4429 14da 0197      		sbiw r24,1
 4430               	.LM658:
 4431 14dc 01F4      		brne .L275
 4432               	.LBE915:
 4433               	.LBE914:
 4434               	.LM659:
 4435 14de 0E94 0000 		call stop1
 4436               	.LVL300:
 4437               	.LM660:
 4438 14e2 84E6      		ldi r24,lo8(100)
 4439 14e4 90E0      		ldi r25,hi8(100)
 4440 14e6 0E94 0000 		call BotUp
 4441 14ea 80E1      		ldi r24,lo8(10000)
 4442 14ec 97E2      		ldi r25,hi8(10000)
 4443               	.LVL301:
 4444               	.LBB918:
 4445               	.LBB919:
 4446               	.LBB920:
 4447               	.LBB921:
 4448               	.LM661:
 4449 14ee 20E7      		ldi r18,lo8(368)
 4450 14f0 31E0      		ldi r19,hi8(368)
 4451               	.L276:
 4452 14f2 F901      		movw r30,r18
 4453               	.LVL302:
 4454               	/* #APP */
 4455               	 ;  105 "c:/winavr-20080610/lib/gcc/../../avr/include/util/delay_basic.h" 1
 4456 14f4 3197      		1: sbiw r30,1
 4457 14f6 01F4      		brne 1b
 4458               	 ;  0 "" 2
 4459               	/* #NOAPP */
 4460               	.LBE921:
 4461               	.LBE920:
 4462               	.LM662:
 4463 14f8 0197      		sbiw r24,1
 4464               	.LM663:
 4465 14fa 01F4      		brne .L276
 4466               	.LBE919:
 4467               	.LBE918:
 4468               	.LM664:
 4469 14fc 0E94 0000 		call stop1
 4470               	.LVL303:
 4471               	.LM665:
 4472 1500 84E6      		ldi r24,lo8(100)
 4473 1502 90E0      		ldi r25,hi8(100)
 4474 1504 0E94 0000 		call shiftup
 4475               	.LM666:
 4476 1508 84E6      		ldi r24,lo8(100)
 4477 150a 90E0      		ldi r25,hi8(100)
 4478 150c 0E94 0000 		call BotDown
 4479 1510 80E1      		ldi r24,lo8(10000)
 4480 1512 97E2      		ldi r25,hi8(10000)
 4481               	.LVL304:
 4482               	.LBB922:
 4483               	.LBB923:
 4484               	.LBB924:
 4485               	.LBB925:
 4486               	.LM667:
 4487 1514 20E7      		ldi r18,lo8(368)
 4488 1516 31E0      		ldi r19,hi8(368)
 4489               	.L277:
 4490 1518 F901      		movw r30,r18
 4491               	.LVL305:
 4492               	/* #APP */
 4493               	 ;  105 "c:/winavr-20080610/lib/gcc/../../avr/include/util/delay_basic.h" 1
 4494 151a 3197      		1: sbiw r30,1
 4495 151c 01F4      		brne 1b
 4496               	 ;  0 "" 2
 4497               	/* #NOAPP */
 4498               	.LBE925:
 4499               	.LBE924:
 4500               	.LM668:
 4501 151e 0197      		sbiw r24,1
 4502               	.LM669:
 4503 1520 01F4      		brne .L277
 4504               	.LBE923:
 4505               	.LBE922:
 4506               	.LM670:
 4507 1522 0E94 0000 		call stop1
 4508               	.LVL306:
 4509               	.LM671:
 4510 1526 8CE1      		ldi r24,lo8(28)
 4511 1528 90E0      		ldi r25,hi8(28)
 4512 152a 9093 0000 		sts (step)+1,r25
 4513 152e 8093 0000 		sts step,r24
 4514 1532 80E1      		ldi r24,lo8(10000)
 4515 1534 97E2      		ldi r25,hi8(10000)
 4516               	.LVL307:
 4517               	.LBB926:
 4518               	.LBB927:
 4519               	.LBB928:
 4520               	.LBB929:
 4521               	.LM672:
 4522 1536 20E7      		ldi r18,lo8(368)
 4523 1538 31E0      		ldi r19,hi8(368)
 4524               	.L278:
 4525 153a F901      		movw r30,r18
 4526               	.LVL308:
 4527               	/* #APP */
 4528               	 ;  105 "c:/winavr-20080610/lib/gcc/../../avr/include/util/delay_basic.h" 1
 4529 153c 3197      		1: sbiw r30,1
 4530 153e 01F4      		brne 1b
 4531               	 ;  0 "" 2
 4532               	/* #NOAPP */
 4533               	.LBE929:
 4534               	.LBE928:
 4535               	.LM673:
 4536 1540 0197      		sbiw r24,1
 4537               	.LM674:
 4538 1542 01F4      		brne .L278
 4539               	.LBE927:
 4540               	.LBE926:
 4541               	.LM675:
 4542 1544 8091 0501 		lds r24,261
 4543               	.LVL309:
 4544 1548 8860      		ori r24,lo8(8)
 4545 154a 8093 0501 		sts 261,r24
 4546 154e 80ED      		ldi r24,lo8(2000)
 4547 1550 97E0      		ldi r25,hi8(2000)
 4548               	.LVL310:
 4549               	.LBB930:
 4550               	.LBB931:
 4551               	.LBB932:
 4552               	.LBB933:
 4553               	.LM676:
 4554 1552 20E7      		ldi r18,lo8(368)
 4555 1554 31E0      		ldi r19,hi8(368)
 4556               	.L279:
 4557 1556 F901      		movw r30,r18
 4558               	.LVL311:
 4559               	/* #APP */
 4560               	 ;  105 "c:/winavr-20080610/lib/gcc/../../avr/include/util/delay_basic.h" 1
 4561 1558 3197      		1: sbiw r30,1
 4562 155a 01F4      		brne 1b
 4563               	 ;  0 "" 2
 4564               	/* #NOAPP */
 4565               	.LBE933:
 4566               	.LBE932:
 4567               	.LM677:
 4568 155c 0197      		sbiw r24,1
 4569               	.LM678:
 4570 155e 01F4      		brne .L279
 4571               	.LBE931:
 4572               	.LBE930:
 4573               	.LM679:
 4574 1560 8091 0501 		lds r24,261
 4575               	.LVL312:
 4576 1564 877F      		andi r24,lo8(-9)
 4577 1566 8093 0501 		sts 261,r24
 4578               	.LM680:
 4579 156a 0E94 0000 		call stop1
 4580               	.LVL313:
 4581               	.L280:
 4582               	/* epilogue start */
 4583               	.LM681:
 4584 156e DF91      		pop r29
 4585 1570 CF91      		pop r28
 4586 1572 0895      		ret
 4587               	.LFE47:
 4589               	.global	rightanti
 4591               	rightanti:
 4592               	.LFB33:
 4593               	.LM682:
 4594               	.LVL314:
 4595               	/* prologue: function */
 4596               	/* frame size = 0 */
 4597               	.LM683:
 4598 1574 21E0      		ldi r18,lo8(1)
 4599 1576 30E0      		ldi r19,hi8(1)
 4600 1578 3093 0000 		sts (flag)+1,r19
 4601 157c 2093 0000 		sts flag,r18
 4602               	.LM684:
 4603 1580 9C01      		movw r18,r24
 4604 1582 40E1      		ldi r20,lo8(10000)
 4605 1584 57E2      		ldi r21,hi8(10000)
 4606 1586 62E6      		ldi r22,lo8(98)
 4607 1588 83E3      		ldi r24,lo8(51)
 4608               	.LVL315:
 4609 158a 0E94 0000 		call PWM
 4610               	.LVL316:
 4611               	.LM685:
 4612 158e E2E0      		ldi r30,lo8(258)
 4613 1590 F1E0      		ldi r31,hi8(258)
 4614 1592 8081      		ld r24,Z
 4615 1594 8F77      		andi r24,lo8(127)
 4616 1596 8083      		st Z,r24
 4617               	/* epilogue start */
 4618               	.LM686:
 4619 1598 0895      		ret
 4620               	.LFE33:
 4622               	.global	rightclock
 4624               	rightclock:
 4625               	.LFB32:
 4626               	.LM687:
 4627               	.LVL317:
 4628               	/* prologue: function */
 4629               	/* frame size = 0 */
 4630               	.LM688:
 4631 159a 21E0      		ldi r18,lo8(1)
 4632 159c 30E0      		ldi r19,hi8(1)
 4633 159e 3093 0000 		sts (flag)+1,r19
 4634 15a2 2093 0000 		sts flag,r18
 4635               	.LM689:
 4636 15a6 9C01      		movw r18,r24
 4637 15a8 40E1      		ldi r20,lo8(10000)
 4638 15aa 57E2      		ldi r21,hi8(10000)
 4639 15ac 62E6      		ldi r22,lo8(98)
 4640 15ae 83E3      		ldi r24,lo8(51)
 4641               	.LVL318:
 4642 15b0 0E94 0000 		call PWM
 4643               	.LVL319:
 4644               	.LM690:
 4645 15b4 E2E0      		ldi r30,lo8(258)
 4646 15b6 F1E0      		ldi r31,hi8(258)
 4647 15b8 8081      		ld r24,Z
 4648 15ba 8068      		ori r24,lo8(-128)
 4649 15bc 8083      		st Z,r24
 4650               	/* epilogue start */
 4651               	.LM691:
 4652 15be 0895      		ret
 4653               	.LFE32:
 4655               	.global	leftclock
 4657               	leftclock:
 4658               	.LFB31:
 4659               	.LM692:
 4660               	.LVL320:
 4661               	/* prologue: function */
 4662               	/* frame size = 0 */
 4663               	.LM693:
 4664 15c0 21E0      		ldi r18,lo8(1)
 4665 15c2 30E0      		ldi r19,hi8(1)
 4666 15c4 3093 0000 		sts (flag)+1,r19
 4667 15c8 2093 0000 		sts flag,r18
 4668               	.LM694:
 4669 15cc 9C01      		movw r18,r24
 4670 15ce 40E1      		ldi r20,lo8(10000)
 4671 15d0 57E2      		ldi r21,hi8(10000)
 4672 15d2 61E6      		ldi r22,lo8(97)
 4673 15d4 83E3      		ldi r24,lo8(51)
 4674               	.LVL321:
 4675 15d6 0E94 0000 		call PWM
 4676               	.LVL322:
 4677               	.LM695:
 4678 15da E2E0      		ldi r30,lo8(258)
 4679 15dc F1E0      		ldi r31,hi8(258)
 4680 15de 8081      		ld r24,Z
 4681 15e0 8F7B      		andi r24,lo8(-65)
 4682 15e2 8083      		st Z,r24
 4683               	/* epilogue start */
 4684               	.LM696:
 4685 15e4 0895      		ret
 4686               	.LFE31:
 4688               	.global	retract
 4690               	retract:
 4691               	.LFB44:
 4692               	.LM697:
 4693               	/* prologue: function */
 4694               	/* frame size = 0 */
 4695               	.LBB934:
 4696               	.LBB935:
 4697               	.LM698:
 4698 15e6 8091 7A00 		lds r24,122
 4699 15ea 8064      		ori r24,lo8(64)
 4700 15ec 8093 7A00 		sts 122,r24
 4701               	.L333:
 4702               	.LM699:
 4703 15f0 8091 7A00 		lds r24,122
 4704 15f4 84FF      		sbrs r24,4
 4705 15f6 00C0      		rjmp .L333
 4706               	.LM700:
 4707 15f8 2091 7800 		lds r18,120
 4708               	.LM701:
 4709 15fc 4091 7900 		lds r20,121
 4710               	.LBB936:
 4711               	.LBB937:
 4712               	.LBB938:
 4713               	.LBB939:
 4714               	.LM702:
 4715 1600 84EC      		ldi r24,lo8(-60)
 4716               	.LVL323:
 4717               	/* #APP */
 4718               	 ;  83 "c:/winavr-20080610/lib/gcc/../../avr/include/util/delay_basic.h" 1
 4719 1602 8A95      		1: dec r24
 4720 1604 01F4      		brne 1b
 4721               	 ;  0 "" 2
 4722               	/* #NOAPP */
 4723               	.LBE939:
 4724               	.LBE938:
 4725               	.LBE937:
 4726               	.LBE936:
 4727               	.LBE935:
 4728               	.LBE934:
 4729               	.LM703:
 4730 1606 942F      		mov r25,r20
 4731 1608 80E0      		ldi r24,lo8(0)
 4732               	.LVL324:
 4733 160a 30E0      		ldi r19,lo8(0)
 4734 160c 822B      		or r24,r18
 4735 160e 932B      		or r25,r19
 4736 1610 9093 0000 		sts (a2)+1,r25
 4737 1614 8093 0000 		sts a2,r24
 4738               	.LM704:
 4739 1618 8091 7C00 		lds r24,124
 4740 161c 8260      		ori r24,lo8(2)
 4741 161e 8093 7C00 		sts 124,r24
 4742               	.LM705:
 4743 1622 8091 7C00 		lds r24,124
 4744 1626 8E7F      		andi r24,lo8(-2)
 4745 1628 8093 7C00 		sts 124,r24
 4746               	.LBB940:
 4747               	.LBB941:
 4748               	.LM706:
 4749 162c 8091 7A00 		lds r24,122
 4750 1630 8064      		ori r24,lo8(64)
 4751 1632 8093 7A00 		sts 122,r24
 4752               	.L334:
 4753               	.LM707:
 4754 1636 8091 7A00 		lds r24,122
 4755 163a 84FF      		sbrs r24,4
 4756 163c 00C0      		rjmp .L334
 4757               	.LM708:
 4758 163e 2091 7800 		lds r18,120
 4759 1642 30E0      		ldi r19,lo8(0)
 4760 1644 3093 0000 		sts (x1)+1,r19
 4761 1648 2093 0000 		sts x1,r18
 4762               	.LM709:
 4763 164c 4091 7900 		lds r20,121
 4764               	.LM710:
 4765 1650 942F      		mov r25,r20
 4766 1652 80E0      		ldi r24,lo8(0)
 4767 1654 822B      		or r24,r18
 4768 1656 932B      		or r25,r19
 4769 1658 9093 0000 		sts (temp)+1,r25
 4770 165c 8093 0000 		sts temp,r24
 4771               	.LBB942:
 4772               	.LBB943:
 4773               	.LBB944:
 4774               	.LBB945:
 4775               	.LM711:
 4776 1660 24EC      		ldi r18,lo8(-60)
 4777               	.LVL325:
 4778               	/* #APP */
 4779               	 ;  83 "c:/winavr-20080610/lib/gcc/../../avr/include/util/delay_basic.h" 1
 4780 1662 2A95      		1: dec r18
 4781 1664 01F4      		brne 1b
 4782               	 ;  0 "" 2
 4783               	/* #NOAPP */
 4784               	.LBE945:
 4785               	.LBE944:
 4786               	.LBE943:
 4787               	.LBE942:
 4788               	.LBE941:
 4789               	.LBE940:
 4790               	.LM712:
 4791 1666 9093 0000 		sts (a1)+1,r25
 4792 166a 8093 0000 		sts a1,r24
 4793               	.LM713:
 4794 166e 8091 7C00 		lds r24,124
 4795 1672 8160      		ori r24,lo8(1)
 4796 1674 8093 7C00 		sts 124,r24
 4797               	.LM714:
 4798 1678 8091 7C00 		lds r24,124
 4799 167c 8D7F      		andi r24,lo8(-3)
 4800 167e 8093 7C00 		sts 124,r24
 4801               	.LM715:
 4802 1682 0E94 0000 		call reswing
 4803               	.LVL326:
 4804               	.LM716:
 4805 1686 8091 0000 		lds r24,flagre
 4806 168a 9091 0000 		lds r25,(flagre)+1
 4807 168e 0197      		sbiw r24,1
 4808 1690 01F4      		brne .L335
 4809               	.LM717:
 4810 1692 8091 0000 		lds r24,a1
 4811 1696 9091 0000 		lds r25,(a1)+1
 4812 169a 8154      		subi r24,lo8(321)
 4813 169c 9140      		sbci r25,hi8(321)
 4814 169e 04F0      		brlt .L336
 4815               	.LM718:
 4816 16a0 86E4      		ldi r24,lo8(70)
 4817 16a2 90E0      		ldi r25,hi8(70)
 4818 16a4 0E94 0000 		call rightclock
 4819 16a8 00C0      		rjmp .L335
 4820               	.L336:
 4821               	.LM719:
 4822 16aa 0E94 0000 		call stop1
 4823               	.LM720:
 4824 16ae 82E0      		ldi r24,lo8(2)
 4825 16b0 90E0      		ldi r25,hi8(2)
 4826 16b2 9093 0000 		sts (flagre)+1,r25
 4827 16b6 8093 0000 		sts flagre,r24
 4828               	.L335:
 4829               	.LM721:
 4830 16ba 8091 0000 		lds r24,flagre
 4831 16be 9091 0000 		lds r25,(flagre)+1
 4832 16c2 0297      		sbiw r24,2
 4833 16c4 01F4      		brne .L339
 4834               	.LM722:
 4835 16c6 8091 0000 		lds r24,a2
 4836 16ca 9091 0000 		lds r25,(a2)+1
 4837 16ce 8B54      		subi r24,lo8(331)
 4838 16d0 9140      		sbci r25,hi8(331)
 4839 16d2 04F0      		brlt .L338
 4840               	.LM723:
 4841 16d4 86E4      		ldi r24,lo8(70)
 4842 16d6 90E0      		ldi r25,hi8(70)
 4843 16d8 0E94 0000 		call leftclock
 4844 16dc 0895      		ret
 4845               	.L338:
 4846               	.LM724:
 4847 16de 0E94 0000 		call stop1
 4848               	.LM725:
 4849 16e2 83E0      		ldi r24,lo8(3)
 4850 16e4 90E0      		ldi r25,hi8(3)
 4851 16e6 9093 0000 		sts (flagre)+1,r25
 4852 16ea 8093 0000 		sts flagre,r24
 4853               	.L339:
 4854 16ee 0895      		ret
 4855               	.LFE44:
 4857               	.global	leftanti
 4859               	leftanti:
 4860               	.LFB30:
 4861               	.LM726:
 4862               	.LVL327:
 4863               	/* prologue: function */
 4864               	/* frame size = 0 */
 4865               	.LM727:
 4866 16f0 21E0      		ldi r18,lo8(1)
 4867 16f2 30E0      		ldi r19,hi8(1)
 4868 16f4 3093 0000 		sts (flag)+1,r19
 4869 16f8 2093 0000 		sts flag,r18
 4870               	.LM728:
 4871 16fc 9C01      		movw r18,r24
 4872 16fe 40E1      		ldi r20,lo8(10000)
 4873 1700 57E2      		ldi r21,hi8(10000)
 4874 1702 61E6      		ldi r22,lo8(97)
 4875 1704 83E3      		ldi r24,lo8(51)
 4876               	.LVL328:
 4877 1706 0E94 0000 		call PWM
 4878               	.LVL329:
 4879               	.LM729:
 4880 170a E2E0      		ldi r30,lo8(258)
 4881 170c F1E0      		ldi r31,hi8(258)
 4882 170e 8081      		ld r24,Z
 4883 1710 8064      		ori r24,lo8(64)
 4884 1712 8083      		st Z,r24
 4885               	/* epilogue start */
 4886               	.LM730:
 4887 1714 0895      		ret
 4888               	.LFE30:
 4890               	.global	manual
 4892               	manual:
 4893               	.LFB48:
 4894               	.LM731:
 4895 1716 FF92      		push r15
 4896 1718 0F93      		push r16
 4897 171a 1F93      		push r17
 4898 171c CF93      		push r28
 4899 171e DF93      		push r29
 4900               	/* prologue: function */
 4901               	/* frame size = 0 */
 4902               	.LBB946:
 4903               	.LBB947:
 4904               	.LBB948:
 4905               	.LBB949:
 4906               	.LBB950:
 4907               	.LBB951:
 4908               	.LM732:
 4909 1720 E4EC      		ldi r30,lo8(-60)
 4910 1722 FE2E      		mov r15,r30
 4911               	.L373:
 4912               	.LBE951:
 4913               	.LBE950:
 4914               	.LBE949:
 4915               	.LBE948:
 4916               	.LM733:
 4917 1724 8091 7A00 		lds r24,122
 4918 1728 8064      		ori r24,lo8(64)
 4919 172a 8093 7A00 		sts 122,r24
 4920               	.L346:
 4921               	.LM734:
 4922 172e 8091 7A00 		lds r24,122
 4923 1732 84FF      		sbrs r24,4
 4924 1734 00C0      		rjmp .L346
 4925               	.LM735:
 4926 1736 8091 7800 		lds r24,120
 4927               	.LM736:
 4928 173a 2091 7900 		lds r18,121
 4929               	.LBB955:
 4930               	.LBB954:
 4931               	.LBB953:
 4932               	.LBB952:
 4933               	.LM737:
 4934 173e 9F2D      		mov r25,r15
 4935               	.LVL330:
 4936               	/* #APP */
 4937               	 ;  83 "c:/winavr-20080610/lib/gcc/../../avr/include/util/delay_basic.h" 1
 4938 1740 9A95      		1: dec r25
 4939 1742 01F4      		brne 1b
 4940               	 ;  0 "" 2
 4941               	/* #NOAPP */
 4942               	.LBE952:
 4943               	.LBE953:
 4944               	.LBE954:
 4945               	.LBE955:
 4946               	.LBE947:
 4947               	.LBE946:
 4948               	.LM738:
 4949 1744 D22F      		mov r29,r18
 4950 1746 C0E0      		ldi r28,lo8(0)
 4951 1748 90E0      		ldi r25,lo8(0)
 4952               	.LVL331:
 4953 174a 8C2B      		or r24,r28
 4954 174c 9D2B      		or r25,r29
 4955 174e 9093 0000 		sts (a2)+1,r25
 4956 1752 8093 0000 		sts a2,r24
 4957               	.LM739:
 4958 1756 8091 7C00 		lds r24,124
 4959 175a 8260      		ori r24,lo8(2)
 4960 175c 8093 7C00 		sts 124,r24
 4961               	.LM740:
 4962 1760 8091 7C00 		lds r24,124
 4963 1764 8E7F      		andi r24,lo8(-2)
 4964 1766 8093 7C00 		sts 124,r24
 4965               	.LBB956:
 4966               	.LBB957:
 4967               	.LM741:
 4968 176a 8091 7A00 		lds r24,122
 4969 176e 8064      		ori r24,lo8(64)
 4970 1770 8093 7A00 		sts 122,r24
 4971               	.L347:
 4972               	.LM742:
 4973 1774 8091 7A00 		lds r24,122
 4974 1778 84FF      		sbrs r24,4
 4975 177a 00C0      		rjmp .L347
 4976               	.LM743:
 4977 177c 8091 7800 		lds r24,120
 4978 1780 90E0      		ldi r25,lo8(0)
 4979 1782 9093 0000 		sts (x1)+1,r25
 4980 1786 8093 0000 		sts x1,r24
 4981               	.LM744:
 4982 178a 2091 7900 		lds r18,121
 4983               	.LM745:
 4984 178e 122F      		mov r17,r18
 4985 1790 00E0      		ldi r16,lo8(0)
 4986 1792 802B      		or r24,r16
 4987 1794 912B      		or r25,r17
 4988 1796 9093 0000 		sts (temp)+1,r25
 4989 179a 8093 0000 		sts temp,r24
 4990               	.LBB958:
 4991               	.LBB959:
 4992               	.LBB960:
 4993               	.LBB961:
 4994               	.LM746:
 4995 179e 2F2D      		mov r18,r15
 4996               	.LVL332:
 4997               	/* #APP */
 4998               	 ;  83 "c:/winavr-20080610/lib/gcc/../../avr/include/util/delay_basic.h" 1
 4999 17a0 2A95      		1: dec r18
 5000 17a2 01F4      		brne 1b
 5001               	 ;  0 "" 2
 5002               	/* #NOAPP */
 5003               	.LBE961:
 5004               	.LBE960:
 5005               	.LBE959:
 5006               	.LBE958:
 5007               	.LBE957:
 5008               	.LBE956:
 5009               	.LM747:
 5010 17a4 9093 0000 		sts (a1)+1,r25
 5011 17a8 8093 0000 		sts a1,r24
 5012               	.LM748:
 5013 17ac 8091 7C00 		lds r24,124
 5014 17b0 8160      		ori r24,lo8(1)
 5015 17b2 8093 7C00 		sts 124,r24
 5016               	.LM749:
 5017 17b6 8091 7C00 		lds r24,124
 5018 17ba 8D7F      		andi r24,lo8(-3)
 5019 17bc 8093 7C00 		sts 124,r24
 5020               	.LM750:
 5021 17c0 80E0      		ldi r24,lo8(0)
 5022 17c2 0E94 0000 		call lcd_gotoxy1
 5023               	.LVL333:
 5024               	.LM751:
 5025 17c6 6091 0000 		lds r22,a2
 5026 17ca 7091 0000 		lds r23,(a2)+1
 5027 17ce 8827      		clr r24
 5028 17d0 77FD      		sbrc r23,7
 5029 17d2 8095      		com r24
 5030 17d4 982F      		mov r25,r24
 5031 17d6 0E94 0000 		call lcd_showvalue
 5032               	.LM752:
 5033 17da 80E0      		ldi r24,lo8(0)
 5034 17dc 0E94 0000 		call lcd_gotoxy2
 5035               	.LM753:
 5036 17e0 6091 0000 		lds r22,a1
 5037 17e4 7091 0000 		lds r23,(a1)+1
 5038 17e8 8827      		clr r24
 5039 17ea 77FD      		sbrc r23,7
 5040 17ec 8095      		com r24
 5041 17ee 982F      		mov r25,r24
 5042 17f0 0E94 0000 		call lcd_showvalue
 5043               	.LM754:
 5044 17f4 1F99      		sbic 35-32,7
 5045 17f6 00C0      		rjmp .L348
 5046               	.LM755:
 5047 17f8 1F99      		sbic 35-32,7
 5048 17fa 00C0      		rjmp .L349
 5049               	.LM756:
 5050 17fc 1F99      		sbic 35-32,7
 5051 17fe 00C0      		rjmp .L349
 5052               	.LM757:
 5053 1800 88E0      		ldi r24,lo8(8)
 5054 1802 0E94 0000 		call lcd_gotoxy2
 5055               	.LM758:
 5056 1806 60E0      		ldi r22,lo8(0)
 5057 1808 70E0      		ldi r23,hi8(0)
 5058 180a 80E0      		ldi r24,hlo8(0)
 5059 180c 90E0      		ldi r25,hhi8(0)
 5060 180e 00C0      		rjmp .L375
 5061               	.L348:
 5062               	.LM759:
 5063 1810 88E0      		ldi r24,lo8(8)
 5064 1812 0E94 0000 		call lcd_gotoxy2
 5065               	.LM760:
 5066 1816 61E0      		ldi r22,lo8(1)
 5067 1818 70E0      		ldi r23,hi8(1)
 5068 181a 80E0      		ldi r24,hlo8(1)
 5069 181c 90E0      		ldi r25,hhi8(1)
 5070               	.L375:
 5071 181e 0E94 0000 		call lcd_showvalue
 5072               	.L349:
 5073               	.LM761:
 5074 1822 0E94 0000 		call joystick_poll
 5075               	.LM762:
 5076 1826 8091 0000 		lds r24,data0
 5077 182a 9091 0000 		lds r25,(data0)+1
 5078 182e 8037      		cpi r24,112
 5079 1830 9105      		cpc r25,__zero_reg__
 5080 1832 01F0      		breq .L354
 5081 1834 8137      		cpi r24,113
 5082 1836 9105      		cpc r25,__zero_reg__
 5083 1838 04F4      		brge .L358
 5084 183a 8031      		cpi r24,16
 5085 183c 9105      		cpc r25,__zero_reg__
 5086 183e 01F0      		breq .L352
 5087 1840 8033      		cpi r24,48
 5088 1842 9105      		cpc r25,__zero_reg__
 5089 1844 01F0      		breq .L353
 5090 1846 892B      		or r24,r25
 5091 1848 01F0      		breq .L351
 5092 184a 00C0      		rjmp .L350
 5093               	.L358:
 5094 184c 803C      		cpi r24,192
 5095 184e 9105      		cpc r25,__zero_reg__
 5096 1850 01F0      		breq .L356
 5097 1852 803E      		cpi r24,224
 5098 1854 9105      		cpc r25,__zero_reg__
 5099 1856 01F0      		breq .L357
 5100 1858 8038      		cpi r24,128
 5101 185a 9105      		cpc r25,__zero_reg__
 5102 185c 01F4      		brne .L350
 5103 185e 00C0      		rjmp .L376
 5104               	.L351:
 5105               	.LM763:
 5106 1860 8CE3      		ldi r24,lo8(60)
 5107 1862 90E0      		ldi r25,hi8(60)
 5108 1864 0E94 0000 		call leftclock
 5109 1868 00C0      		rjmp .L359
 5110               	.L353:
 5111               	.LM764:
 5112 186a 8CE3      		ldi r24,lo8(60)
 5113 186c 90E0      		ldi r25,hi8(60)
 5114 186e 0E94 0000 		call leftanti
 5115 1872 00C0      		rjmp .L359
 5116               	.L354:
 5117               	.LM765:
 5118 1874 8CE3      		ldi r24,lo8(60)
 5119 1876 90E0      		ldi r25,hi8(60)
 5120 1878 0E94 0000 		call rightclock
 5121 187c 00C0      		rjmp .L359
 5122               	.L352:
 5123               	.LM766:
 5124 187e 8CE3      		ldi r24,lo8(60)
 5125 1880 90E0      		ldi r25,hi8(60)
 5126 1882 0E94 0000 		call rightanti
 5127 1886 00C0      		rjmp .L359
 5128               	.L356:
 5129               	.LM767:
 5130 1888 80E5      		ldi r24,lo8(80)
 5131 188a 90E0      		ldi r25,hi8(80)
 5132 188c 0E94 0000 		call shiftup
 5133 1890 00C0      		rjmp .L359
 5134               	.L376:
 5135               	.LM768:
 5136 1892 84E6      		ldi r24,lo8(100)
 5137 1894 90E0      		ldi r25,hi8(100)
 5138 1896 0E94 0000 		call BotUp
 5139 189a 00C0      		rjmp .L359
 5140               	.L357:
 5141               	.LM769:
 5142 189c 84E6      		ldi r24,lo8(100)
 5143 189e 90E0      		ldi r25,hi8(100)
 5144 18a0 0E94 0000 		call BotDown
 5145 18a4 00C0      		rjmp .L359
 5146               	.L350:
 5147               	.LM770:
 5148 18a6 0E94 0000 		call stop1
 5149               	.L359:
 5150               	.LM771:
 5151 18aa 8091 0000 		lds r24,data1
 5152 18ae 9091 0000 		lds r25,(data1)+1
 5153 18b2 8F37      		cpi r24,127
 5154 18b4 9105      		cpc r25,__zero_reg__
 5155 18b6 01F0      		breq .L363
 5156 18b8 8038      		cpi r24,128
 5157 18ba 9105      		cpc r25,__zero_reg__
 5158 18bc 04F4      		brge .L368
 5159 18be 8F31      		cpi r24,31
 5160 18c0 9105      		cpc r25,__zero_reg__
 5161 18c2 01F0      		breq .L361
 5162 18c4 8F33      		cpi r24,63
 5163 18c6 9105      		cpc r25,__zero_reg__
 5164 18c8 01F0      		breq .L362
 5165 18ca 0F97      		sbiw r24,15
 5166 18cc 01F0      		breq .+2
 5167 18ce 00C0      		rjmp .L373
 5168 18d0 00C0      		rjmp .L377
 5169               	.L368:
 5170 18d2 833C      		cpi r24,195
 5171 18d4 9105      		cpc r25,__zero_reg__
 5172 18d6 01F0      		breq .L365
 5173 18d8 843C      		cpi r24,196
 5174 18da 9105      		cpc r25,__zero_reg__
 5175 18dc 04F4      		brge .L369
 5176 18de 8738      		cpi r24,135
 5177 18e0 9105      		cpc r25,__zero_reg__
 5178 18e2 01F0      		breq .+2
 5179 18e4 00C0      		rjmp .L373
 5180 18e6 00C0      		rjmp .L378
 5181               	.L369:
 5182 18e8 803E      		cpi r24,224
 5183 18ea 9105      		cpc r25,__zero_reg__
 5184 18ec 01F0      		breq .L366
 5185 18ee 8552      		subi r24,lo8(293)
 5186 18f0 9140      		sbci r25,hi8(293)
 5187 18f2 01F0      		breq .+2
 5188 18f4 00C0      		rjmp .L373
 5189 18f6 00C0      		rjmp .L379
 5190               	.L378:
 5191               	.LM772:
 5192 18f8 8091 0501 		lds r24,261
 5193 18fc 8F7B      		andi r24,lo8(-65)
 5194 18fe 00C0      		rjmp .L374
 5195               	.L379:
 5196               	.LM773:
 5197 1900 8091 0501 		lds r24,261
 5198 1904 8064      		ori r24,lo8(64)
 5199 1906 00C0      		rjmp .L374
 5200               	.L366:
 5201               	.LM774:
 5202 1908 8091 0501 		lds r24,261
 5203 190c 8F7D      		andi r24,lo8(-33)
 5204 190e 00C0      		rjmp .L374
 5205               	.L365:
 5206               	.LM775:
 5207 1910 8091 0501 		lds r24,261
 5208 1914 8062      		ori r24,lo8(32)
 5209 1916 00C0      		rjmp .L374
 5210               	.L377:
 5211               	.LM776:
 5212 1918 8091 0501 		lds r24,261
 5213 191c 8068      		ori r24,lo8(-128)
 5214 191e 00C0      		rjmp .L374
 5215               	.L362:
 5216               	.LM777:
 5217 1920 8091 0501 		lds r24,261
 5218 1924 8F77      		andi r24,lo8(127)
 5219 1926 00C0      		rjmp .L374
 5220               	.L361:
 5221               	.LM778:
 5222 1928 8091 0501 		lds r24,261
 5223 192c 8061      		ori r24,lo8(16)
 5224 192e 00C0      		rjmp .L374
 5225               	.L363:
 5226               	.LM779:
 5227 1930 8091 0501 		lds r24,261
 5228 1934 8F7E      		andi r24,lo8(-17)
 5229               	.L374:
 5230 1936 8093 0501 		sts 261,r24
 5231 193a 00C0      		rjmp .L373
 5232               	.LFE48:
 5234               	.global	poll_walk
 5236               	poll_walk:
 5237               	.LFB45:
 5238               	.LM780:
 5239               	/* prologue: function */
 5240               	/* frame size = 0 */
 5241               	.LBB962:
 5242               	.LBB963:
 5243               	.LM781:
 5244 193c 8091 7A00 		lds r24,122
 5245 1940 8064      		ori r24,lo8(64)
 5246 1942 8093 7A00 		sts 122,r24
 5247               	.L381:
 5248               	.LM782:
 5249 1946 8091 7A00 		lds r24,122
 5250 194a 84FF      		sbrs r24,4
 5251 194c 00C0      		rjmp .L381
 5252               	.LM783:
 5253 194e 2091 7800 		lds r18,120
 5254               	.LM784:
 5255 1952 4091 7900 		lds r20,121
 5256               	.LBB964:
 5257               	.LBB965:
 5258               	.LBB966:
 5259               	.LBB967:
 5260               	.LM785:
 5261 1956 84EC      		ldi r24,lo8(-60)
 5262               	.LVL334:
 5263               	/* #APP */
 5264               	 ;  83 "c:/winavr-20080610/lib/gcc/../../avr/include/util/delay_basic.h" 1
 5265 1958 8A95      		1: dec r24
 5266 195a 01F4      		brne 1b
 5267               	 ;  0 "" 2
 5268               	/* #NOAPP */
 5269               	.LBE967:
 5270               	.LBE966:
 5271               	.LBE965:
 5272               	.LBE964:
 5273               	.LBE963:
 5274               	.LBE962:
 5275               	.LM786:
 5276 195c 942F      		mov r25,r20
 5277 195e 80E0      		ldi r24,lo8(0)
 5278               	.LVL335:
 5279 1960 30E0      		ldi r19,lo8(0)
 5280 1962 822B      		or r24,r18
 5281 1964 932B      		or r25,r19
 5282 1966 9093 0000 		sts (a2)+1,r25
 5283 196a 8093 0000 		sts a2,r24
 5284               	.LM787:
 5285 196e 8091 7C00 		lds r24,124
 5286 1972 8260      		ori r24,lo8(2)
 5287 1974 8093 7C00 		sts 124,r24
 5288               	.LM788:
 5289 1978 8091 7C00 		lds r24,124
 5290 197c 8E7F      		andi r24,lo8(-2)
 5291 197e 8093 7C00 		sts 124,r24
 5292               	.LBB968:
 5293               	.LBB969:
 5294               	.LM789:
 5295 1982 8091 7A00 		lds r24,122
 5296 1986 8064      		ori r24,lo8(64)
 5297 1988 8093 7A00 		sts 122,r24
 5298               	.L382:
 5299               	.LM790:
 5300 198c 8091 7A00 		lds r24,122
 5301 1990 84FF      		sbrs r24,4
 5302 1992 00C0      		rjmp .L382
 5303               	.LM791:
 5304 1994 2091 7800 		lds r18,120
 5305 1998 30E0      		ldi r19,lo8(0)
 5306 199a 3093 0000 		sts (x1)+1,r19
 5307 199e 2093 0000 		sts x1,r18
 5308               	.LM792:
 5309 19a2 4091 7900 		lds r20,121
 5310               	.LM793:
 5311 19a6 942F      		mov r25,r20
 5312 19a8 80E0      		ldi r24,lo8(0)
 5313 19aa 282B      		or r18,r24
 5314 19ac 392B      		or r19,r25
 5315 19ae 3093 0000 		sts (temp)+1,r19
 5316 19b2 2093 0000 		sts temp,r18
 5317               	.LBB970:
 5318               	.LBB971:
 5319               	.LBB972:
 5320               	.LBB973:
 5321               	.LM794:
 5322 19b6 84EC      		ldi r24,lo8(-60)
 5323               	.LVL336:
 5324               	/* #APP */
 5325               	 ;  83 "c:/winavr-20080610/lib/gcc/../../avr/include/util/delay_basic.h" 1
 5326 19b8 8A95      		1: dec r24
 5327 19ba 01F4      		brne 1b
 5328               	 ;  0 "" 2
 5329               	/* #NOAPP */
 5330               	.LBE973:
 5331               	.LBE972:
 5332               	.LBE971:
 5333               	.LBE970:
 5334               	.LBE969:
 5335               	.LBE968:
 5336               	.LM795:
 5337 19bc 3093 0000 		sts (a1)+1,r19
 5338 19c0 2093 0000 		sts a1,r18
 5339               	.LM796:
 5340 19c4 8091 7C00 		lds r24,124
 5341               	.LVL337:
 5342 19c8 8160      		ori r24,lo8(1)
 5343 19ca 8093 7C00 		sts 124,r24
 5344               	.LM797:
 5345 19ce 8091 7C00 		lds r24,124
 5346 19d2 8D7F      		andi r24,lo8(-3)
 5347 19d4 8093 7C00 		sts 124,r24
 5348               	.LM798:
 5349 19d8 8091 0000 		lds r24,flagh
 5350 19dc 9091 0000 		lds r25,(flagh)+1
 5351 19e0 0197      		sbiw r24,1
 5352 19e2 01F4      		brne .L383
 5353               	.LM799:
 5354 19e4 82E0      		ldi r24,hi8(651)
 5355 19e6 2B38      		cpi r18,lo8(651)
 5356 19e8 3807      		cpc r19,r24
 5357 19ea 04F0      		brlt .L384
 5358               	.LM800:
 5359 19ec 88E2      		ldi r24,lo8(40)
 5360 19ee 90E0      		ldi r25,hi8(40)
 5361 19f0 0E94 0000 		call rightclock
 5362 19f4 00C0      		rjmp .L383
 5363               	.L384:
 5364               	.LM801:
 5365 19f6 2657      		subi r18,lo8(630)
 5366 19f8 3240      		sbci r19,hi8(630)
 5367 19fa 04F4      		brge .L385
 5368               	.LM802:
 5369 19fc 88E2      		ldi r24,lo8(40)
 5370 19fe 90E0      		ldi r25,hi8(40)
 5371 1a00 0E94 0000 		call rightanti
 5372 1a04 00C0      		rjmp .L383
 5373               	.L385:
 5374               	.LM803:
 5375 1a06 80E0      		ldi r24,lo8(0)
 5376 1a08 0E94 0000 		call lcd_gotoxy2
 5377               	.LM804:
 5378 1a0c 8CE4      		ldi r24,lo8(76)
 5379 1a0e 0E94 0000 		call lcd_char
 5380               	.LM805:
 5381 1a12 0E94 0000 		call stop1
 5382               	.LM806:
 5383 1a16 83E0      		ldi r24,lo8(3)
 5384 1a18 90E0      		ldi r25,hi8(3)
 5385 1a1a 9093 0000 		sts (flagh)+1,r25
 5386 1a1e 8093 0000 		sts flagh,r24
 5387               	.L383:
 5388               	.LM807:
 5389 1a22 8091 0000 		lds r24,flagh
 5390 1a26 9091 0000 		lds r25,(flagh)+1
 5391 1a2a 0297      		sbiw r24,2
 5392 1a2c 01F0      		breq .+2
 5393 1a2e 00C0      		rjmp .L386
 5394               	.LM808:
 5395 1a30 8091 0000 		lds r24,a2
 5396 1a34 9091 0000 		lds r25,(a2)+1
 5397 1a38 22E0      		ldi r18,hi8(650)
 5398 1a3a 8A38      		cpi r24,lo8(650)
 5399 1a3c 9207      		cpc r25,r18
 5400 1a3e 04F4      		brge .L387
 5401               	.LM809:
 5402 1a40 88E2      		ldi r24,lo8(40)
 5403 1a42 90E0      		ldi r25,hi8(40)
 5404 1a44 0E94 0000 		call leftanti
 5405 1a48 00C0      		rjmp .L386
 5406               	.L387:
 5407               	.LM810:
 5408 1a4a 8F59      		subi r24,lo8(671)
 5409 1a4c 9240      		sbci r25,hi8(671)
 5410 1a4e 04F0      		brlt .L388
 5411               	.LM811:
 5412 1a50 88E2      		ldi r24,lo8(40)
 5413 1a52 90E0      		ldi r25,hi8(40)
 5414 1a54 0E94 0000 		call leftclock
 5415 1a58 00C0      		rjmp .L386
 5416               	.L388:
 5417               	.LM812:
 5418 1a5a 80E0      		ldi r24,lo8(0)
 5419 1a5c 0E94 0000 		call lcd_gotoxy1
 5420               	.LM813:
 5421 1a60 82E5      		ldi r24,lo8(82)
 5422 1a62 0E94 0000 		call lcd_char
 5423               	.LM814:
 5424 1a66 0E94 0000 		call stop1
 5425               	.LM815:
 5426 1a6a 83E0      		ldi r24,lo8(3)
 5427 1a6c 90E0      		ldi r25,hi8(3)
 5428 1a6e 9093 0000 		sts (flagh)+1,r25
 5429 1a72 8093 0000 		sts flagh,r24
 5430 1a76 80E1      		ldi r24,lo8(10000)
 5431 1a78 97E2      		ldi r25,hi8(10000)
 5432               	.LVL338:
 5433               	.LBB974:
 5434               	.LBB975:
 5435               	.LBB976:
 5436               	.LBB977:
 5437               	.LM816:
 5438 1a7a 20E7      		ldi r18,lo8(368)
 5439 1a7c 31E0      		ldi r19,hi8(368)
 5440               	.L389:
 5441 1a7e F901      		movw r30,r18
 5442               	.LVL339:
 5443               	/* #APP */
 5444               	 ;  105 "c:/winavr-20080610/lib/gcc/../../avr/include/util/delay_basic.h" 1
 5445 1a80 3197      		1: sbiw r30,1
 5446 1a82 01F4      		brne 1b
 5447               	 ;  0 "" 2
 5448               	/* #NOAPP */
 5449               	.LBE977:
 5450               	.LBE976:
 5451               	.LM817:
 5452 1a84 0197      		sbiw r24,1
 5453               	.LM818:
 5454 1a86 01F4      		brne .L389
 5455               	.LBE975:
 5456               	.LBE974:
 5457               	.LM819:
 5458 1a88 8091 0501 		lds r24,261
 5459               	.LVL340:
 5460 1a8c 8062      		ori r24,lo8(32)
 5461 1a8e 8093 0501 		sts 261,r24
 5462 1a92 80E1      		ldi r24,lo8(10000)
 5463 1a94 97E2      		ldi r25,hi8(10000)
 5464               	.LVL341:
 5465               	.LBB978:
 5466               	.LBB979:
 5467               	.LBB980:
 5468               	.LBB981:
 5469               	.LM820:
 5470 1a96 20E7      		ldi r18,lo8(368)
 5471 1a98 31E0      		ldi r19,hi8(368)
 5472               	.L390:
 5473 1a9a F901      		movw r30,r18
 5474               	.LVL342:
 5475               	/* #APP */
 5476               	 ;  105 "c:/winavr-20080610/lib/gcc/../../avr/include/util/delay_basic.h" 1
 5477 1a9c 3197      		1: sbiw r30,1
 5478 1a9e 01F4      		brne 1b
 5479               	 ;  0 "" 2
 5480               	/* #NOAPP */
 5481               	.LBE981:
 5482               	.LBE980:
 5483               	.LM821:
 5484 1aa0 0197      		sbiw r24,1
 5485               	.LM822:
 5486 1aa2 01F4      		brne .L390
 5487               	.L386:
 5488               	.LBE979:
 5489               	.LBE978:
 5490               	.LM823:
 5491 1aa4 8091 0000 		lds r24,flagh
 5492 1aa8 9091 0000 		lds r25,(flagh)+1
 5493               	.LVL343:
 5494 1aac 0397      		sbiw r24,3
 5495 1aae 01F4      		brne .L391
 5496               	.LM824:
 5497 1ab0 8091 0000 		lds r24,a2
 5498 1ab4 9091 0000 		lds r25,(a2)+1
 5499 1ab8 23E0      		ldi r18,hi8(1015)
 5500 1aba 873F      		cpi r24,lo8(1015)
 5501 1abc 9207      		cpc r25,r18
 5502 1abe 04F4      		brge .L392
 5503               	.LM825:
 5504 1ac0 88E2      		ldi r24,lo8(40)
 5505 1ac2 90E0      		ldi r25,hi8(40)
 5506 1ac4 0E94 0000 		call leftanti
 5507               	.LVL344:
 5508 1ac8 00C0      		rjmp .L391
 5509               	.LVL345:
 5510               	.L392:
 5511               	.LM826:
 5512 1aca 8D5F      		subi r24,lo8(1021)
 5513 1acc 9340      		sbci r25,hi8(1021)
 5514 1ace 04F0      		brlt .L393
 5515               	.LM827:
 5516 1ad0 88E2      		ldi r24,lo8(40)
 5517 1ad2 90E0      		ldi r25,hi8(40)
 5518 1ad4 0E94 0000 		call leftclock
 5519               	.LVL346:
 5520 1ad8 00C0      		rjmp .L391
 5521               	.LVL347:
 5522               	.L393:
 5523               	.LM828:
 5524 1ada 80E0      		ldi r24,lo8(0)
 5525 1adc 0E94 0000 		call lcd_gotoxy1
 5526               	.LVL348:
 5527               	.LM829:
 5528 1ae0 82E5      		ldi r24,lo8(82)
 5529 1ae2 0E94 0000 		call lcd_char
 5530               	.LM830:
 5531 1ae6 0E94 0000 		call stop1
 5532               	.LM831:
 5533 1aea 8091 0501 		lds r24,261
 5534 1aee 8064      		ori r24,lo8(64)
 5535 1af0 8093 0501 		sts 261,r24
 5536 1af4 80E1      		ldi r24,lo8(10000)
 5537 1af6 97E2      		ldi r25,hi8(10000)
 5538               	.LVL349:
 5539               	.LBB982:
 5540               	.LBB983:
 5541               	.LBB984:
 5542               	.LBB985:
 5543               	.LM832:
 5544 1af8 20E7      		ldi r18,lo8(368)
 5545 1afa 31E0      		ldi r19,hi8(368)
 5546               	.L394:
 5547 1afc F901      		movw r30,r18
 5548               	.LVL350:
 5549               	/* #APP */
 5550               	 ;  105 "c:/winavr-20080610/lib/gcc/../../avr/include/util/delay_basic.h" 1
 5551 1afe 3197      		1: sbiw r30,1
 5552 1b00 01F4      		brne 1b
 5553               	 ;  0 "" 2
 5554               	/* #NOAPP */
 5555               	.LBE985:
 5556               	.LBE984:
 5557               	.LM833:
 5558 1b02 0197      		sbiw r24,1
 5559               	.LM834:
 5560 1b04 01F4      		brne .L394
 5561               	.LBE983:
 5562               	.LBE982:
 5563               	.LM835:
 5564 1b06 8091 0501 		lds r24,261
 5565               	.LVL351:
 5566 1b0a 8F7D      		andi r24,lo8(-33)
 5567 1b0c 8093 0501 		sts 261,r24
 5568               	.LM836:
 5569 1b10 85E0      		ldi r24,lo8(5)
 5570 1b12 90E0      		ldi r25,hi8(5)
 5571 1b14 9093 0000 		sts (flagh)+1,r25
 5572 1b18 8093 0000 		sts flagh,r24
 5573               	.LVL352:
 5574               	.L391:
 5575               	.LM837:
 5576 1b1c 8091 0000 		lds r24,flagh
 5577 1b20 9091 0000 		lds r25,(flagh)+1
 5578 1b24 0497      		sbiw r24,4
 5579 1b26 01F4      		brne .L395
 5580               	.LM838:
 5581 1b28 8091 0000 		lds r24,a1
 5582 1b2c 9091 0000 		lds r25,(a1)+1
 5583 1b30 22E0      		ldi r18,hi8(661)
 5584 1b32 8539      		cpi r24,lo8(661)
 5585 1b34 9207      		cpc r25,r18
 5586 1b36 04F0      		brlt .L396
 5587               	.LM839:
 5588 1b38 88E2      		ldi r24,lo8(40)
 5589 1b3a 90E0      		ldi r25,hi8(40)
 5590 1b3c 0E94 0000 		call rightclock
 5591               	.LVL353:
 5592 1b40 00C0      		rjmp .L395
 5593               	.LVL354:
 5594               	.L396:
 5595               	.LM840:
 5596 1b42 8A58      		subi r24,lo8(650)
 5597 1b44 9240      		sbci r25,hi8(650)
 5598 1b46 04F4      		brge .L397
 5599               	.LM841:
 5600 1b48 88E2      		ldi r24,lo8(40)
 5601 1b4a 90E0      		ldi r25,hi8(40)
 5602 1b4c 0E94 0000 		call rightanti
 5603               	.LVL355:
 5604 1b50 00C0      		rjmp .L395
 5605               	.LVL356:
 5606               	.L397:
 5607               	.LM842:
 5608 1b52 80E0      		ldi r24,lo8(0)
 5609 1b54 0E94 0000 		call lcd_gotoxy2
 5610               	.LVL357:
 5611               	.LM843:
 5612 1b58 8CE4      		ldi r24,lo8(76)
 5613 1b5a 0E94 0000 		call lcd_char
 5614               	.LM844:
 5615 1b5e 0E94 0000 		call stop1
 5616               	.LM845:
 5617 1b62 85E0      		ldi r24,lo8(5)
 5618 1b64 90E0      		ldi r25,hi8(5)
 5619 1b66 9093 0000 		sts (flagh)+1,r25
 5620 1b6a 8093 0000 		sts flagh,r24
 5621               	.LM846:
 5622 1b6e 8091 0501 		lds r24,261
 5623 1b72 8064      		ori r24,lo8(64)
 5624 1b74 8093 0501 		sts 261,r24
 5625 1b78 80E1      		ldi r24,lo8(10000)
 5626 1b7a 97E2      		ldi r25,hi8(10000)
 5627               	.LVL358:
 5628               	.LBB986:
 5629               	.LBB987:
 5630               	.LBB988:
 5631               	.LBB989:
 5632               	.LM847:
 5633 1b7c 20E7      		ldi r18,lo8(368)
 5634 1b7e 31E0      		ldi r19,hi8(368)
 5635               	.L398:
 5636 1b80 F901      		movw r30,r18
 5637               	.LVL359:
 5638               	/* #APP */
 5639               	 ;  105 "c:/winavr-20080610/lib/gcc/../../avr/include/util/delay_basic.h" 1
 5640 1b82 3197      		1: sbiw r30,1
 5641 1b84 01F4      		brne 1b
 5642               	 ;  0 "" 2
 5643               	/* #NOAPP */
 5644               	.LBE989:
 5645               	.LBE988:
 5646               	.LM848:
 5647 1b86 0197      		sbiw r24,1
 5648               	.LM849:
 5649 1b88 01F4      		brne .L398
 5650               	.LBE987:
 5651               	.LBE986:
 5652               	.LM850:
 5653 1b8a 8091 0501 		lds r24,261
 5654               	.LVL360:
 5655 1b8e 8F7D      		andi r24,lo8(-33)
 5656 1b90 8093 0501 		sts 261,r24
 5657               	.LVL361:
 5658               	.L395:
 5659               	.LM851:
 5660 1b94 8091 0000 		lds r24,flagh
 5661 1b98 9091 0000 		lds r25,(flagh)+1
 5662 1b9c 0597      		sbiw r24,5
 5663 1b9e 01F4      		brne .L399
 5664               	.LM852:
 5665 1ba0 8091 0000 		lds r24,a1
 5666 1ba4 9091 0000 		lds r25,(a1)+1
 5667 1ba8 21E0      		ldi r18,hi8(331)
 5668 1baa 8B34      		cpi r24,lo8(331)
 5669 1bac 9207      		cpc r25,r18
 5670 1bae 04F0      		brlt .L400
 5671               	.LM853:
 5672 1bb0 82E3      		ldi r24,lo8(50)
 5673 1bb2 90E0      		ldi r25,hi8(50)
 5674 1bb4 0E94 0000 		call rightclock
 5675               	.LVL362:
 5676 1bb8 00C0      		rjmp .L399
 5677               	.LVL363:
 5678               	.L400:
 5679               	.LM854:
 5680 1bba 8054      		subi r24,lo8(320)
 5681 1bbc 9140      		sbci r25,hi8(320)
 5682 1bbe 04F4      		brge .L401
 5683               	.LM855:
 5684 1bc0 82E3      		ldi r24,lo8(50)
 5685 1bc2 90E0      		ldi r25,hi8(50)
 5686 1bc4 0E94 0000 		call rightanti
 5687               	.LVL364:
 5688 1bc8 00C0      		rjmp .L399
 5689               	.LVL365:
 5690               	.L401:
 5691               	.LM856:
 5692 1bca 80E0      		ldi r24,lo8(0)
 5693 1bcc 0E94 0000 		call lcd_gotoxy2
 5694               	.LVL366:
 5695               	.LM857:
 5696 1bd0 8CE4      		ldi r24,lo8(76)
 5697 1bd2 0E94 0000 		call lcd_char
 5698               	.LM858:
 5699 1bd6 0E94 0000 		call stop1
 5700               	.LM859:
 5701 1bda 86E0      		ldi r24,lo8(6)
 5702 1bdc 90E0      		ldi r25,hi8(6)
 5703 1bde 9093 0000 		sts (flagh)+1,r25
 5704 1be2 8093 0000 		sts flagh,r24
 5705               	.LVL367:
 5706               	.L399:
 5707               	.LM860:
 5708 1be6 8091 0000 		lds r24,flagh
 5709 1bea 9091 0000 		lds r25,(flagh)+1
 5710 1bee 0697      		sbiw r24,6
 5711 1bf0 01F4      		brne .L402
 5712               	.LM861:
 5713 1bf2 8091 0000 		lds r24,a2
 5714 1bf6 9091 0000 		lds r25,(a2)+1
 5715 1bfa 21E0      		ldi r18,hi8(330)
 5716 1bfc 8A34      		cpi r24,lo8(330)
 5717 1bfe 9207      		cpc r25,r18
 5718 1c00 04F4      		brge .L403
 5719               	.LM862:
 5720 1c02 82E3      		ldi r24,lo8(50)
 5721 1c04 90E0      		ldi r25,hi8(50)
 5722 1c06 0E94 0000 		call leftanti
 5723               	.LVL368:
 5724 1c0a 00C0      		rjmp .L402
 5725               	.LVL369:
 5726               	.L403:
 5727               	.LM863:
 5728 1c0c 8F55      		subi r24,lo8(351)
 5729 1c0e 9140      		sbci r25,hi8(351)
 5730 1c10 04F0      		brlt .L404
 5731               	.LM864:
 5732 1c12 82E3      		ldi r24,lo8(50)
 5733 1c14 90E0      		ldi r25,hi8(50)
 5734 1c16 0E94 0000 		call leftclock
 5735               	.LVL370:
 5736 1c1a 00C0      		rjmp .L402
 5737               	.LVL371:
 5738               	.L404:
 5739               	.LM865:
 5740 1c1c 80E0      		ldi r24,lo8(0)
 5741 1c1e 0E94 0000 		call lcd_gotoxy1
 5742               	.LVL372:
 5743               	.LM866:
 5744 1c22 82E5      		ldi r24,lo8(82)
 5745 1c24 0E94 0000 		call lcd_char
 5746               	.LM867:
 5747 1c28 0E94 0000 		call stop1
 5748               	.LM868:
 5749 1c2c 8091 0501 		lds r24,261
 5750 1c30 8068      		ori r24,lo8(-128)
 5751 1c32 8093 0501 		sts 261,r24
 5752 1c36 80E1      		ldi r24,lo8(10000)
 5753 1c38 97E2      		ldi r25,hi8(10000)
 5754               	.LVL373:
 5755               	.LBB990:
 5756               	.LBB991:
 5757               	.LBB992:
 5758               	.LBB993:
 5759               	.LM869:
 5760 1c3a 20E7      		ldi r18,lo8(368)
 5761 1c3c 31E0      		ldi r19,hi8(368)
 5762               	.L405:
 5763 1c3e F901      		movw r30,r18
 5764               	.LVL374:
 5765               	/* #APP */
 5766               	 ;  105 "c:/winavr-20080610/lib/gcc/../../avr/include/util/delay_basic.h" 1
 5767 1c40 3197      		1: sbiw r30,1
 5768 1c42 01F4      		brne 1b
 5769               	 ;  0 "" 2
 5770               	/* #NOAPP */
 5771               	.LBE993:
 5772               	.LBE992:
 5773               	.LM870:
 5774 1c44 0197      		sbiw r24,1
 5775               	.LM871:
 5776 1c46 01F4      		brne .L405
 5777               	.LBE991:
 5778               	.LBE990:
 5779               	.LM872:
 5780 1c48 8091 0501 		lds r24,261
 5781               	.LVL375:
 5782 1c4c 8F7B      		andi r24,lo8(-65)
 5783 1c4e 8093 0501 		sts 261,r24
 5784               	.LM873:
 5785 1c52 87E0      		ldi r24,lo8(7)
 5786 1c54 90E0      		ldi r25,hi8(7)
 5787 1c56 9093 0000 		sts (flagh)+1,r25
 5788 1c5a 8093 0000 		sts flagh,r24
 5789               	.LVL376:
 5790               	.L402:
 5791               	.LM874:
 5792 1c5e 8091 0000 		lds r24,flagh
 5793 1c62 9091 0000 		lds r25,(flagh)+1
 5794 1c66 0797      		sbiw r24,7
 5795 1c68 01F4      		brne .L406
 5796               	.LM875:
 5797 1c6a 8091 0000 		lds r24,a2
 5798 1c6e 9091 0000 		lds r25,(a2)+1
 5799 1c72 22E0      		ldi r18,hi8(640)
 5800 1c74 8038      		cpi r24,lo8(640)
 5801 1c76 9207      		cpc r25,r18
 5802 1c78 04F4      		brge .L407
 5803               	.LM876:
 5804 1c7a 88E2      		ldi r24,lo8(40)
 5805 1c7c 90E0      		ldi r25,hi8(40)
 5806 1c7e 0E94 0000 		call leftanti
 5807               	.LVL377:
 5808 1c82 00C0      		rjmp .L406
 5809               	.LVL378:
 5810               	.L407:
 5811               	.LM877:
 5812 1c84 8F59      		subi r24,lo8(671)
 5813 1c86 9240      		sbci r25,hi8(671)
 5814 1c88 04F0      		brlt .L408
 5815               	.LM878:
 5816 1c8a 88E2      		ldi r24,lo8(40)
 5817 1c8c 90E0      		ldi r25,hi8(40)
 5818 1c8e 0E94 0000 		call leftclock
 5819               	.LVL379:
 5820 1c92 00C0      		rjmp .L406
 5821               	.LVL380:
 5822               	.L408:
 5823               	.LM879:
 5824 1c94 80E0      		ldi r24,lo8(0)
 5825 1c96 0E94 0000 		call lcd_gotoxy1
 5826               	.LVL381:
 5827               	.LM880:
 5828 1c9a 82E5      		ldi r24,lo8(82)
 5829 1c9c 0E94 0000 		call lcd_char
 5830               	.LM881:
 5831 1ca0 0E94 0000 		call stop1
 5832               	.LM882:
 5833 1ca4 88E0      		ldi r24,lo8(8)
 5834 1ca6 90E0      		ldi r25,hi8(8)
 5835 1ca8 9093 0000 		sts (flagh)+1,r25
 5836 1cac 8093 0000 		sts flagh,r24
 5837               	.LVL382:
 5838               	.L406:
 5839               	.LM883:
 5840 1cb0 8091 0000 		lds r24,flagh
 5841 1cb4 9091 0000 		lds r25,(flagh)+1
 5842 1cb8 0897      		sbiw r24,8
 5843 1cba 01F0      		breq .+2
 5844 1cbc 00C0      		rjmp .L409
 5845               	.LM884:
 5846 1cbe 8091 0000 		lds r24,a1
 5847 1cc2 9091 0000 		lds r25,(a1)+1
 5848 1cc6 23E0      		ldi r18,hi8(981)
 5849 1cc8 853D      		cpi r24,lo8(981)
 5850 1cca 9207      		cpc r25,r18
 5851 1ccc 04F0      		brlt .L410
 5852               	.LM885:
 5853 1cce 82E3      		ldi r24,lo8(50)
 5854 1cd0 90E0      		ldi r25,hi8(50)
 5855 1cd2 0E94 0000 		call rightclock
 5856               	.LVL383:
 5857 1cd6 00C0      		rjmp .L409
 5858               	.LVL384:
 5859               	.L410:
 5860               	.LM886:
 5861 1cd8 8A5C      		subi r24,lo8(970)
 5862 1cda 9340      		sbci r25,hi8(970)
 5863 1cdc 04F4      		brge .L411
 5864               	.LM887:
 5865 1cde 82E3      		ldi r24,lo8(50)
 5866 1ce0 90E0      		ldi r25,hi8(50)
 5867 1ce2 0E94 0000 		call rightanti
 5868               	.LVL385:
 5869 1ce6 00C0      		rjmp .L409
 5870               	.LVL386:
 5871               	.L411:
 5872               	.LM888:
 5873 1ce8 80E0      		ldi r24,lo8(0)
 5874 1cea 0E94 0000 		call lcd_gotoxy2
 5875               	.LVL387:
 5876               	.LM889:
 5877 1cee 8CE4      		ldi r24,lo8(76)
 5878 1cf0 0E94 0000 		call lcd_char
 5879               	.LM890:
 5880 1cf4 0E94 0000 		call stop1
 5881               	.LM891:
 5882 1cf8 89E0      		ldi r24,lo8(9)
 5883 1cfa 90E0      		ldi r25,hi8(9)
 5884 1cfc 9093 0000 		sts (flagh)+1,r25
 5885 1d00 8093 0000 		sts flagh,r24
 5886 1d04 88E8      		ldi r24,lo8(5000)
 5887 1d06 93E1      		ldi r25,hi8(5000)
 5888               	.LVL388:
 5889               	.LBB994:
 5890               	.LBB995:
 5891               	.LBB996:
 5892               	.LBB997:
 5893               	.LM892:
 5894 1d08 20E7      		ldi r18,lo8(368)
 5895 1d0a 31E0      		ldi r19,hi8(368)
 5896               	.L412:
 5897 1d0c F901      		movw r30,r18
 5898               	.LVL389:
 5899               	/* #APP */
 5900               	 ;  105 "c:/winavr-20080610/lib/gcc/../../avr/include/util/delay_basic.h" 1
 5901 1d0e 3197      		1: sbiw r30,1
 5902 1d10 01F4      		brne 1b
 5903               	 ;  0 "" 2
 5904               	/* #NOAPP */
 5905               	.LBE997:
 5906               	.LBE996:
 5907               	.LM893:
 5908 1d12 0197      		sbiw r24,1
 5909               	.LM894:
 5910 1d14 01F4      		brne .L412
 5911               	.LBE995:
 5912               	.LBE994:
 5913               	.LM895:
 5914 1d16 8091 0501 		lds r24,261
 5915               	.LVL390:
 5916 1d1a 8061      		ori r24,lo8(16)
 5917 1d1c 8093 0501 		sts 261,r24
 5918 1d20 80E1      		ldi r24,lo8(10000)
 5919 1d22 97E2      		ldi r25,hi8(10000)
 5920               	.LVL391:
 5921               	.LBB998:
 5922               	.LBB999:
 5923               	.LBB1000:
 5924               	.LBB1001:
 5925               	.LM896:
 5926 1d24 20E7      		ldi r18,lo8(368)
 5927 1d26 31E0      		ldi r19,hi8(368)
 5928               	.L413:
 5929 1d28 F901      		movw r30,r18
 5930               	.LVL392:
 5931               	/* #APP */
 5932               	 ;  105 "c:/winavr-20080610/lib/gcc/../../avr/include/util/delay_basic.h" 1
 5933 1d2a 3197      		1: sbiw r30,1
 5934 1d2c 01F4      		brne 1b
 5935               	 ;  0 "" 2
 5936               	/* #NOAPP */
 5937               	.LBE1001:
 5938               	.LBE1000:
 5939               	.LM897:
 5940 1d2e 0197      		sbiw r24,1
 5941               	.LM898:
 5942 1d30 01F4      		brne .L413
 5943               	.LBE999:
 5944               	.LBE998:
 5945               	.LM899:
 5946 1d32 8091 0501 		lds r24,261
 5947               	.LVL393:
 5948 1d36 8F77      		andi r24,lo8(127)
 5949 1d38 8093 0501 		sts 261,r24
 5950               	.LVL394:
 5951               	.L409:
 5952               	.LM900:
 5953 1d3c 8091 0000 		lds r24,flagh
 5954 1d40 9091 0000 		lds r25,(flagh)+1
 5955 1d44 0997      		sbiw r24,9
 5956 1d46 01F4      		brne .L414
 5957               	.LM901:
 5958 1d48 8091 0000 		lds r24,a1
 5959 1d4c 9091 0000 		lds r25,(a1)+1
 5960 1d50 21E0      		ldi r18,hi8(471)
 5961 1d52 873D      		cpi r24,lo8(471)
 5962 1d54 9207      		cpc r25,r18
 5963 1d56 04F0      		brlt .L415
 5964               	.LM902:
 5965 1d58 86E4      		ldi r24,lo8(70)
 5966 1d5a 90E0      		ldi r25,hi8(70)
 5967 1d5c 0E94 0000 		call rightclock
 5968               	.LVL395:
 5969 1d60 00C0      		rjmp .L414
 5970               	.LVL396:
 5971               	.L415:
 5972               	.LM903:
 5973 1d62 825C      		subi r24,lo8(450)
 5974 1d64 9140      		sbci r25,hi8(450)
 5975 1d66 04F4      		brge .L416
 5976               	.LM904:
 5977 1d68 86E4      		ldi r24,lo8(70)
 5978 1d6a 90E0      		ldi r25,hi8(70)
 5979 1d6c 0E94 0000 		call rightanti
 5980               	.LVL397:
 5981 1d70 00C0      		rjmp .L414
 5982               	.LVL398:
 5983               	.L416:
 5984               	.LM905:
 5985 1d72 80E0      		ldi r24,lo8(0)
 5986 1d74 0E94 0000 		call lcd_gotoxy2
 5987               	.LVL399:
 5988               	.LM906:
 5989 1d78 8CE4      		ldi r24,lo8(76)
 5990 1d7a 0E94 0000 		call lcd_char
 5991               	.LM907:
 5992 1d7e 0E94 0000 		call stop1
 5993               	.LM908:
 5994 1d82 8AE0      		ldi r24,lo8(10)
 5995 1d84 90E0      		ldi r25,hi8(10)
 5996 1d86 9093 0000 		sts (flagh)+1,r25
 5997 1d8a 8093 0000 		sts flagh,r24
 5998               	.LVL400:
 5999               	.L414:
 6000               	.LM909:
 6001 1d8e 8091 0000 		lds r24,flagh
 6002 1d92 9091 0000 		lds r25,(flagh)+1
 6003 1d96 0A97      		sbiw r24,10
 6004 1d98 01F4      		brne .L420
 6005               	.LM910:
 6006 1d9a 8091 0000 		lds r24,a2
 6007 1d9e 9091 0000 		lds r25,(a2)+1
 6008 1da2 21E0      		ldi r18,hi8(500)
 6009 1da4 843F      		cpi r24,lo8(500)
 6010 1da6 9207      		cpc r25,r18
 6011 1da8 04F4      		brge .L418
 6012               	.LM911:
 6013 1daa 86E4      		ldi r24,lo8(70)
 6014 1dac 90E0      		ldi r25,hi8(70)
 6015 1dae 0E94 0000 		call leftanti
 6016               	.LVL401:
 6017 1db2 0895      		ret
 6018               	.LVL402:
 6019               	.L418:
 6020               	.LM912:
 6021 1db4 8950      		subi r24,lo8(521)
 6022 1db6 9240      		sbci r25,hi8(521)
 6023 1db8 04F0      		brlt .L419
 6024               	.LM913:
 6025 1dba 86E4      		ldi r24,lo8(70)
 6026 1dbc 90E0      		ldi r25,hi8(70)
 6027 1dbe 0E94 0000 		call leftclock
 6028               	.LVL403:
 6029 1dc2 0895      		ret
 6030               	.LVL404:
 6031               	.L419:
 6032               	.LM914:
 6033 1dc4 80E0      		ldi r24,lo8(0)
 6034 1dc6 0E94 0000 		call lcd_gotoxy1
 6035               	.LVL405:
 6036               	.LM915:
 6037 1dca 82E5      		ldi r24,lo8(82)
 6038 1dcc 0E94 0000 		call lcd_char
 6039               	.LM916:
 6040 1dd0 0E94 0000 		call stop1
 6041               	.LM917:
 6042 1dd4 8BE0      		ldi r24,lo8(11)
 6043 1dd6 90E0      		ldi r25,hi8(11)
 6044 1dd8 9093 0000 		sts (flagh)+1,r25
 6045 1ddc 8093 0000 		sts flagh,r24
 6046               	.LVL406:
 6047               	.L420:
 6048 1de0 0895      		ret
 6049               	.LFE45:
 6051               	.global	see_saw
 6053               	see_saw:
 6054               	.LFB43:
 6055               	.LM918:
 6056               	/* prologue: function */
 6057               	/* frame size = 0 */
 6058               	.LBB1002:
 6059               	.LBB1003:
 6060               	.LM919:
 6061 1de2 8091 7A00 		lds r24,122
 6062 1de6 8064      		ori r24,lo8(64)
 6063 1de8 8093 7A00 		sts 122,r24
 6064               	.L431:
 6065               	.LM920:
 6066 1dec 8091 7A00 		lds r24,122
 6067 1df0 84FF      		sbrs r24,4
 6068 1df2 00C0      		rjmp .L431
 6069               	.LM921:
 6070 1df4 2091 7800 		lds r18,120
 6071               	.LM922:
 6072 1df8 4091 7900 		lds r20,121
 6073               	.LBB1004:
 6074               	.LBB1005:
 6075               	.LBB1006:
 6076               	.LBB1007:
 6077               	.LM923:
 6078 1dfc 84EC      		ldi r24,lo8(-60)
 6079               	.LVL407:
 6080               	/* #APP */
 6081               	 ;  83 "c:/winavr-20080610/lib/gcc/../../avr/include/util/delay_basic.h" 1
 6082 1dfe 8A95      		1: dec r24
 6083 1e00 01F4      		brne 1b
 6084               	 ;  0 "" 2
 6085               	/* #NOAPP */
 6086               	.LBE1007:
 6087               	.LBE1006:
 6088               	.LBE1005:
 6089               	.LBE1004:
 6090               	.LBE1003:
 6091               	.LBE1002:
 6092               	.LM924:
 6093 1e02 942F      		mov r25,r20
 6094 1e04 80E0      		ldi r24,lo8(0)
 6095               	.LVL408:
 6096 1e06 30E0      		ldi r19,lo8(0)
 6097 1e08 822B      		or r24,r18
 6098 1e0a 932B      		or r25,r19
 6099 1e0c 9093 0000 		sts (a2)+1,r25
 6100 1e10 8093 0000 		sts a2,r24
 6101               	.LM925:
 6102 1e14 8091 7C00 		lds r24,124
 6103 1e18 8260      		ori r24,lo8(2)
 6104 1e1a 8093 7C00 		sts 124,r24
 6105               	.LM926:
 6106 1e1e 8091 7C00 		lds r24,124
 6107 1e22 8E7F      		andi r24,lo8(-2)
 6108 1e24 8093 7C00 		sts 124,r24
 6109               	.LBB1008:
 6110               	.LBB1009:
 6111               	.LM927:
 6112 1e28 8091 7A00 		lds r24,122
 6113 1e2c 8064      		ori r24,lo8(64)
 6114 1e2e 8093 7A00 		sts 122,r24
 6115               	.L432:
 6116               	.LM928:
 6117 1e32 8091 7A00 		lds r24,122
 6118 1e36 84FF      		sbrs r24,4
 6119 1e38 00C0      		rjmp .L432
 6120               	.LM929:
 6121 1e3a 2091 7800 		lds r18,120
 6122 1e3e 30E0      		ldi r19,lo8(0)
 6123 1e40 3093 0000 		sts (x1)+1,r19
 6124 1e44 2093 0000 		sts x1,r18
 6125               	.LM930:
 6126 1e48 4091 7900 		lds r20,121
 6127               	.LM931:
 6128 1e4c 942F      		mov r25,r20
 6129 1e4e 80E0      		ldi r24,lo8(0)
 6130 1e50 282B      		or r18,r24
 6131 1e52 392B      		or r19,r25
 6132 1e54 3093 0000 		sts (temp)+1,r19
 6133 1e58 2093 0000 		sts temp,r18
 6134               	.LBB1010:
 6135               	.LBB1011:
 6136               	.LBB1012:
 6137               	.LBB1013:
 6138               	.LM932:
 6139 1e5c 84EC      		ldi r24,lo8(-60)
 6140               	.LVL409:
 6141               	/* #APP */
 6142               	 ;  83 "c:/winavr-20080610/lib/gcc/../../avr/include/util/delay_basic.h" 1
 6143 1e5e 8A95      		1: dec r24
 6144 1e60 01F4      		brne 1b
 6145               	 ;  0 "" 2
 6146               	/* #NOAPP */
 6147               	.LBE1013:
 6148               	.LBE1012:
 6149               	.LBE1011:
 6150               	.LBE1010:
 6151               	.LBE1009:
 6152               	.LBE1008:
 6153               	.LM933:
 6154 1e62 3093 0000 		sts (a1)+1,r19
 6155 1e66 2093 0000 		sts a1,r18
 6156               	.LM934:
 6157 1e6a 8091 7C00 		lds r24,124
 6158               	.LVL410:
 6159 1e6e 8160      		ori r24,lo8(1)
 6160 1e70 8093 7C00 		sts 124,r24
 6161               	.LM935:
 6162 1e74 8091 7C00 		lds r24,124
 6163 1e78 8D7F      		andi r24,lo8(-3)
 6164 1e7a 8093 7C00 		sts 124,r24
 6165               	.LM936:
 6166 1e7e 8091 0000 		lds r24,flagse
 6167 1e82 9091 0000 		lds r25,(flagse)+1
 6168 1e86 0197      		sbiw r24,1
 6169 1e88 01F4      		brne .L433
 6170               	.LM937:
 6171 1e8a 2A57      		subi r18,lo8(890)
 6172 1e8c 3340      		sbci r19,hi8(890)
 6173 1e8e 04F4      		brge .L434
 6174               	.LM938:
 6175 1e90 86E4      		ldi r24,lo8(70)
 6176 1e92 90E0      		ldi r25,hi8(70)
 6177 1e94 0E94 0000 		call rightanti
 6178 1e98 00C0      		rjmp .L433
 6179               	.L434:
 6180               	.LM939:
 6181 1e9a 0E94 0000 		call stop1
 6182               	.LM940:
 6183 1e9e 82E0      		ldi r24,lo8(2)
 6184 1ea0 90E0      		ldi r25,hi8(2)
 6185 1ea2 9093 0000 		sts (flagse)+1,r25
 6186 1ea6 8093 0000 		sts flagse,r24
 6187               	.L433:
 6188               	.LM941:
 6189 1eaa 8091 0000 		lds r24,flagse
 6190 1eae 9091 0000 		lds r25,(flagse)+1
 6191 1eb2 0297      		sbiw r24,2
 6192 1eb4 01F4      		brne .L437
 6193               	.LM942:
 6194 1eb6 8091 0000 		lds r24,a2
 6195 1eba 9091 0000 		lds r25,(a2)+1
 6196 1ebe 8057      		subi r24,lo8(880)
 6197 1ec0 9340      		sbci r25,hi8(880)
 6198 1ec2 04F4      		brge .L436
 6199               	.LM943:
 6200 1ec4 86E4      		ldi r24,lo8(70)
 6201 1ec6 90E0      		ldi r25,hi8(70)
 6202 1ec8 0E94 0000 		call leftanti
 6203 1ecc 0895      		ret
 6204               	.L436:
 6205               	.LM944:
 6206 1ece 0E94 0000 		call stop1
 6207               	.LM945:
 6208 1ed2 83E0      		ldi r24,lo8(3)
 6209 1ed4 90E0      		ldi r25,hi8(3)
 6210 1ed6 9093 0000 		sts (flagse)+1,r25
 6211 1eda 8093 0000 		sts flagse,r24
 6212               	.L437:
 6213 1ede 0895      		ret
 6214               	.LFE43:
 6216               	.global	fold
 6218               	fold:
 6219               	.LFB42:
 6220               	.LM946:
 6221               	/* prologue: function */
 6222               	/* frame size = 0 */
 6223               	.LBB1014:
 6224               	.LBB1015:
 6225               	.LM947:
 6226 1ee0 8091 7A00 		lds r24,122
 6227 1ee4 8064      		ori r24,lo8(64)
 6228 1ee6 8093 7A00 		sts 122,r24
 6229               	.L441:
 6230               	.LM948:
 6231 1eea 8091 7A00 		lds r24,122
 6232 1eee 84FF      		sbrs r24,4
 6233 1ef0 00C0      		rjmp .L441
 6234               	.LM949:
 6235 1ef2 2091 7800 		lds r18,120
 6236               	.LM950:
 6237 1ef6 4091 7900 		lds r20,121
 6238               	.LBB1016:
 6239               	.LBB1017:
 6240               	.LBB1018:
 6241               	.LBB1019:
 6242               	.LM951:
 6243 1efa 84EC      		ldi r24,lo8(-60)
 6244               	.LVL411:
 6245               	/* #APP */
 6246               	 ;  83 "c:/winavr-20080610/lib/gcc/../../avr/include/util/delay_basic.h" 1
 6247 1efc 8A95      		1: dec r24
 6248 1efe 01F4      		brne 1b
 6249               	 ;  0 "" 2
 6250               	/* #NOAPP */
 6251               	.LBE1019:
 6252               	.LBE1018:
 6253               	.LBE1017:
 6254               	.LBE1016:
 6255               	.LBE1015:
 6256               	.LBE1014:
 6257               	.LM952:
 6258 1f00 942F      		mov r25,r20
 6259 1f02 80E0      		ldi r24,lo8(0)
 6260               	.LVL412:
 6261 1f04 30E0      		ldi r19,lo8(0)
 6262 1f06 822B      		or r24,r18
 6263 1f08 932B      		or r25,r19
 6264 1f0a 9093 0000 		sts (a2)+1,r25
 6265 1f0e 8093 0000 		sts a2,r24
 6266               	.LM953:
 6267 1f12 8091 7C00 		lds r24,124
 6268 1f16 8260      		ori r24,lo8(2)
 6269 1f18 8093 7C00 		sts 124,r24
 6270               	.LM954:
 6271 1f1c 8091 7C00 		lds r24,124
 6272 1f20 8E7F      		andi r24,lo8(-2)
 6273 1f22 8093 7C00 		sts 124,r24
 6274               	.LBB1020:
 6275               	.LBB1021:
 6276               	.LM955:
 6277 1f26 8091 7A00 		lds r24,122
 6278 1f2a 8064      		ori r24,lo8(64)
 6279 1f2c 8093 7A00 		sts 122,r24
 6280               	.L442:
 6281               	.LM956:
 6282 1f30 8091 7A00 		lds r24,122
 6283 1f34 84FF      		sbrs r24,4
 6284 1f36 00C0      		rjmp .L442
 6285               	.LM957:
 6286 1f38 2091 7800 		lds r18,120
 6287 1f3c 30E0      		ldi r19,lo8(0)
 6288 1f3e 3093 0000 		sts (x1)+1,r19
 6289 1f42 2093 0000 		sts x1,r18
 6290               	.LM958:
 6291 1f46 4091 7900 		lds r20,121
 6292               	.LM959:
 6293 1f4a 942F      		mov r25,r20
 6294 1f4c 80E0      		ldi r24,lo8(0)
 6295 1f4e 282B      		or r18,r24
 6296 1f50 392B      		or r19,r25
 6297 1f52 3093 0000 		sts (temp)+1,r19
 6298 1f56 2093 0000 		sts temp,r18
 6299               	.LBB1022:
 6300               	.LBB1023:
 6301               	.LBB1024:
 6302               	.LBB1025:
 6303               	.LM960:
 6304 1f5a 84EC      		ldi r24,lo8(-60)
 6305               	.LVL413:
 6306               	/* #APP */
 6307               	 ;  83 "c:/winavr-20080610/lib/gcc/../../avr/include/util/delay_basic.h" 1
 6308 1f5c 8A95      		1: dec r24
 6309 1f5e 01F4      		brne 1b
 6310               	 ;  0 "" 2
 6311               	/* #NOAPP */
 6312               	.LBE1025:
 6313               	.LBE1024:
 6314               	.LBE1023:
 6315               	.LBE1022:
 6316               	.LBE1021:
 6317               	.LBE1020:
 6318               	.LM961:
 6319 1f60 3093 0000 		sts (a1)+1,r19
 6320 1f64 2093 0000 		sts a1,r18
 6321               	.LM962:
 6322 1f68 8091 7C00 		lds r24,124
 6323               	.LVL414:
 6324 1f6c 8160      		ori r24,lo8(1)
 6325 1f6e 8093 7C00 		sts 124,r24
 6326               	.LM963:
 6327 1f72 8091 7C00 		lds r24,124
 6328 1f76 8D7F      		andi r24,lo8(-3)
 6329 1f78 8093 7C00 		sts 124,r24
 6330               	.LM964:
 6331 1f7c 8091 0000 		lds r24,flagf
 6332 1f80 9091 0000 		lds r25,(flagf)+1
 6333 1f84 0197      		sbiw r24,1
 6334 1f86 01F4      		brne .L443
 6335               	.LM965:
 6336 1f88 2555      		subi r18,lo8(341)
 6337 1f8a 3140      		sbci r19,hi8(341)
 6338 1f8c 04F0      		brlt .L444
 6339               	.LM966:
 6340 1f8e 88E2      		ldi r24,lo8(40)
 6341 1f90 90E0      		ldi r25,hi8(40)
 6342 1f92 0E94 0000 		call rightclock
 6343 1f96 00C0      		rjmp .L443
 6344               	.L444:
 6345               	.LM967:
 6346 1f98 0E94 0000 		call stop1
 6347               	.LM968:
 6348 1f9c 82E0      		ldi r24,lo8(2)
 6349 1f9e 90E0      		ldi r25,hi8(2)
 6350 1fa0 9093 0000 		sts (flagf)+1,r25
 6351 1fa4 8093 0000 		sts flagf,r24
 6352               	.L443:
 6353               	.LM969:
 6354 1fa8 8091 0000 		lds r24,flagf
 6355 1fac 9091 0000 		lds r25,(flagf)+1
 6356 1fb0 0297      		sbiw r24,2
 6357 1fb2 01F4      		brne .L447
 6358               	.LM970:
 6359 1fb4 8091 0000 		lds r24,a2
 6360 1fb8 9091 0000 		lds r25,(a2)+1
 6361 1fbc 8A54      		subi r24,lo8(330)
 6362 1fbe 9140      		sbci r25,hi8(330)
 6363 1fc0 04F4      		brge .L446
 6364               	.LM971:
 6365 1fc2 88E2      		ldi r24,lo8(40)
 6366 1fc4 90E0      		ldi r25,hi8(40)
 6367 1fc6 0E94 0000 		call leftanti
 6368 1fca 0895      		ret
 6369               	.L446:
 6370               	.LM972:
 6371 1fcc 0E94 0000 		call stop1
 6372               	.LM973:
 6373 1fd0 83E0      		ldi r24,lo8(3)
 6374 1fd2 90E0      		ldi r25,hi8(3)
 6375 1fd4 9093 0000 		sts (flagf)+1,r25
 6376 1fd8 8093 0000 		sts flagf,r24
 6377               	.L447:
 6378 1fdc 0895      		ret
 6379               	.LFE42:
 6381               	.global	setPWM
 6383               	setPWM:
 6384               	.LFB6:
 6385               	.LM974:
 6386               	.LVL415:
 6387 1fde EF92      		push r14
 6388 1fe0 FF92      		push r15
 6389 1fe2 0F93      		push r16
 6390 1fe4 DF93      		push r29
 6391 1fe6 CF93      		push r28
 6392 1fe8 00D0      		rcall .
 6393 1fea 00D0      		rcall .
 6394 1fec CDB7      		in r28,__SP_L__
 6395 1fee DEB7      		in r29,__SP_H__
 6396               	/* prologue: function */
 6397               	/* frame size = 4 */
 6398 1ff0 7A01      		movw r14,r20
 6399               	.LM975:
 6400 1ff2 90E0      		ldi r25,lo8(0)
 6401 1ff4 0E94 0000 		call toupper
 6402               	.LVL416:
 6403 1ff8 082F      		mov r16,r24
 6404               	.LM976:
 6405 1ffa EE0C      		lsl r14
 6406 1ffc FF1C      		rol r15
 6407 1ffe C701      		movw r24,r14
 6408 2000 A0E0      		ldi r26,lo8(0)
 6409 2002 B0E0      		ldi r27,hi8(0)
 6410 2004 8983      		std Y+1,r24
 6411 2006 9A83      		std Y+2,r25
 6412 2008 AB83      		std Y+3,r26
 6413 200a BC83      		std Y+4,r27
 6414 200c 60E0      		ldi r22,lo8(14745600)
 6415 200e 70E0      		ldi r23,hi8(14745600)
 6416 2010 81EE      		ldi r24,hlo8(14745600)
 6417 2012 90E0      		ldi r25,hhi8(14745600)
 6418 2014 2981      		ldd r18,Y+1
 6419 2016 3A81      		ldd r19,Y+2
 6420 2018 4B81      		ldd r20,Y+3
 6421 201a 5C81      		ldd r21,Y+4
 6422 201c 0E94 0000 		call __udivmodsi4
 6423               	.LM977:
 6424 2020 0133      		cpi r16,lo8(49)
 6425 2022 01F4      		brne .L451
 6426               	.LM978:
 6427 2024 3093 8700 		sts (134)+1,r19
 6428 2028 2093 8600 		sts 134,r18
 6429               	.LM979:
 6430 202c 88EA      		ldi r24,lo8(-88)
 6431 202e 8093 8000 		sts 128,r24
 6432               	.LM980:
 6433 2032 81E1      		ldi r24,lo8(17)
 6434 2034 8093 8100 		sts 129,r24
 6435 2038 00C0      		rjmp .L455
 6436               	.L451:
 6437               	.LM981:
 6438 203a 0333      		cpi r16,lo8(51)
 6439 203c 01F4      		brne .L453
 6440               	.LM982:
 6441 203e 88EA      		ldi r24,lo8(-88)
 6442 2040 8093 9000 		sts 144,r24
 6443               	.LM983:
 6444 2044 81E1      		ldi r24,lo8(17)
 6445 2046 8093 9100 		sts 145,r24
 6446               	.LM984:
 6447 204a 3093 9700 		sts (150)+1,r19
 6448 204e 2093 9600 		sts 150,r18
 6449 2052 00C0      		rjmp .L455
 6450               	.L453:
 6451               	.LM985:
 6452 2054 0433      		cpi r16,lo8(52)
 6453 2056 01F4      		brne .L454
 6454               	.LM986:
 6455 2058 3093 A700 		sts (166)+1,r19
 6456 205c 2093 A600 		sts 166,r18
 6457               	.LM987:
 6458 2060 88EA      		ldi r24,lo8(-88)
 6459 2062 8093 A000 		sts 160,r24
 6460               	.LM988:
 6461 2066 81E1      		ldi r24,lo8(17)
 6462 2068 8093 A100 		sts 161,r24
 6463 206c 00C0      		rjmp .L455
 6464               	.L454:
 6465               	.LM989:
 6466 206e 0533      		cpi r16,lo8(53)
 6467 2070 01F4      		brne .L455
 6468               	.LM990:
 6469 2072 3093 2701 		sts (294)+1,r19
 6470 2076 2093 2601 		sts 294,r18
 6471               	.LM991:
 6472 207a 88EA      		ldi r24,lo8(-88)
 6473 207c 8093 2001 		sts 288,r24
 6474               	.LM992:
 6475 2080 81E1      		ldi r24,lo8(17)
 6476 2082 8093 2101 		sts 289,r24
 6477               	.L455:
 6478               	/* epilogue start */
 6479               	.LM993:
 6480 2086 0F90      		pop __tmp_reg__
 6481 2088 0F90      		pop __tmp_reg__
 6482 208a 0F90      		pop __tmp_reg__
 6483 208c 0F90      		pop __tmp_reg__
 6484 208e CF91      		pop r28
 6485 2090 DF91      		pop r29
 6486 2092 0F91      		pop r16
 6487 2094 FF90      		pop r15
 6488 2096 EF90      		pop r14
 6489               	.LVL417:
 6490 2098 0895      		ret
 6491               	.LFE6:
 6493               	.global	PWM_init
 6495               	PWM_init:
 6496               	.LFB28:
 6497               	.LM994:
 6498               	.LVL418:
 6499               	/* prologue: function */
 6500               	/* frame size = 0 */
 6501               	.LM995:
 6502 209a 40E1      		ldi r20,lo8(10000)
 6503 209c 57E2      		ldi r21,hi8(10000)
 6504 209e 0E94 0000 		call setPWM
 6505               	.LVL419:
 6506               	/* epilogue start */
 6507               	.LM996:
 6508 20a2 0895      		ret
 6509               	.LFE28:
 6511               		.data
 6512               	.LC0:
 6513 0000 4A6F 7973 		.string	"Joystick"
 6513      7469 636B 
 6513      00
 6514               	.LC1:
 6515 0009 5265 7472 		.string	"Retract"
 6515      6163 7400 
 6516               	.LC2:
 6517 0011 5365 6573 		.string	"Seesaw "
 6517      6177 2000 
 6518               	.LC3:
 6519 0019 506F 6C65 		.string	"Pole   "
 6519      2020 2000 
 6520               	.LC4:
 6521 0021 7377 696E 		.string	"swing  "
 6521      6720 2000 
 6522               	.LC5:
 6523 0029 4C61 6464 		.string	"Ladder "
 6523      6572 2000 
 6524               	.LC6:
 6525 0031 4E6F 7468 		.string	"Nothing"
 6525      696E 6700 
 6526               	.LC7:
 6527 0039 4769 7665 		.string	"Give input"
 6527      2069 6E70 
 6527      7574 00
 6528               	.LC8:
 6529 0044 4E6F 6E65 		.string	"None "
 6529      2000 
 6530               	.LC9:
 6531 004a 4772 6162 		.string	"Grab "
 6531      2000 
 6532               	.LC10:
 6533 0050 466F 6C64 		.string	"Folds"
 6533      7300 
 6534               	.LC11:
 6535 0056 466F 6C64 		.string	"Foldl"
 6535      6C00 
 6536               		.text
 6537               	.global	main
 6539               	main:
 6540               	.LFB51:
 6541               	.LM997:
 6542 20a4 7F92      		push r7
 6543 20a6 8F92      		push r8
 6544 20a8 9F92      		push r9
 6545 20aa AF92      		push r10
 6546 20ac BF92      		push r11
 6547 20ae CF92      		push r12
 6548 20b0 DF92      		push r13
 6549 20b2 EF92      		push r14
 6550 20b4 FF92      		push r15
 6551 20b6 0F93      		push r16
 6552 20b8 1F93      		push r17
 6553 20ba CF93      		push r28
 6554 20bc DF93      		push r29
 6555               	/* prologue: function */
 6556               	/* frame size = 0 */
 6557               	.LM998:
 6558 20be 0E94 0000 		call port_init
 6559               	.LM999:
 6560 20c2 2F98      		cbi 37-32,7
 6561               	.LM1000:
 6562 20c4 61E6      		ldi r22,lo8(97)
 6563 20c6 83E3      		ldi r24,lo8(51)
 6564 20c8 0E94 0000 		call PWM_init
 6565               	.LM1001:
 6566 20cc 62E6      		ldi r22,lo8(98)
 6567 20ce 83E3      		ldi r24,lo8(51)
 6568 20d0 0E94 0000 		call PWM_init
 6569               	.LM1002:
 6570 20d4 63E6      		ldi r22,lo8(99)
 6571 20d6 83E3      		ldi r24,lo8(51)
 6572 20d8 0E94 0000 		call PWM_init
 6573               	.LM1003:
 6574 20dc 61E6      		ldi r22,lo8(97)
 6575 20de 84E3      		ldi r24,lo8(52)
 6576 20e0 0E94 0000 		call PWM_init
 6577               	.LM1004:
 6578 20e4 20E0      		ldi r18,lo8(0)
 6579 20e6 30E0      		ldi r19,hi8(0)
 6580 20e8 40E1      		ldi r20,lo8(10000)
 6581 20ea 57E2      		ldi r21,hi8(10000)
 6582 20ec 61E6      		ldi r22,lo8(97)
 6583 20ee 83E3      		ldi r24,lo8(51)
 6584 20f0 0E94 0000 		call PWM
 6585               	.LM1005:
 6586 20f4 20E0      		ldi r18,lo8(0)
 6587 20f6 30E0      		ldi r19,hi8(0)
 6588 20f8 40E1      		ldi r20,lo8(10000)
 6589 20fa 57E2      		ldi r21,hi8(10000)
 6590 20fc 62E6      		ldi r22,lo8(98)
 6591 20fe 83E3      		ldi r24,lo8(51)
 6592 2100 0E94 0000 		call PWM
 6593               	.LM1006:
 6594 2104 20E0      		ldi r18,lo8(0)
 6595 2106 30E0      		ldi r19,hi8(0)
 6596 2108 40E1      		ldi r20,lo8(10000)
 6597 210a 57E2      		ldi r21,hi8(10000)
 6598 210c 63E6      		ldi r22,lo8(99)
 6599 210e 83E3      		ldi r24,lo8(51)
 6600 2110 0E94 0000 		call PWM
 6601               	.LM1007:
 6602 2114 20E0      		ldi r18,lo8(0)
 6603 2116 30E0      		ldi r19,hi8(0)
 6604 2118 40E1      		ldi r20,lo8(10000)
 6605 211a 57E2      		ldi r21,hi8(10000)
 6606 211c 61E6      		ldi r22,lo8(97)
 6607 211e 84E3      		ldi r24,lo8(52)
 6608 2120 0E94 0000 		call PWM
 6609               	.LM1008:
 6610 2124 0E94 0000 		call lcd_init
 6611               	.LM1009:
 6612 2128 0E94 0000 		call ps2_init
 6613               	.LBB1026:
 6614               	.LBB1027:
 6615               	.LM1010:
 6616 212c 8091 7A00 		lds r24,122
 6617 2130 8768      		ori r24,lo8(-121)
 6618 2132 8093 7A00 		sts 122,r24
 6619               	.LM1011:
 6620 2136 8091 7C00 		lds r24,124
 6621 213a 8160      		ori r24,lo8(1)
 6622 213c 8093 7C00 		sts 124,r24
 6623               	.LBE1027:
 6624               	.LBE1026:
 6625               	.LM1012:
 6626 2140 5698      		cbi 42-32,6
 6627               	.LM1013:
 6628 2142 5E9A      		sbi 43-32,6
 6629               	.LM1014:
 6630 2144 5798      		cbi 42-32,7
 6631               	.LM1015:
 6632 2146 5F9A      		sbi 43-32,7
 6633               	.LM1016:
 6634 2148 559A      		sbi 42-32,5
 6635               	.LM1017:
 6636 214a 5D9A      		sbi 43-32,5
 6637               	.LM1018:
 6638 214c 0E94 0000 		call joystick_config
 6639               	.LM1019:
 6640 2150 0E94 0000 		call joystick_config
 6641               	.LM1020:
 6642 2154 0E94 0000 		call joystick_config
 6643               	.LM1021:
 6644 2158 81E0      		ldi r24,lo8(1)
 6645 215a 90E0      		ldi r25,hi8(1)
 6646 215c 9093 0000 		sts (flagh)+1,r25
 6647 2160 8093 0000 		sts flagh,r24
 6648               	.LM1022:
 6649 2164 9093 0000 		sts (flagse)+1,r25
 6650 2168 8093 0000 		sts flagse,r24
 6651               	.LM1023:
 6652 216c 9093 0000 		sts (flagre)+1,r25
 6653 2170 8093 0000 		sts flagre,r24
 6654               	.LM1024:
 6655 2174 9093 0000 		sts (flagf)+1,r25
 6656 2178 8093 0000 		sts flagf,r24
 6657               	.LM1025:
 6658 217c 1092 0000 		sts (flage)+1,__zero_reg__
 6659 2180 1092 0000 		sts flage,__zero_reg__
 6660               	.LM1026:
 6661 2184 8091 7C00 		lds r24,124
 6662 2188 8F5F      		subi r24,lo8(-(1))
 6663 218a 8093 7C00 		sts 124,r24
 6664               	.LM1027:
 6665 218e 8091 7C00 		lds r24,124
 6666 2192 8F5F      		subi r24,lo8(-(1))
 6667 2194 8093 7C00 		sts 124,r24
 6668               	.LM1028:
 6669 2198 83E0      		ldi r24,lo8(3)
 6670 219a 90E0      		ldi r25,hi8(3)
 6671 219c 9093 0000 		sts (step)+1,r25
 6672 21a0 8093 0000 		sts step,r24
 6673               	.LM1029:
 6674 21a4 1D9B      		sbis 35-32,5
 6675 21a6 00C0      		rjmp .L459
 6676 21a8 C0E0      		ldi r28,lo8(0)
 6677 21aa D0E0      		ldi r29,hi8(0)
 6678               	.LVL420:
 6679               	.LBB1028:
 6680               	.LBB1029:
 6681               	.LBB1030:
 6682               	.LBB1031:
 6683               	.LM1030:
 6684 21ac 00E7      		ldi r16,lo8(368)
 6685 21ae 802E      		mov r8,r16
 6686 21b0 01E0      		ldi r16,hi8(368)
 6687 21b2 902E      		mov r9,r16
 6688               	.LBE1031:
 6689               	.LBE1030:
 6690               	.LBE1029:
 6691               	.LBE1028:
 6692               	.LM1031:
 6693 21b4 13E0      		ldi r17,lo8(3)
 6694 21b6 A12E      		mov r10,r17
 6695 21b8 B12C      		mov r11,__zero_reg__
 6696               	.LM1032:
 6697 21ba B1E0      		ldi r27,lo8(1)
 6698 21bc CB2E      		mov r12,r27
 6699 21be D12C      		mov r13,__zero_reg__
 6700               	.LBB1035:
 6701               	.LBB1036:
 6702               	.LBB1037:
 6703               	.LBB1038:
 6704               	.LBB1039:
 6705               	.LBB1040:
 6706               	.LM1033:
 6707 21c0 A4EC      		ldi r26,lo8(-60)
 6708 21c2 7A2E      		mov r7,r26
 6709 21c4 00C0      		rjmp .L492
 6710               	.LVL421:
 6711               	.L459:
 6712               	.LBE1040:
 6713               	.LBE1039:
 6714               	.LBE1038:
 6715               	.LBE1037:
 6716               	.LBE1036:
 6717               	.LBE1035:
 6718               	.LM1034:
 6719 21c6 80E0      		ldi r24,lo8(0)
 6720 21c8 0E94 0000 		call lcd_gotoxy1
 6721               	.LM1035:
 6722 21cc 80E0      		ldi r24,lo8(.LC0)
 6723 21ce 90E0      		ldi r25,hi8(.LC0)
 6724 21d0 0E94 0000 		call lcd_string
 6725               	.LM1036:
 6726 21d4 0E94 0000 		call manual
 6727               	.LM1037:
 6728 21d8 80E0      		ldi r24,lo8(0)
 6729 21da 90E0      		ldi r25,hi8(0)
 6730               	/* epilogue start */
 6731 21dc DF91      		pop r29
 6732 21de CF91      		pop r28
 6733 21e0 1F91      		pop r17
 6734 21e2 0F91      		pop r16
 6735 21e4 FF90      		pop r15
 6736 21e6 EF90      		pop r14
 6737 21e8 DF90      		pop r13
 6738 21ea CF90      		pop r12
 6739 21ec BF90      		pop r11
 6740 21ee AF90      		pop r10
 6741 21f0 9F90      		pop r9
 6742 21f2 8F90      		pop r8
 6743 21f4 7F90      		pop r7
 6744 21f6 0895      		ret
 6745               	.LVL422:
 6746               	.L492:
 6747               	.LM1038:
 6748 21f8 349B      		sbis 38-32,4
 6749 21fa 00C0      		rjmp .L461
 6750               	.LM1039:
 6751 21fc 8091 0000 		lds r24,flagre
 6752 2200 9091 0000 		lds r25,(flagre)+1
 6753 2204 0397      		sbiw r24,3
 6754 2206 01F4      		brne .L462
 6755               	.LM1040:
 6756 2208 1092 0000 		sts (flagre)+1,__zero_reg__
 6757 220c 1092 0000 		sts flagre,__zero_reg__
 6758               	.L462:
 6759               	.LM1041:
 6760 2210 8091 0000 		lds r24,flagse
 6761 2214 9091 0000 		lds r25,(flagse)+1
 6762 2218 0397      		sbiw r24,3
 6763 221a 01F4      		brne .L463
 6764               	.LM1042:
 6765 221c 1092 0000 		sts (flagse)+1,__zero_reg__
 6766 2220 1092 0000 		sts flagse,__zero_reg__
 6767               	.L463:
 6768               	.LM1043:
 6769 2224 8091 0000 		lds r24,flagf
 6770 2228 9091 0000 		lds r25,(flagf)+1
 6771 222c 0397      		sbiw r24,3
 6772 222e 01F4      		brne .L464
 6773               	.LM1044:
 6774 2230 1092 0000 		sts (flagf)+1,__zero_reg__
 6775 2234 1092 0000 		sts flagf,__zero_reg__
 6776               	.L464:
 6777               	.LM1045:
 6778 2238 C230      		cpi r28,2
 6779 223a D105      		cpc r29,__zero_reg__
 6780 223c 01F0      		breq .L468
 6781 223e C330      		cpi r28,3
 6782 2240 D105      		cpc r29,__zero_reg__
 6783 2242 04F4      		brge .L472
 6784 2244 2097      		sbiw r28,0
 6785 2246 01F0      		breq .L466
 6786 2248 C130      		cpi r28,1
 6787 224a D105      		cpc r29,__zero_reg__
 6788 224c 01F4      		brne .L465
 6789 224e 00C0      		rjmp .L494
 6790               	.L472:
 6791 2250 C430      		cpi r28,4
 6792 2252 D105      		cpc r29,__zero_reg__
 6793 2254 01F0      		breq .L470
 6794 2256 C430      		cpi r28,4
 6795 2258 D105      		cpc r29,__zero_reg__
 6796 225a 04F0      		brlt .L469
 6797 225c 00C0      		rjmp .L465
 6798               	.L466:
 6799               	.LM1046:
 6800 225e 80E0      		ldi r24,lo8(0)
 6801 2260 0E94 0000 		call lcd_gotoxy1
 6802               	.LM1047:
 6803 2264 80E0      		ldi r24,lo8(.LC1)
 6804 2266 90E0      		ldi r25,hi8(.LC1)
 6805 2268 00C0      		rjmp .L493
 6806               	.L494:
 6807               	.LM1048:
 6808 226a 0E94 0000 		call see_saw
 6809               	.LM1049:
 6810 226e 80E0      		ldi r24,lo8(0)
 6811 2270 0E94 0000 		call lcd_gotoxy1
 6812               	.LM1050:
 6813 2274 80E0      		ldi r24,lo8(.LC2)
 6814 2276 90E0      		ldi r25,hi8(.LC2)
 6815               	.L493:
 6816 2278 0E94 0000 		call lcd_string
 6817 227c 00C0      		rjmp .L492
 6818               	.L468:
 6819               	.LM1051:
 6820 227e 0E94 0000 		call poll_walk
 6821               	.LM1052:
 6822 2282 80E0      		ldi r24,lo8(0)
 6823 2284 0E94 0000 		call lcd_gotoxy1
 6824               	.LM1053:
 6825 2288 80E0      		ldi r24,lo8(.LC3)
 6826 228a 90E0      		ldi r25,hi8(.LC3)
 6827 228c 00C0      		rjmp .L493
 6828               	.L469:
 6829               	.LM1054:
 6830 228e 80E0      		ldi r24,lo8(0)
 6831 2290 0E94 0000 		call lcd_gotoxy1
 6832               	.LM1055:
 6833 2294 80E0      		ldi r24,lo8(.LC4)
 6834 2296 90E0      		ldi r25,hi8(.LC4)
 6835 2298 0E94 0000 		call lcd_string
 6836               	.LM1056:
 6837 229c 0E94 0000 		call swing
 6838 22a0 00C0      		rjmp .L492
 6839               	.L470:
 6840               	.LM1057:
 6841 22a2 80E2      		ldi r24,lo8(20000)
 6842 22a4 9EE4      		ldi r25,hi8(20000)
 6843               	.LVL423:
 6844               	.L473:
 6845               	.LBB1046:
 6846               	.LBB1034:
 6847               	.LBB1033:
 6848               	.LBB1032:
 6849               	.LM1058:
 6850 22a6 F401      		movw r30,r8
 6851               	.LVL424:
 6852               	/* #APP */
 6853               	 ;  105 "c:/winavr-20080610/lib/gcc/../../avr/include/util/delay_basic.h" 1
 6854 22a8 3197      		1: sbiw r30,1
 6855 22aa 01F4      		brne 1b
 6856               	 ;  0 "" 2
 6857               	/* #NOAPP */
 6858               	.LBE1032:
 6859               	.LBE1033:
 6860               	.LM1059:
 6861 22ac 0197      		sbiw r24,1
 6862               	.LM1060:
 6863 22ae 01F4      		brne .L473
 6864               	.LBE1034:
 6865               	.LBE1046:
 6866               	.LM1061:
 6867 22b0 0E94 0000 		call ladder
 6868               	.LVL425:
 6869               	.LM1062:
 6870 22b4 80E0      		ldi r24,lo8(0)
 6871 22b6 0E94 0000 		call lcd_gotoxy1
 6872               	.LM1063:
 6873 22ba 80E0      		ldi r24,lo8(.LC5)
 6874 22bc 90E0      		ldi r25,hi8(.LC5)
 6875 22be 00C0      		rjmp .L493
 6876               	.L465:
 6877               	.LM1064:
 6878 22c0 80E0      		ldi r24,lo8(0)
 6879 22c2 0E94 0000 		call lcd_gotoxy1
 6880               	.LM1065:
 6881 22c6 80E0      		ldi r24,lo8(.LC6)
 6882 22c8 90E0      		ldi r25,hi8(.LC6)
 6883 22ca 0E94 0000 		call lcd_string
 6884               	.LM1066:
 6885 22ce 0E94 0000 		call stop1
 6886 22d2 00C0      		rjmp .L492
 6887               	.L461:
 6888               	.LM1067:
 6889 22d4 80E0      		ldi r24,lo8(0)
 6890 22d6 0E94 0000 		call lcd_gotoxy1
 6891               	.LM1068:
 6892 22da 80E0      		ldi r24,lo8(.LC7)
 6893 22dc 90E0      		ldi r25,hi8(.LC7)
 6894 22de 0E94 0000 		call lcd_string
 6895               	.LM1069:
 6896 22e2 8091 0000 		lds r24,flagre
 6897 22e6 9091 0000 		lds r25,(flagre)+1
 6898 22ea 892B      		or r24,r25
 6899 22ec 01F4      		brne .L474
 6900               	.LM1070:
 6901 22ee D092 0000 		sts (flagre)+1,r13
 6902 22f2 C092 0000 		sts flagre,r12
 6903               	.L474:
 6904               	.LM1071:
 6905 22f6 8091 0000 		lds r24,flagf
 6906 22fa 9091 0000 		lds r25,(flagf)+1
 6907 22fe 892B      		or r24,r25
 6908 2300 01F4      		brne .L475
 6909               	.LM1072:
 6910 2302 D092 0000 		sts (flagf)+1,r13
 6911 2306 C092 0000 		sts flagf,r12
 6912               	.L475:
 6913               	.LM1073:
 6914 230a 8091 0000 		lds r24,flagse
 6915 230e 9091 0000 		lds r25,(flagse)+1
 6916 2312 892B      		or r24,r25
 6917 2314 01F4      		brne .L476
 6918               	.LM1074:
 6919 2316 D092 0000 		sts (flagse)+1,r13
 6920 231a C092 0000 		sts flagse,r12
 6921               	.L476:
 6922               	.LM1075:
 6923 231e 0E94 0000 		call stop1
 6924               	.LM1076:
 6925 2322 86B1      		in r24,38-32
 6926 2324 90E0      		ldi r25,lo8(0)
 6927 2326 8F70      		andi r24,lo8(15)
 6928 2328 9070      		andi r25,hi8(15)
 6929 232a 9093 0000 		sts (data)+1,r25
 6930 232e 8093 0000 		sts data,r24
 6931               	.LM1077:
 6932 2332 8230      		cpi r24,2
 6933 2334 9105      		cpc r25,__zero_reg__
 6934 2336 01F4      		brne .+2
 6935 2338 00C0      		rjmp .L479
 6936 233a 8330      		cpi r24,3
 6937 233c 9105      		cpc r25,__zero_reg__
 6938 233e 04F4      		brge .L483
 6939 2340 0097      		sbiw r24,0
 6940 2342 01F4      		brne .+2
 6941 2344 00C0      		rjmp .L477
 6942 2346 0197      		sbiw r24,1
 6943 2348 01F0      		breq .+2
 6944 234a 00C0      		rjmp .L492
 6945 234c 00C0      		rjmp .L495
 6946               	.L483:
 6947 234e 8830      		cpi r24,8
 6948 2350 9105      		cpc r25,__zero_reg__
 6949 2352 01F0      		breq .L481
 6950 2354 8F30      		cpi r24,15
 6951 2356 9105      		cpc r25,__zero_reg__
 6952 2358 01F0      		breq .L482
 6953 235a 0497      		sbiw r24,4
 6954 235c 01F0      		breq .+2
 6955 235e 00C0      		rjmp .L492
 6956 2360 00C0      		rjmp .L496
 6957               	.L482:
 6958 2362 C5E0      		ldi r28,lo8(5)
 6959 2364 D0E0      		ldi r29,hi8(5)
 6960 2366 00C0      		rjmp .L492
 6961               	.L481:
 6962               	.LM1078:
 6963 2368 80E0      		ldi r24,lo8(0)
 6964 236a 0E94 0000 		call lcd_gotoxy2
 6965               	.LM1079:
 6966 236e 80E0      		ldi r24,lo8(.LC8)
 6967 2370 90E0      		ldi r25,hi8(.LC8)
 6968 2372 0E94 0000 		call lcd_string
 6969 2376 C1E0      		ldi r28,lo8(1)
 6970 2378 D0E0      		ldi r29,hi8(1)
 6971 237a 00C0      		rjmp .L492
 6972               	.L496:
 6973               	.LBB1047:
 6974               	.LBB1045:
 6975               	.LM1080:
 6976 237c 8091 7A00 		lds r24,122
 6977 2380 8064      		ori r24,lo8(64)
 6978 2382 8093 7A00 		sts 122,r24
 6979               	.L484:
 6980               	.LM1081:
 6981 2386 8091 7A00 		lds r24,122
 6982 238a 84FF      		sbrs r24,4
 6983 238c 00C0      		rjmp .L484
 6984               	.LM1082:
 6985 238e 8091 7800 		lds r24,120
 6986               	.LM1083:
 6987 2392 2091 7900 		lds r18,121
 6988               	.LBB1044:
 6989               	.LBB1043:
 6990               	.LBB1042:
 6991               	.LBB1041:
 6992               	.LM1084:
 6993 2396 972D      		mov r25,r7
 6994               	.LVL426:
 6995               	/* #APP */
 6996               	 ;  83 "c:/winavr-20080610/lib/gcc/../../avr/include/util/delay_basic.h" 1
 6997 2398 9A95      		1: dec r25
 6998 239a 01F4      		brne 1b
 6999               	 ;  0 "" 2
 7000               	/* #NOAPP */
 7001               	.LBE1041:
 7002               	.LBE1042:
 7003               	.LBE1043:
 7004               	.LBE1044:
 7005               	.LBE1045:
 7006               	.LBE1047:
 7007               	.LM1085:
 7008 239c 122F      		mov r17,r18
 7009 239e 00E0      		ldi r16,lo8(0)
 7010 23a0 90E0      		ldi r25,lo8(0)
 7011               	.LVL427:
 7012 23a2 802B      		or r24,r16
 7013 23a4 912B      		or r25,r17
 7014 23a6 9093 0000 		sts (a2)+1,r25
 7015 23aa 8093 0000 		sts a2,r24
 7016               	.LM1086:
 7017 23ae 8091 7C00 		lds r24,124
 7018 23b2 8260      		ori r24,lo8(2)
 7019 23b4 8093 7C00 		sts 124,r24
 7020               	.LM1087:
 7021 23b8 8091 7C00 		lds r24,124
 7022 23bc 8E7F      		andi r24,lo8(-2)
 7023 23be 8093 7C00 		sts 124,r24
 7024               	.LBB1048:
 7025               	.LBB1049:
 7026               	.LM1088:
 7027 23c2 8091 7A00 		lds r24,122
 7028 23c6 8064      		ori r24,lo8(64)
 7029 23c8 8093 7A00 		sts 122,r24
 7030               	.L485:
 7031               	.LM1089:
 7032 23cc 8091 7A00 		lds r24,122
 7033 23d0 84FF      		sbrs r24,4
 7034 23d2 00C0      		rjmp .L485
 7035               	.LM1090:
 7036 23d4 8091 7800 		lds r24,120
 7037 23d8 90E0      		ldi r25,lo8(0)
 7038 23da 9093 0000 		sts (x1)+1,r25
 7039 23de 8093 0000 		sts x1,r24
 7040               	.LM1091:
 7041 23e2 2091 7900 		lds r18,121
 7042               	.LM1092:
 7043 23e6 F22E      		mov r15,r18
 7044 23e8 EE24      		clr r14
 7045 23ea 9701      		movw r18,r14
 7046 23ec 282B      		or r18,r24
 7047 23ee 392B      		or r19,r25
 7048 23f0 3093 0000 		sts (temp)+1,r19
 7049 23f4 2093 0000 		sts temp,r18
 7050               	.LBB1050:
 7051               	.LBB1051:
 7052               	.LBB1052:
 7053               	.LBB1053:
 7054               	.LM1093:
 7055 23f8 872D      		mov r24,r7
 7056               	.LVL428:
 7057               	/* #APP */
 7058               	 ;  83 "c:/winavr-20080610/lib/gcc/../../avr/include/util/delay_basic.h" 1
 7059 23fa 8A95      		1: dec r24
 7060 23fc 01F4      		brne 1b
 7061               	 ;  0 "" 2
 7062               	/* #NOAPP */
 7063               	.LBE1053:
 7064               	.LBE1052:
 7065               	.LBE1051:
 7066               	.LBE1050:
 7067               	.LBE1049:
 7068               	.LBE1048:
 7069               	.LM1094:
 7070 23fe 3093 0000 		sts (a1)+1,r19
 7071 2402 2093 0000 		sts a1,r18
 7072               	.LM1095:
 7073 2406 8091 7C00 		lds r24,124
 7074               	.LVL429:
 7075 240a 8160      		ori r24,lo8(1)
 7076 240c 8093 7C00 		sts 124,r24
 7077               	.LM1096:
 7078 2410 8091 7C00 		lds r24,124
 7079 2414 8D7F      		andi r24,lo8(-3)
 7080 2416 8093 7C00 		sts 124,r24
 7081               	.LM1097:
 7082 241a 2E5F      		subi r18,lo8(510)
 7083 241c 3140      		sbci r19,hi8(510)
 7084 241e 04F4      		brge .L486
 7085               	.LM1098:
 7086 2420 88E2      		ldi r24,lo8(40)
 7087 2422 90E0      		ldi r25,hi8(40)
 7088 2424 0E94 0000 		call rightanti
 7089 2428 00C0      		rjmp .L487
 7090               	.L486:
 7091               	.LM1099:
 7092 242a 80E0      		ldi r24,lo8(0)
 7093 242c 0E94 0000 		call lcd_gotoxy2
 7094               	.LM1100:
 7095 2430 8CE4      		ldi r24,lo8(76)
 7096 2432 0E94 0000 		call lcd_char
 7097               	.LM1101:
 7098 2436 0E94 0000 		call stop1
 7099               	.L487:
 7100               	.LM1102:
 7101 243a 8091 0501 		lds r24,261
 7102 243e 8062      		ori r24,lo8(32)
 7103 2440 8093 0501 		sts 261,r24
 7104               	.LM1103:
 7105 2444 80E0      		ldi r24,lo8(0)
 7106 2446 0E94 0000 		call lcd_gotoxy2
 7107               	.LM1104:
 7108 244a 80E0      		ldi r24,lo8(.LC9)
 7109 244c 90E0      		ldi r25,hi8(.LC9)
 7110 244e 0E94 0000 		call lcd_string
 7111               	.LM1105:
 7112 2452 B092 0000 		sts (flagse)+1,r11
 7113 2456 A092 0000 		sts flagse,r10
 7114 245a C2E0      		ldi r28,lo8(2)
 7115 245c D0E0      		ldi r29,hi8(2)
 7116 245e 00C0      		rjmp .L492
 7117               	.L479:
 7118               	.LM1106:
 7119 2460 0E94 0000 		call retract
 7120               	.LM1107:
 7121 2464 80E0      		ldi r24,lo8(0)
 7122 2466 0E94 0000 		call lcd_gotoxy2
 7123               	.LM1108:
 7124 246a 80E0      		ldi r24,lo8(.LC10)
 7125 246c 90E0      		ldi r25,hi8(.LC10)
 7126 246e 0E94 0000 		call lcd_string
 7127 2472 C3E0      		ldi r28,lo8(3)
 7128 2474 D0E0      		ldi r29,hi8(3)
 7129 2476 00C0      		rjmp .L492
 7130               	.L495:
 7131               	.LM1109:
 7132 2478 0E94 0000 		call retract
 7133               	.LM1110:
 7134 247c 80E0      		ldi r24,lo8(0)
 7135 247e 0E94 0000 		call lcd_gotoxy2
 7136               	.LM1111:
 7137 2482 80E0      		ldi r24,lo8(.LC11)
 7138 2484 90E0      		ldi r25,hi8(.LC11)
 7139 2486 0E94 0000 		call lcd_string
 7140               	.LM1112:
 7141 248a 85E0      		ldi r24,lo8(5)
 7142 248c 90E0      		ldi r25,hi8(5)
 7143 248e 0E94 0000 		call BotUp
 7144 2492 C4E0      		ldi r28,lo8(4)
 7145 2494 D0E0      		ldi r29,hi8(4)
 7146 2496 00C0      		rjmp .L492
 7147               	.L477:
 7148               	.LM1113:
 7149 2498 8091 0501 		lds r24,261
 7150 249c 8F7D      		andi r24,lo8(-33)
 7151 249e 8093 0501 		sts 261,r24
 7152               	.LM1114:
 7153 24a2 0E94 0000 		call retract
 7154               	.LM1115:
 7155 24a6 0E94 0000 		call retract
 7156 24aa C0E0      		ldi r28,lo8(0)
 7157 24ac D0E0      		ldi r29,hi8(0)
 7158 24ae 00C0      		rjmp .L492
 7159               	.LFE51:
 7161               	.global	k
 7162               	.global	k
 7163               		.section .bss
 7166               	k:
 7167 0000 00        		.skip 1,0
 7168               	.global	j
 7169               	.global	j
 7172               	j:
 7173 0001 00        		.skip 1,0
 7174               	.global	save
 7175               	.global	save
 7178               	save:
 7179 0002 00        		.skip 1,0
 7180               	.global	ch
 7181               		.data
 7184               	ch:
 7185 005c 30        		.byte	48
 7186 005d 31        		.byte	49
 7187 005e 32        		.byte	50
 7188 005f 33        		.byte	51
 7189 0060 34        		.byte	52
 7190 0061 35        		.byte	53
 7191 0062 36        		.byte	54
 7192 0063 37        		.byte	55
 7193 0064 38        		.byte	56
 7194 0065 39        		.byte	57
 7195               	.global	tenthousand
 7196               	.global	tenthousand
 7197               		.section .bss
 7200               	tenthousand:
 7201 0003 00        		.skip 1,0
 7202               	.global	thousand
 7203               	.global	thousand
 7206               	thousand:
 7207 0004 00        		.skip 1,0
 7208               	.global	hundred
 7209               	.global	hundred
 7212               	hundred:
 7213 0005 00        		.skip 1,0
 7214               	.global	ten
 7215               	.global	ten
 7218               	ten:
 7219 0006 00        		.skip 1,0
 7220               	.global	one
 7221               	.global	one
 7224               	one:
 7225 0007 00        		.skip 1,0
 7226               	.global	chk_ana
 7227               	.global	chk_ana
 7230               	chk_ana:
 7231 0008 00        		.skip 1,0
 7232               	.global	data0
 7233               	.global	data0
 7236               	data0:
 7237 0009 0000      		.skip 2,0
 7238               	.global	data1
 7239               	.global	data1
 7242               	data1:
 7243 000b 0000      		.skip 2,0
 7244               	.global	data2
 7245               	.global	data2
 7248               	data2:
 7249 000d 0000      		.skip 2,0
 7250               	.global	data3
 7251               	.global	data3
 7254               	data3:
 7255 000f 0000      		.skip 2,0
 7256               	.global	data4
 7257               	.global	data4
 7260               	data4:
 7261 0011 0000      		.skip 2,0
 7262               	.global	data5
 7263               	.global	data5
 7266               	data5:
 7267 0013 0000      		.skip 2,0
 7268               	.global	temp
 7269               	.global	temp
 7272               	temp:
 7273 0015 0000      		.skip 2,0
 7274               	.global	flag
 7275               	.global	flag
 7278               	flag:
 7279 0017 0000      		.skip 2,0
 7280               	.global	check1
 7281               	.global	check1
 7284               	check1:
 7285 0019 0000      		.skip 2,0
 7286               	.global	check2
 7287               	.global	check2
 7290               	check2:
 7291 001b 0000      		.skip 2,0
 7292               	.global	flagse
 7293               	.global	flagse
 7296               	flagse:
 7297 001d 0000      		.skip 2,0
 7298               	.global	flagre
 7299               	.global	flagre
 7302               	flagre:
 7303 001f 0000      		.skip 2,0
 7304               	.global	flagb
 7305               	.global	flagb
 7308               	flagb:
 7309 0021 0000      		.skip 2,0
 7310               	.global	flage
 7311               		.data
 7314               	flage:
 7315 0066 0100      		.word	1
 7316               	.global	flagf
 7317               	.global	flagf
 7318               		.section .bss
 7321               	flagf:
 7322 0023 0000      		.skip 2,0
 7323               	.global	i
 7324               	.global	i
 7327               	i:
 7328 0025 0000      		.skip 2,0
 7329               	.global	step
 7330               	.global	step
 7333               	step:
 7334 0027 0000      		.skip 2,0
 7335               	.global	data
 7336               	.global	data
 7339               	data:
 7340 0029 0000      		.skip 2,0
 7341               	.global	swing1
 7342               	.global	swing1
 7345               	swing1:
 7346 002b 0000      		.skip 2,0
 7347               		.comm temp1,2,1
 7348               		.comm temp2,2,1
 7349               		.comm x1,2,1
 7350               		.comm a1,2,1
 7351               		.comm a2,2,1
 7352               		.comm flagh,2,1
 7353               		.comm tempc,2,1
 7722               	.Letext0:
DEFINED SYMBOLS
                            *ABS*:00000000 main.c
C:\Users\RG\AppData\Local\Temp/ccRDrPND.s:2      *ABS*:0000003f __SREG__
C:\Users\RG\AppData\Local\Temp/ccRDrPND.s:3      *ABS*:0000003e __SP_H__
C:\Users\RG\AppData\Local\Temp/ccRDrPND.s:4      *ABS*:0000003d __SP_L__
C:\Users\RG\AppData\Local\Temp/ccRDrPND.s:5      *ABS*:00000034 __CCP__
C:\Users\RG\AppData\Local\Temp/ccRDrPND.s:6      *ABS*:00000000 __tmp_reg__
C:\Users\RG\AppData\Local\Temp/ccRDrPND.s:7      *ABS*:00000001 __zero_reg__
C:\Users\RG\AppData\Local\Temp/ccRDrPND.s:20     .text:00000000 compute_duty_cycle
C:\Users\RG\AppData\Local\Temp/ccRDrPND.s:83     .text:00000054 toggleE
C:\Users\RG\AppData\Local\Temp/ccRDrPND.s:121    .text:00000062 dely_ns
C:\Users\RG\AppData\Local\Temp/ccRDrPND.s:7166   .bss:00000000 k
C:\Users\RG\AppData\Local\Temp/ccRDrPND.s:7172   .bss:00000001 j
C:\Users\RG\AppData\Local\Temp/ccRDrPND.s:147    .text:0000007c lcd_cmd
C:\Users\RG\AppData\Local\Temp/ccRDrPND.s:338    .text:0000010a lcd_init
C:\Users\RG\AppData\Local\Temp/ccRDrPND.s:661    .text:00000252 lcd_char
C:\Users\RG\AppData\Local\Temp/ccRDrPND.s:853    .text:000002e0 lcd_string
C:\Users\RG\AppData\Local\Temp/ccRDrPND.s:1081   .text:000003b0 lcd_showvalue
C:\Users\RG\AppData\Local\Temp/ccRDrPND.s:1310   .text:00000524 lcd_gotoxy1
C:\Users\RG\AppData\Local\Temp/ccRDrPND.s:1327   .text:0000052c lcd_gotoxy2
C:\Users\RG\AppData\Local\Temp/ccRDrPND.s:1344   .text:00000534 lcd_showvalueh
C:\Users\RG\AppData\Local\Temp/ccRDrPND.s:1414   .text:0000059e lcd_exit
C:\Users\RG\AppData\Local\Temp/ccRDrPND.s:7178   .bss:00000002 save
C:\Users\RG\AppData\Local\Temp/ccRDrPND.s:1429   .text:000005a6 WaitMs
C:\Users\RG\AppData\Local\Temp/ccRDrPND.s:1468   .text:000005c2 gameByte
C:\Users\RG\AppData\Local\Temp/ccRDrPND.s:1601   .text:00000626 joystick_config
C:\Users\RG\AppData\Local\Temp/ccRDrPND.s:7230   .bss:00000008 chk_ana
C:\Users\RG\AppData\Local\Temp/ccRDrPND.s:1935   .text:000007a0 ps2_init
C:\Users\RG\AppData\Local\Temp/ccRDrPND.s:1961   .text:000007b0 joystick_poll
C:\Users\RG\AppData\Local\Temp/ccRDrPND.s:7272   .bss:00000015 temp
C:\Users\RG\AppData\Local\Temp/ccRDrPND.s:7236   .bss:00000009 data0
C:\Users\RG\AppData\Local\Temp/ccRDrPND.s:7242   .bss:0000000b data1
C:\Users\RG\AppData\Local\Temp/ccRDrPND.s:7248   .bss:0000000d data2
C:\Users\RG\AppData\Local\Temp/ccRDrPND.s:7254   .bss:0000000f data3
C:\Users\RG\AppData\Local\Temp/ccRDrPND.s:7260   .bss:00000011 data4
C:\Users\RG\AppData\Local\Temp/ccRDrPND.s:7266   .bss:00000013 data5
C:\Users\RG\AppData\Local\Temp/ccRDrPND.s:2067   .text:00000848 port_init
C:\Users\RG\AppData\Local\Temp/ccRDrPND.s:2112   .text:00000876 adc_init
C:\Users\RG\AppData\Local\Temp/ccRDrPND.s:2136   .text:0000088c poll_adc
                            *COM*:00000002 x1
C:\Users\RG\AppData\Local\Temp/ccRDrPND.s:2190   .text:000008ca distance
                            *COM*:00000002 a2
                            *COM*:00000002 a1
C:\Users\RG\AppData\Local\Temp/ccRDrPND.s:2570   .text:00000a92 lcd_showvaluef
C:\Users\RG\AppData\Local\Temp/ccRDrPND.s:2633   .text:00000af8 PWM
C:\Users\RG\AppData\Local\Temp/ccRDrPND.s:2836   .text:00000c32 stop2
C:\Users\RG\AppData\Local\Temp/ccRDrPND.s:7278   .bss:00000017 flag
C:\Users\RG\AppData\Local\Temp/ccRDrPND.s:7308   .bss:00000021 flagb
C:\Users\RG\AppData\Local\Temp/ccRDrPND.s:2915   .text:00000cc2 stop1
C:\Users\RG\AppData\Local\Temp/ccRDrPND.s:2975   .text:00000d2c shiftdown
C:\Users\RG\AppData\Local\Temp/ccRDrPND.s:3004   .text:00000d4a shiftup
C:\Users\RG\AppData\Local\Temp/ccRDrPND.s:3033   .text:00000d68 BotDown
C:\Users\RG\AppData\Local\Temp/ccRDrPND.s:3062   .text:00000d86 reswing
C:\Users\RG\AppData\Local\Temp/ccRDrPND.s:7345   .bss:0000002b swing1
C:\Users\RG\AppData\Local\Temp/ccRDrPND.s:3119   .text:00000dc4 BotUp
C:\Users\RG\AppData\Local\Temp/ccRDrPND.s:3148   .text:00000de2 swing
C:\Users\RG\AppData\Local\Temp/ccRDrPND.s:3230   .text:00000e2c ladder
C:\Users\RG\AppData\Local\Temp/ccRDrPND.s:7333   .bss:00000027 step
C:\Users\RG\AppData\Local\Temp/ccRDrPND.s:4591   .text:00001574 rightanti
C:\Users\RG\AppData\Local\Temp/ccRDrPND.s:4624   .text:0000159a rightclock
C:\Users\RG\AppData\Local\Temp/ccRDrPND.s:4657   .text:000015c0 leftclock
C:\Users\RG\AppData\Local\Temp/ccRDrPND.s:4690   .text:000015e6 retract
C:\Users\RG\AppData\Local\Temp/ccRDrPND.s:7302   .bss:0000001f flagre
C:\Users\RG\AppData\Local\Temp/ccRDrPND.s:4859   .text:000016f0 leftanti
C:\Users\RG\AppData\Local\Temp/ccRDrPND.s:4892   .text:00001716 manual
C:\Users\RG\AppData\Local\Temp/ccRDrPND.s:5236   .text:0000193c poll_walk
                            *COM*:00000002 flagh
C:\Users\RG\AppData\Local\Temp/ccRDrPND.s:6053   .text:00001de2 see_saw
C:\Users\RG\AppData\Local\Temp/ccRDrPND.s:7296   .bss:0000001d flagse
C:\Users\RG\AppData\Local\Temp/ccRDrPND.s:6218   .text:00001ee0 fold
C:\Users\RG\AppData\Local\Temp/ccRDrPND.s:7321   .bss:00000023 flagf
C:\Users\RG\AppData\Local\Temp/ccRDrPND.s:6383   .text:00001fde setPWM
C:\Users\RG\AppData\Local\Temp/ccRDrPND.s:6495   .text:0000209a PWM_init
C:\Users\RG\AppData\Local\Temp/ccRDrPND.s:6539   .text:000020a4 main
C:\Users\RG\AppData\Local\Temp/ccRDrPND.s:7314   .data:00000066 flage
C:\Users\RG\AppData\Local\Temp/ccRDrPND.s:7339   .bss:00000029 data
C:\Users\RG\AppData\Local\Temp/ccRDrPND.s:7184   .data:0000005c ch
C:\Users\RG\AppData\Local\Temp/ccRDrPND.s:7200   .bss:00000003 tenthousand
C:\Users\RG\AppData\Local\Temp/ccRDrPND.s:7206   .bss:00000004 thousand
C:\Users\RG\AppData\Local\Temp/ccRDrPND.s:7212   .bss:00000005 hundred
C:\Users\RG\AppData\Local\Temp/ccRDrPND.s:7218   .bss:00000006 ten
C:\Users\RG\AppData\Local\Temp/ccRDrPND.s:7224   .bss:00000007 one
C:\Users\RG\AppData\Local\Temp/ccRDrPND.s:7284   .bss:00000019 check1
C:\Users\RG\AppData\Local\Temp/ccRDrPND.s:7290   .bss:0000001b check2
C:\Users\RG\AppData\Local\Temp/ccRDrPND.s:7327   .bss:00000025 i
                            *COM*:00000002 temp1
                            *COM*:00000002 temp2
                            *COM*:00000002 tempc

UNDEFINED SYMBOLS
__do_copy_data
__do_clear_bss
__udivmodhi4
__udivmodsi4
__mulsi3
__divmodhi4
__fixunssfsi
modf
__mulsf3
toupper
