   1               		.file	"main.c"
   2               	__SREG__ = 0x3f
   3               	__SP_H__ = 0x3e
   4               	__SP_L__ = 0x3d
   5               	__CCP__  = 0x34
   6               	__tmp_reg__ = 0
   7               	__zero_reg__ = 1
  15               	.Ltext0:
  16               	.global	toggleE
  18               	toggleE:
  19               	.LFB9:
  20               	.LM1:
  21               	/* prologue: function */
  22               	/* frame size = 0 */
  23               	.LM2:
  24 0000 709A      		sbi 46-32,0
  25               	.LBB128:
  26               	.LBB129:
  27               	.LBB130:
  28               	.LBB131:
  29               	.LBB132:
  30               	.LBB133:
  31               	.LM3:
  32 0002 83E3      		ldi r24,lo8(1843)
  33 0004 97E0      		ldi r25,hi8(1843)
  34               	.LVL0:
  35               	/* #APP */
  36               	 ;  105 "c:/winavr-20100110/lib/gcc/../../avr/include/util/delay_basic.h" 1
  37 0006 0197      		1: sbiw r24,1
  38 0008 01F4      		brne 1b
  39               	 ;  0 "" 2
  40               	/* #NOAPP */
  41               	.LBE133:
  42               	.LBE132:
  43               	.LBE131:
  44               	.LBE130:
  45               	.LBE129:
  46               	.LBE128:
  47               	.LM4:
  48 000a 7098      		cbi 46-32,0
  49               	/* epilogue start */
  50               	.LM5:
  51 000c 0895      		ret
  52               	.LFE9:
  54               	.global	dely_ns
  56               	dely_ns:
  57               	.LFB10:
  58               	.LM6:
  59               	.LVL1:
  60               	/* prologue: function */
  61               	/* frame size = 0 */
  62               	.LM7:
  63 000e 2091 0000 		lds r18,k
  64 0012 90E0      		ldi r25,lo8(0)
  65 0014 00C0      		rjmp .L4
  66               	.L5:
  67               	.LM8:
  68 0016 9F5F      		subi r25,lo8(-(1))
  69 0018 2AE0      		ldi r18,lo8(10)
  70               	.L4:
  71 001a 9817      		cp r25,r24
  72 001c 00F0      		brlo .L5
  73 001e 2093 0000 		sts k,r18
  74 0022 9093 0000 		sts j,r25
  75               	/* epilogue start */
  76               	.LM9:
  77 0026 0895      		ret
  78               	.LFE10:
  80               	.global	lcd_exit
  82               	lcd_exit:
  83               	.LFB19:
  84               	.LM10:
  85               	/* prologue: function */
  86               	/* frame size = 0 */
  87               	.LM11:
  88 0028 8091 0000 		lds r24,save
  89 002c 82B9      		out 34-32,r24
  90               	/* epilogue start */
  91               	.LM12:
  92 002e 0895      		ret
  93               	.LFE19:
  95               	.global	WaitMs
  97               	WaitMs:
  98               	.LFB20:
  99               	.LM13:
 100               	.LVL2:
 101               	/* prologue: function */
 102               	/* frame size = 0 */
 103 0030 00C0      		rjmp .L10
 104               	.LVL3:
 105               	.L12:
 106               	.LM14:
 107 0032 20E0      		ldi r18,lo8(0)
 108 0034 30E0      		ldi r19,hi8(0)
 109               	.L11:
 110               	.LM15:
 111               	/* #APP */
 112               	 ;  340 "LCD640.h" 1
 113 0036 0000      		nop
 114               	 ;  0 "" 2
 115               	.LM16:
 116               	/* #NOAPP */
 117 0038 2F5F      		subi r18,lo8(-(1))
 118 003a 3F4F      		sbci r19,hi8(-(1))
 119 003c 4CE0      		ldi r20,hi8(3276)
 120 003e 2C3C      		cpi r18,lo8(3276)
 121 0040 3407      		cpc r19,r20
 122 0042 01F4      		brne .L11
 123 0044 0197      		sbiw r24,1
 124               	.LVL4:
 125               	.L10:
 126               	.LM17:
 127 0046 0097      		sbiw r24,0
 128 0048 01F4      		brne .L12
 129               	/* epilogue start */
 130               	.LM18:
 131 004a 0895      		ret
 132               	.LFE20:
 134               	.global	lcd_char
 136               	lcd_char:
 137               	.LFB12:
 138               	.LM19:
 139               	.LVL5:
 140 004c 1F93      		push r17
 141               	/* prologue: function */
 142               	/* frame size = 0 */
 143 004e 182F      		mov r17,r24
 144               	.LM20:
 145 0050 8FE0      		ldi r24,lo8(15)
 146 0052 90E0      		ldi r25,hi8(15)
 147               	.LVL6:
 148 0054 0E94 0000 		call WaitMs
 149               	.LM21:
 150 0058 A59A      		sbi 52-32,5
 151               	.LM22:
 152 005a 7098      		cbi 46-32,0
 153               	.LM23:
 154 005c 212F      		mov r18,r17
 155 005e 30E0      		ldi r19,lo8(0)
 156               	.LM24:
 157 0060 C901      		movw r24,r18
 158 0062 807C      		andi r24,lo8(192)
 159 0064 9070      		andi r25,hi8(192)
 160 0066 8EB9      		out 46-32,r24
 161               	.LM25:
 162 0068 8EB1      		in r24,46-32
 163 006a 1695      		lsr r17
 164 006c 1695      		lsr r17
 165 006e 1695      		lsr r17
 166 0070 1670      		andi r17,lo8(6)
 167 0072 812B      		or r24,r17
 168 0074 8EB9      		out 46-32,r24
 169               	.LBB134:
 170               	.LBB135:
 171               	.LBB136:
 172               	.LBB137:
 173               	.LM26:
 174 0076 68E1      		ldi r22,lo8(24)
 175 0078 862F      		mov r24,r22
 176               	.LVL7:
 177               	/* #APP */
 178               	 ;  83 "c:/winavr-20100110/lib/gcc/../../avr/include/util/delay_basic.h" 1
 179 007a 8A95      		1: dec r24
 180 007c 01F4      		brne 1b
 181               	 ;  0 "" 2
 182               	/* #NOAPP */
 183               	.LBE137:
 184               	.LBE136:
 185               	.LBE135:
 186               	.LBE134:
 187               	.LBB138:
 188               	.LBB139:
 189               	.LM27:
 190 007e 709A      		sbi 46-32,0
 191               	.LBB140:
 192               	.LBB141:
 193               	.LBB142:
 194               	.LBB143:
 195               	.LBB144:
 196               	.LBB145:
 197               	.LM28:
 198 0080 43E3      		ldi r20,lo8(1843)
 199 0082 57E0      		ldi r21,hi8(1843)
 200 0084 CA01      		movw r24,r20
 201               	.LVL8:
 202               	/* #APP */
 203               	 ;  105 "c:/winavr-20100110/lib/gcc/../../avr/include/util/delay_basic.h" 1
 204 0086 0197      		1: sbiw r24,1
 205 0088 01F4      		brne 1b
 206               	 ;  0 "" 2
 207               	/* #NOAPP */
 208               	.LBE145:
 209               	.LBE144:
 210               	.LBE143:
 211               	.LBE142:
 212               	.LBE141:
 213               	.LBE140:
 214               	.LM29:
 215 008a 7098      		cbi 46-32,0
 216               	.LBE139:
 217               	.LBE138:
 218               	.LM30:
 219 008c A598      		cbi 52-32,5
 220               	.LM31:
 221 008e 7098      		cbi 46-32,0
 222               	.LM32:
 223 0090 A59A      		sbi 52-32,5
 224               	.LM33:
 225 0092 C901      		movw r24,r18
 226               	.LVL9:
 227 0094 74E0      		ldi r23,4
 228 0096 880F      	1:	lsl r24
 229 0098 991F      		rol r25
 230 009a 7A95      		dec r23
 231 009c 01F4      		brne 1b
 232 009e 807C      		andi r24,lo8(192)
 233 00a0 9070      		andi r25,hi8(192)
 234 00a2 8EB9      		out 46-32,r24
 235               	.LM34:
 236 00a4 8EB1      		in r24,46-32
 237 00a6 220F      		lsl r18
 238 00a8 331F      		rol r19
 239 00aa 2670      		andi r18,lo8(6)
 240 00ac 3070      		andi r19,hi8(6)
 241 00ae 822B      		or r24,r18
 242 00b0 8EB9      		out 46-32,r24
 243               	.LBB146:
 244               	.LBB147:
 245               	.LBB148:
 246               	.LBB149:
 247               	.LM35:
 248               	/* #APP */
 249               	 ;  83 "c:/winavr-20100110/lib/gcc/../../avr/include/util/delay_basic.h" 1
 250 00b2 6A95      		1: dec r22
 251 00b4 01F4      		brne 1b
 252               	 ;  0 "" 2
 253               	.LVL10:
 254               	/* #NOAPP */
 255               	.LBE149:
 256               	.LBE148:
 257               	.LBE147:
 258               	.LBE146:
 259               	.LBB150:
 260               	.LBB151:
 261               	.LM36:
 262 00b6 709A      		sbi 46-32,0
 263               	.LBB152:
 264               	.LBB153:
 265               	.LBB154:
 266               	.LBB155:
 267               	.LBB156:
 268               	.LBB157:
 269               	.LM37:
 270 00b8 CA01      		movw r24,r20
 271               	.LVL11:
 272               	/* #APP */
 273               	 ;  105 "c:/winavr-20100110/lib/gcc/../../avr/include/util/delay_basic.h" 1
 274 00ba 0197      		1: sbiw r24,1
 275 00bc 01F4      		brne 1b
 276               	 ;  0 "" 2
 277               	/* #NOAPP */
 278               	.LBE157:
 279               	.LBE156:
 280               	.LBE155:
 281               	.LBE154:
 282               	.LBE153:
 283               	.LBE152:
 284               	.LM38:
 285 00be 7098      		cbi 46-32,0
 286               	/* epilogue start */
 287               	.LBE151:
 288               	.LBE150:
 289               	.LM39:
 290 00c0 1F91      		pop r17
 291               	.LVL12:
 292 00c2 0895      		ret
 293               	.LFE12:
 295               	.global	lcd_showvalueh
 297               	lcd_showvalueh:
 298               	.LFB18:
 299               	.LM40:
 300               	.LVL13:
 301 00c4 EF92      		push r14
 302 00c6 FF92      		push r15
 303 00c8 0F93      		push r16
 304 00ca 1F93      		push r17
 305               	/* prologue: function */
 306               	/* frame size = 0 */
 307 00cc 8C01      		movw r16,r24
 308               	.LM41:
 309 00ce 64E6      		ldi r22,lo8(100)
 310 00d0 70E0      		ldi r23,hi8(100)
 311 00d2 0E94 0000 		call __udivmodhi4
 312               	.LVL14:
 313 00d6 462F      		mov r20,r22
 314               	.LM42:
 315 00d8 262F      		mov r18,r22
 316               	.LVL15:
 317 00da 30E0      		ldi r19,lo8(0)
 318               	.LVL16:
 319 00dc 8CE9      		ldi r24,lo8(-100)
 320 00de 9FEF      		ldi r25,hi8(-100)
 321 00e0 289F      		mul r18,r24
 322 00e2 7001      		movw r14,r0
 323 00e4 299F      		mul r18,r25
 324 00e6 F00C      		add r15,r0
 325 00e8 389F      		mul r19,r24
 326 00ea F00C      		add r15,r0
 327 00ec 1124      		clr r1
 328 00ee C701      		movw r24,r14
 329 00f0 800F      		add r24,r16
 330 00f2 911F      		adc r25,r17
 331 00f4 6AE0      		ldi r22,lo8(10)
 332 00f6 70E0      		ldi r23,hi8(10)
 333 00f8 0E94 0000 		call __udivmodhi4
 334 00fc 162F      		mov r17,r22
 335               	.LM43:
 336 00fe 842F      		mov r24,r20
 337 0100 805D      		subi r24,lo8(-(48))
 338 0102 0E94 0000 		call lcd_char
 339               	.LVL17:
 340               	.LM44:
 341 0106 812F      		mov r24,r17
 342 0108 805D      		subi r24,lo8(-(48))
 343 010a 0E94 0000 		call lcd_char
 344               	.LM45:
 345 010e 005D      		subi r16,lo8(-(48))
 346               	.LVL18:
 347 0110 0E0D      		add r16,r14
 348 0112 86EF      		ldi r24,lo8(-10)
 349 0114 9FEF      		ldi r25,hi8(-10)
 350 0116 189F      		mul r17,r24
 351 0118 602D      		mov r22,r0
 352 011a 1124      		clr r1
 353 011c 862F      		mov r24,r22
 354 011e 800F      		add r24,r16
 355 0120 0E94 0000 		call lcd_char
 356               	/* epilogue start */
 357               	.LM46:
 358 0124 1F91      		pop r17
 359 0126 0F91      		pop r16
 360 0128 FF90      		pop r15
 361 012a EF90      		pop r14
 362 012c 0895      		ret
 363               	.LFE18:
 365               	.global	lcd_showvalue
 367               	lcd_showvalue:
 368               	.LFB14:
 369               	.LM47:
 370               	.LVL19:
 371 012e 8F92      		push r8
 372 0130 9F92      		push r9
 373 0132 AF92      		push r10
 374 0134 BF92      		push r11
 375 0136 CF92      		push r12
 376 0138 DF92      		push r13
 377 013a EF92      		push r14
 378 013c FF92      		push r15
 379 013e 1F93      		push r17
 380 0140 CF93      		push r28
 381 0142 DF93      		push r29
 382               	/* prologue: function */
 383               	/* frame size = 0 */
 384 0144 4B01      		movw r8,r22
 385 0146 5C01      		movw r10,r24
 386               	.LM48:
 387 0148 20EA      		ldi r18,lo8(100000)
 388 014a 36E8      		ldi r19,hi8(100000)
 389 014c 41E0      		ldi r20,hlo8(100000)
 390 014e 50E0      		ldi r21,hhi8(100000)
 391 0150 0E94 0000 		call __udivmodsi4
 392               	.LVL20:
 393 0154 6115      		cp r22,__zero_reg__
 394 0156 7105      		cpc r23,__zero_reg__
 395 0158 8105      		cpc r24,__zero_reg__
 396 015a 9105      		cpc r25,__zero_reg__
 397 015c 01F4      		brne .L20
 398 015e C5E0      		ldi r28,lo8(5)
 399 0160 D0E0      		ldi r29,hi8(5)
 400               	.LVL21:
 401 0162 00C0      		rjmp .L21
 402               	.LVL22:
 403               	.L20:
 404               	.LM49:
 405 0164 C501      		movw r24,r10
 406 0166 B401      		movw r22,r8
 407 0168 20E1      		ldi r18,lo8(10000)
 408 016a 37E2      		ldi r19,hi8(10000)
 409 016c 40E0      		ldi r20,hlo8(10000)
 410 016e 50E0      		ldi r21,hhi8(10000)
 411 0170 0E94 0000 		call __udivmodsi4
 412 0174 6115      		cp r22,__zero_reg__
 413 0176 7105      		cpc r23,__zero_reg__
 414 0178 8105      		cpc r24,__zero_reg__
 415 017a 9105      		cpc r25,__zero_reg__
 416 017c 01F4      		brne .L22
 417 017e C4E0      		ldi r28,lo8(4)
 418 0180 D0E0      		ldi r29,hi8(4)
 419               	.LVL23:
 420 0182 00C0      		rjmp .L21
 421               	.LVL24:
 422               	.L22:
 423               	.LM50:
 424 0184 C501      		movw r24,r10
 425 0186 B401      		movw r22,r8
 426 0188 28EE      		ldi r18,lo8(1000)
 427 018a 33E0      		ldi r19,hi8(1000)
 428 018c 40E0      		ldi r20,hlo8(1000)
 429 018e 50E0      		ldi r21,hhi8(1000)
 430 0190 0E94 0000 		call __udivmodsi4
 431 0194 6115      		cp r22,__zero_reg__
 432 0196 7105      		cpc r23,__zero_reg__
 433 0198 8105      		cpc r24,__zero_reg__
 434 019a 9105      		cpc r25,__zero_reg__
 435 019c 01F4      		brne .L23
 436 019e C3E0      		ldi r28,lo8(3)
 437 01a0 D0E0      		ldi r29,hi8(3)
 438               	.LVL25:
 439 01a2 00C0      		rjmp .L21
 440               	.LVL26:
 441               	.L23:
 442               	.LM51:
 443 01a4 C501      		movw r24,r10
 444 01a6 B401      		movw r22,r8
 445 01a8 24E6      		ldi r18,lo8(100)
 446 01aa 30E0      		ldi r19,hi8(100)
 447 01ac 40E0      		ldi r20,hlo8(100)
 448 01ae 50E0      		ldi r21,hhi8(100)
 449 01b0 0E94 0000 		call __udivmodsi4
 450 01b4 6115      		cp r22,__zero_reg__
 451 01b6 7105      		cpc r23,__zero_reg__
 452 01b8 8105      		cpc r24,__zero_reg__
 453 01ba 9105      		cpc r25,__zero_reg__
 454 01bc 01F4      		brne .L24
 455 01be C2E0      		ldi r28,lo8(2)
 456 01c0 D0E0      		ldi r29,hi8(2)
 457               	.LVL27:
 458 01c2 00C0      		rjmp .L21
 459               	.LVL28:
 460               	.L24:
 461 01c4 C0E0      		ldi r28,lo8(0)
 462 01c6 D0E0      		ldi r29,hi8(0)
 463               	.LVL29:
 464 01c8 C501      		movw r24,r10
 465 01ca B401      		movw r22,r8
 466 01cc 2AE0      		ldi r18,lo8(10)
 467 01ce 30E0      		ldi r19,hi8(10)
 468 01d0 40E0      		ldi r20,hlo8(10)
 469 01d2 50E0      		ldi r21,hhi8(10)
 470 01d4 0E94 0000 		call __udivmodsi4
 471 01d8 6115      		cp r22,__zero_reg__
 472 01da 7105      		cpc r23,__zero_reg__
 473 01dc 8105      		cpc r24,__zero_reg__
 474 01de 9105      		cpc r25,__zero_reg__
 475 01e0 01F4      		brne .L21
 476 01e2 C1E0      		ldi r28,lo8(1)
 477 01e4 D0E0      		ldi r29,hi8(1)
 478               	.L21:
 479 01e6 CC24      		clr r12
 480 01e8 DD24      		clr r13
 481 01ea 7601      		movw r14,r12
 482               	.LVL30:
 483 01ec 00C0      		rjmp .L26
 484               	.LVL31:
 485               	.L27:
 486               	.LM52:
 487 01ee C501      		movw r24,r10
 488 01f0 B401      		movw r22,r8
 489 01f2 2AE0      		ldi r18,lo8(10)
 490 01f4 30E0      		ldi r19,hi8(10)
 491 01f6 40E0      		ldi r20,hlo8(10)
 492 01f8 50E0      		ldi r21,hhi8(10)
 493 01fa 0E94 0000 		call __udivmodsi4
 494 01fe 162F      		mov r17,r22
 495               	.LM53:
 496 0200 C501      		movw r24,r10
 497 0202 B401      		movw r22,r8
 498 0204 2AE0      		ldi r18,lo8(10)
 499 0206 30E0      		ldi r19,hi8(10)
 500 0208 40E0      		ldi r20,hlo8(10)
 501 020a 50E0      		ldi r21,hhi8(10)
 502 020c 0E94 0000 		call __udivmodsi4
 503 0210 C901      		movw r24,r18
 504 0212 DA01      		movw r26,r20
 505 0214 4C01      		movw r8,r24
 506 0216 5D01      		movw r10,r26
 507               	.LM54:
 508 0218 C701      		movw r24,r14
 509 021a B601      		movw r22,r12
 510 021c 2AE0      		ldi r18,lo8(10)
 511 021e 30E0      		ldi r19,hi8(10)
 512 0220 40E0      		ldi r20,hlo8(10)
 513 0222 50E0      		ldi r21,hhi8(10)
 514 0224 0E94 0000 		call __mulsi3
 515 0228 6B01      		movw r12,r22
 516 022a 7C01      		movw r14,r24
 517 022c C10E      		add r12,r17
 518 022e D11C      		adc r13,__zero_reg__
 519 0230 E11C      		adc r14,__zero_reg__
 520 0232 F11C      		adc r15,__zero_reg__
 521               	.L26:
 522               	.LM55:
 523 0234 8114      		cp r8,__zero_reg__
 524 0236 9104      		cpc r9,__zero_reg__
 525 0238 A104      		cpc r10,__zero_reg__
 526 023a B104      		cpc r11,__zero_reg__
 527 023c 01F4      		brne .L27
 528 023e 00C0      		rjmp .L33
 529               	.L29:
 530               	.LM56:
 531 0240 C701      		movw r24,r14
 532 0242 B601      		movw r22,r12
 533 0244 2AE0      		ldi r18,lo8(10)
 534 0246 30E0      		ldi r19,hi8(10)
 535 0248 40E0      		ldi r20,hlo8(10)
 536 024a 50E0      		ldi r21,hhi8(10)
 537 024c 0E94 0000 		call __udivmodsi4
 538 0250 162F      		mov r17,r22
 539               	.LM57:
 540 0252 C701      		movw r24,r14
 541 0254 B601      		movw r22,r12
 542 0256 2AE0      		ldi r18,lo8(10)
 543 0258 30E0      		ldi r19,hi8(10)
 544 025a 40E0      		ldi r20,hlo8(10)
 545 025c 50E0      		ldi r21,hhi8(10)
 546 025e 0E94 0000 		call __udivmodsi4
 547 0262 C901      		movw r24,r18
 548 0264 DA01      		movw r26,r20
 549 0266 6C01      		movw r12,r24
 550 0268 7D01      		movw r14,r26
 551               	.LM58:
 552 026a 812F      		mov r24,r17
 553 026c 805D      		subi r24,lo8(-(48))
 554 026e 0E94 0000 		call lcd_char
 555               	.LVL32:
 556               	.L33:
 557               	.LM59:
 558 0272 C114      		cp r12,__zero_reg__
 559 0274 D104      		cpc r13,__zero_reg__
 560 0276 E104      		cpc r14,__zero_reg__
 561 0278 F104      		cpc r15,__zero_reg__
 562 027a 01F4      		brne .L29
 563 027c 00C0      		rjmp .L34
 564               	.L31:
 565               	.LM60:
 566 027e 80E3      		ldi r24,lo8(48)
 567 0280 0E94 0000 		call lcd_char
 568               	.LM61:
 569 0284 2197      		sbiw r28,1
 570               	.LVL33:
 571               	.L34:
 572               	.LM62:
 573 0286 2097      		sbiw r28,0
 574 0288 01F4      		brne .L31
 575               	/* epilogue start */
 576               	.LM63:
 577 028a DF91      		pop r29
 578 028c CF91      		pop r28
 579               	.LVL34:
 580 028e 1F91      		pop r17
 581 0290 FF90      		pop r15
 582 0292 EF90      		pop r14
 583 0294 DF90      		pop r13
 584 0296 CF90      		pop r12
 585               	.LVL35:
 586 0298 BF90      		pop r11
 587 029a AF90      		pop r10
 588 029c 9F90      		pop r9
 589 029e 8F90      		pop r8
 590               	.LVL36:
 591 02a0 0895      		ret
 592               	.LFE14:
 594               	.global	lcd_cmd
 596               	lcd_cmd:
 597               	.LFB11:
 598               	.LM64:
 599               	.LVL37:
 600               	/* prologue: function */
 601               	/* frame size = 0 */
 602               	.LM65:
 603 02a2 A598      		cbi 52-32,5
 604               	.LM66:
 605 02a4 7098      		cbi 46-32,0
 606               	.LM67:
 607 02a6 482F      		mov r20,r24
 608 02a8 50E0      		ldi r21,lo8(0)
 609               	.LM68:
 610 02aa 9A01      		movw r18,r20
 611 02ac 207C      		andi r18,lo8(192)
 612 02ae 3070      		andi r19,hi8(192)
 613 02b0 2EB9      		out 46-32,r18
 614               	.LM69:
 615 02b2 9EB1      		in r25,46-32
 616 02b4 8695      		lsr r24
 617 02b6 8695      		lsr r24
 618 02b8 8695      		lsr r24
 619               	.LVL38:
 620 02ba 8670      		andi r24,lo8(6)
 621 02bc 982B      		or r25,r24
 622 02be 9EB9      		out 46-32,r25
 623               	.LBB158:
 624               	.LBB159:
 625               	.LBB160:
 626               	.LBB161:
 627               	.LM70:
 628 02c0 68E1      		ldi r22,lo8(24)
 629 02c2 862F      		mov r24,r22
 630               	.LVL39:
 631               	/* #APP */
 632               	 ;  83 "c:/winavr-20100110/lib/gcc/../../avr/include/util/delay_basic.h" 1
 633 02c4 8A95      		1: dec r24
 634 02c6 01F4      		brne 1b
 635               	 ;  0 "" 2
 636               	/* #NOAPP */
 637               	.LBE161:
 638               	.LBE160:
 639               	.LBE159:
 640               	.LBE158:
 641               	.LBB162:
 642               	.LBB163:
 643               	.LM71:
 644 02c8 709A      		sbi 46-32,0
 645               	.LBB164:
 646               	.LBB165:
 647               	.LBB166:
 648               	.LBB167:
 649               	.LBB168:
 650               	.LBB169:
 651               	.LM72:
 652 02ca 23E3      		ldi r18,lo8(1843)
 653 02cc 37E0      		ldi r19,hi8(1843)
 654 02ce C901      		movw r24,r18
 655               	.LVL40:
 656               	/* #APP */
 657               	 ;  105 "c:/winavr-20100110/lib/gcc/../../avr/include/util/delay_basic.h" 1
 658 02d0 0197      		1: sbiw r24,1
 659 02d2 01F4      		brne 1b
 660               	 ;  0 "" 2
 661               	/* #NOAPP */
 662               	.LBE169:
 663               	.LBE168:
 664               	.LBE167:
 665               	.LBE166:
 666               	.LBE165:
 667               	.LBE164:
 668               	.LM73:
 669 02d4 7098      		cbi 46-32,0
 670               	.LBE163:
 671               	.LBE162:
 672               	.LM74:
 673 02d6 A59A      		sbi 52-32,5
 674               	.LM75:
 675 02d8 A598      		cbi 52-32,5
 676               	.LM76:
 677 02da 7098      		cbi 46-32,0
 678               	.LM77:
 679 02dc CA01      		movw r24,r20
 680               	.LVL41:
 681 02de F4E0      		ldi r31,4
 682 02e0 880F      	1:	lsl r24
 683 02e2 991F      		rol r25
 684 02e4 FA95      		dec r31
 685 02e6 01F4      		brne 1b
 686 02e8 807C      		andi r24,lo8(192)
 687 02ea 9070      		andi r25,hi8(192)
 688 02ec 8EB9      		out 46-32,r24
 689               	.LM78:
 690 02ee 8EB1      		in r24,46-32
 691 02f0 440F      		lsl r20
 692 02f2 551F      		rol r21
 693 02f4 4670      		andi r20,lo8(6)
 694 02f6 5070      		andi r21,hi8(6)
 695 02f8 842B      		or r24,r20
 696 02fa 8EB9      		out 46-32,r24
 697               	.LBB170:
 698               	.LBB171:
 699               	.LBB172:
 700               	.LBB173:
 701               	.LM79:
 702               	/* #APP */
 703               	 ;  83 "c:/winavr-20100110/lib/gcc/../../avr/include/util/delay_basic.h" 1
 704 02fc 6A95      		1: dec r22
 705 02fe 01F4      		brne 1b
 706               	 ;  0 "" 2
 707               	.LVL42:
 708               	/* #NOAPP */
 709               	.LBE173:
 710               	.LBE172:
 711               	.LBE171:
 712               	.LBE170:
 713               	.LBB174:
 714               	.LBB175:
 715               	.LM80:
 716 0300 709A      		sbi 46-32,0
 717               	.LBB176:
 718               	.LBB177:
 719               	.LBB178:
 720               	.LBB179:
 721               	.LBB180:
 722               	.LBB181:
 723               	.LM81:
 724 0302 C901      		movw r24,r18
 725               	.LVL43:
 726               	/* #APP */
 727               	 ;  105 "c:/winavr-20100110/lib/gcc/../../avr/include/util/delay_basic.h" 1
 728 0304 0197      		1: sbiw r24,1
 729 0306 01F4      		brne 1b
 730               	 ;  0 "" 2
 731               	/* #NOAPP */
 732               	.LBE181:
 733               	.LBE180:
 734               	.LBE179:
 735               	.LBE178:
 736               	.LBE177:
 737               	.LBE176:
 738               	.LM82:
 739 0308 7098      		cbi 46-32,0
 740               	.LBE175:
 741               	.LBE174:
 742               	.LM83:
 743 030a 1EB8      		out 46-32,__zero_reg__
 744               	.LM84:
 745 030c 8AE0      		ldi r24,lo8(10)
 746 030e 90E0      		ldi r25,hi8(10)
 747               	.LVL44:
 748 0310 0E94 0000 		call WaitMs
 749               	.LVL45:
 750               	/* epilogue start */
 751               	.LM85:
 752 0314 0895      		ret
 753               	.LFE11:
 755               	.global	lcd_gotoxy2
 757               	lcd_gotoxy2:
 758               	.LFB17:
 759               	.LM86:
 760               	.LVL46:
 761               	/* prologue: function */
 762               	/* frame size = 0 */
 763               	.LM87:
 764 0316 8054      		subi r24,lo8(-(-64))
 765               	.LVL47:
 766 0318 0E94 0000 		call lcd_cmd
 767               	/* epilogue start */
 768               	.LM88:
 769 031c 0895      		ret
 770               	.LFE17:
 772               	.global	lcd_gotoxy1
 774               	lcd_gotoxy1:
 775               	.LFB16:
 776               	.LM89:
 777               	.LVL48:
 778               	/* prologue: function */
 779               	/* frame size = 0 */
 780               	.LM90:
 781 031e 8058      		subi r24,lo8(-(-128))
 782               	.LVL49:
 783 0320 0E94 0000 		call lcd_cmd
 784               	/* epilogue start */
 785               	.LM91:
 786 0324 0895      		ret
 787               	.LFE16:
 789               	.global	lcd_string
 791               	lcd_string:
 792               	.LFB13:
 793               	.LM92:
 794               	.LVL50:
 795 0326 CF92      		push r12
 796 0328 DF92      		push r13
 797 032a EF92      		push r14
 798 032c FF92      		push r15
 799 032e 1F93      		push r17
 800 0330 CF93      		push r28
 801 0332 DF93      		push r29
 802               	/* prologue: function */
 803               	/* frame size = 0 */
 804 0334 7C01      		movw r14,r24
 805               	.LM93:
 806 0336 81E0      		ldi r24,lo8(1)
 807               	.LVL51:
 808 0338 82B9      		out 34-32,r24
 809               	.LM94:
 810 033a A59A      		sbi 52-32,5
 811               	.LM95:
 812 033c 7098      		cbi 46-32,0
 813 033e 10E0      		ldi r17,lo8(0)
 814               	.LVL52:
 815               	.LBB182:
 816               	.LBB183:
 817               	.LBB184:
 818               	.LBB185:
 819               	.LBB186:
 820               	.LBB187:
 821               	.LBB188:
 822               	.LBB189:
 823               	.LM96:
 824 0340 63E3      		ldi r22,lo8(1843)
 825 0342 C62E      		mov r12,r22
 826 0344 67E0      		ldi r22,hi8(1843)
 827 0346 D62E      		mov r13,r22
 828 0348 00C0      		rjmp .L42
 829               	.L44:
 830               	.LBE189:
 831               	.LBE188:
 832               	.LBE187:
 833               	.LBE186:
 834               	.LBE185:
 835               	.LBE184:
 836               	.LBE183:
 837               	.LBE182:
 838               	.LM97:
 839 034a 1031      		cpi r17,lo8(16)
 840 034c 01F4      		brne .L43
 841               	.LM98:
 842 034e 80EC      		ldi r24,lo8(-64)
 843 0350 0E94 0000 		call lcd_cmd
 844               	.L43:
 845               	.LM99:
 846 0354 A59A      		sbi 52-32,5
 847               	.LM100:
 848 0356 7098      		cbi 46-32,0
 849               	.LM101:
 850 0358 2881      		ld r18,Y
 851 035a 30E0      		ldi r19,lo8(0)
 852               	.LVL53:
 853               	.LM102:
 854 035c C901      		movw r24,r18
 855               	.LVL54:
 856 035e 807C      		andi r24,lo8(192)
 857 0360 9070      		andi r25,hi8(192)
 858 0362 8EB9      		out 46-32,r24
 859               	.LM103:
 860 0364 4EB1      		in r20,46-32
 861 0366 C901      		movw r24,r18
 862 0368 53E0      		ldi r21,3
 863 036a 9595      	1:	asr r25
 864 036c 8795      		ror r24
 865 036e 5A95      		dec r21
 866 0370 01F4      		brne 1b
 867 0372 8670      		andi r24,lo8(6)
 868 0374 9070      		andi r25,hi8(6)
 869 0376 482B      		or r20,r24
 870 0378 4EB9      		out 46-32,r20
 871               	.LBB197:
 872               	.LBB196:
 873               	.LM104:
 874 037a 709A      		sbi 46-32,0
 875               	.LBB195:
 876               	.LBB194:
 877               	.LBB193:
 878               	.LBB192:
 879               	.LBB191:
 880               	.LBB190:
 881               	.LM105:
 882 037c C601      		movw r24,r12
 883               	.LVL55:
 884               	/* #APP */
 885               	 ;  105 "c:/winavr-20100110/lib/gcc/../../avr/include/util/delay_basic.h" 1
 886 037e 0197      		1: sbiw r24,1
 887 0380 01F4      		brne 1b
 888               	 ;  0 "" 2
 889               	/* #NOAPP */
 890               	.LBE190:
 891               	.LBE191:
 892               	.LBE192:
 893               	.LBE193:
 894               	.LBE194:
 895               	.LBE195:
 896               	.LM106:
 897 0382 7098      		cbi 46-32,0
 898               	.LBE196:
 899               	.LBE197:
 900               	.LM107:
 901 0384 A598      		cbi 52-32,5
 902               	.LM108:
 903 0386 A59A      		sbi 52-32,5
 904               	.LM109:
 905 0388 7098      		cbi 46-32,0
 906               	.LM110:
 907 038a C901      		movw r24,r18
 908               	.LVL56:
 909 038c B4E0      		ldi r27,4
 910 038e 880F      	1:	lsl r24
 911 0390 991F      		rol r25
 912 0392 BA95      		dec r27
 913 0394 01F4      		brne 1b
 914 0396 807C      		andi r24,lo8(192)
 915 0398 9070      		andi r25,hi8(192)
 916 039a 8EB9      		out 46-32,r24
 917               	.LM111:
 918 039c 8EB1      		in r24,46-32
 919 039e 220F      		lsl r18
 920 03a0 331F      		rol r19
 921 03a2 2670      		andi r18,lo8(6)
 922 03a4 3070      		andi r19,hi8(6)
 923 03a6 822B      		or r24,r18
 924 03a8 8EB9      		out 46-32,r24
 925               	.LBB198:
 926               	.LBB199:
 927               	.LM112:
 928 03aa 709A      		sbi 46-32,0
 929               	.LBB200:
 930               	.LBB201:
 931               	.LBB202:
 932               	.LBB203:
 933               	.LBB204:
 934               	.LBB205:
 935               	.LM113:
 936 03ac C601      		movw r24,r12
 937               	.LVL57:
 938               	/* #APP */
 939               	 ;  105 "c:/winavr-20100110/lib/gcc/../../avr/include/util/delay_basic.h" 1
 940 03ae 0197      		1: sbiw r24,1
 941 03b0 01F4      		brne 1b
 942               	 ;  0 "" 2
 943               	/* #NOAPP */
 944               	.LBE205:
 945               	.LBE204:
 946               	.LBE203:
 947               	.LBE202:
 948               	.LBE201:
 949               	.LBE200:
 950               	.LM114:
 951 03b2 7098      		cbi 46-32,0
 952               	.LBE199:
 953               	.LBE198:
 954               	.LM115:
 955 03b4 1F5F      		subi r17,lo8(-(1))
 956               	.LM116:
 957 03b6 81E0      		ldi r24,lo8(1)
 958 03b8 90E0      		ldi r25,hi8(1)
 959               	.LVL58:
 960 03ba 0E94 0000 		call WaitMs
 961               	.LVL59:
 962               	.L42:
 963               	.LM117:
 964 03be E701      		movw r28,r14
 965 03c0 C10F      		add r28,r17
 966 03c2 D11D      		adc r29,__zero_reg__
 967 03c4 8881      		ld r24,Y
 968 03c6 8823      		tst r24
 969 03c8 01F0      		breq .+2
 970 03ca 00C0      		rjmp .L44
 971               	/* epilogue start */
 972               	.LM118:
 973 03cc DF91      		pop r29
 974 03ce CF91      		pop r28
 975 03d0 1F91      		pop r17
 976               	.LVL60:
 977 03d2 FF90      		pop r15
 978 03d4 EF90      		pop r14
 979               	.LVL61:
 980 03d6 DF90      		pop r13
 981 03d8 CF90      		pop r12
 982 03da 0895      		ret
 983               	.LFE13:
 985               	.global	lcd_init
 987               	lcd_init:
 988               	.LFB8:
 989               	.LM119:
 990               	/* prologue: function */
 991               	/* frame size = 0 */
 992               	.LM120:
 993 03dc 8FEF      		ldi r24,lo8(-1)
 994 03de 8DB9      		out 45-32,r24
 995               	.LM121:
 996 03e0 83BB      		out 51-32,r24
 997               	.LM122:
 998 03e2 8FE0      		ldi r24,lo8(15)
 999 03e4 90E0      		ldi r25,hi8(15)
 1000 03e6 0E94 0000 		call WaitMs
 1001               	.LM123:
 1002 03ea A598      		cbi 52-32,5
 1003               	.LM124:
 1004 03ec 7098      		cbi 46-32,0
 1005               	.LM125:
 1006 03ee 1EB8      		out 46-32,__zero_reg__
 1007               	.LM126:
 1008 03f0 80E2      		ldi r24,lo8(32)
 1009 03f2 0E94 0000 		call lcd_cmd
 1010               	.LM127:
 1011 03f6 81E0      		ldi r24,lo8(1)
 1012 03f8 90E0      		ldi r25,hi8(1)
 1013 03fa 0E94 0000 		call WaitMs
 1014               	.LM128:
 1015 03fe 80E2      		ldi r24,lo8(32)
 1016 0400 0E94 0000 		call lcd_cmd
 1017               	.LM129:
 1018 0404 81E0      		ldi r24,lo8(1)
 1019 0406 90E0      		ldi r25,hi8(1)
 1020 0408 0E94 0000 		call WaitMs
 1021               	.LM130:
 1022 040c 80E2      		ldi r24,lo8(32)
 1023 040e 0E94 0000 		call lcd_cmd
 1024               	.LM131:
 1025 0412 81E0      		ldi r24,lo8(1)
 1026 0414 90E0      		ldi r25,hi8(1)
 1027 0416 0E94 0000 		call WaitMs
 1028               	.LM132:
 1029 041a 88E2      		ldi r24,lo8(40)
 1030 041c 0E94 0000 		call lcd_cmd
 1031               	.LM133:
 1032 0420 81E0      		ldi r24,lo8(1)
 1033 0422 90E0      		ldi r25,hi8(1)
 1034 0424 0E94 0000 		call WaitMs
 1035               	.LM134:
 1036 0428 8EE0      		ldi r24,lo8(14)
 1037 042a 0E94 0000 		call lcd_cmd
 1038               	.LM135:
 1039 042e 81E0      		ldi r24,lo8(1)
 1040 0430 90E0      		ldi r25,hi8(1)
 1041 0432 0E94 0000 		call WaitMs
 1042               	.LM136:
 1043 0436 81E0      		ldi r24,lo8(1)
 1044 0438 0E94 0000 		call lcd_cmd
 1045               	.LM137:
 1046 043c 81E0      		ldi r24,lo8(1)
 1047 043e 90E0      		ldi r25,hi8(1)
 1048 0440 0E94 0000 		call WaitMs
 1049               	.LM138:
 1050 0444 86E0      		ldi r24,lo8(6)
 1051 0446 0E94 0000 		call lcd_cmd
 1052               	.LM139:
 1053 044a 81E0      		ldi r24,lo8(1)
 1054 044c 90E0      		ldi r25,hi8(1)
 1055 044e 0E94 0000 		call WaitMs
 1056               	/* epilogue start */
 1057               	.LM140:
 1058 0452 0895      		ret
 1059               	.LFE8:
 1061               	.global	port_init
 1063               	port_init:
 1064               	.LFB21:
 1065               	.LM141:
 1066               	/* prologue: function */
 1067               	/* frame size = 0 */
 1068               	.LM142:
 1069 0454 E1E0      		ldi r30,lo8(257)
 1070 0456 F1E0      		ldi r31,hi8(257)
 1071 0458 8081      		ld r24,Z
 1072 045a 8063      		ori r24,lo8(48)
 1073 045c 8083      		st Z,r24
 1074               	.LM143:
 1075 045e EAE0      		ldi r30,lo8(266)
 1076 0460 F1E0      		ldi r31,hi8(266)
 1077 0462 8081      		ld r24,Z
 1078 0464 8360      		ori r24,lo8(3)
 1079 0466 8083      		st Z,r24
 1080               	/* epilogue start */
 1081               	.LM144:
 1082 0468 0895      		ret
 1083               	.LFE21:
 1085               	.global	timer_init
 1087               	timer_init:
 1088               	.LFB22:
 1089               	.LM145:
 1090               	/* prologue: function */
 1091               	/* frame size = 0 */
 1092               	.LM146:
 1093 046a 87E0      		ldi r24,lo8(7)
 1094 046c 8093 8100 		sts 129,r24
 1095               	.LM147:
 1096 0470 5698      		cbi 42-32,6
 1097               	.LM148:
 1098 0472 5E9A      		sbi 43-32,6
 1099               	/* epilogue start */
 1100               	.LM149:
 1101 0474 0895      		ret
 1102               	.LFE22:
 1104               		.data
 1105               	.LC0:
 1106 0000 6865 6C00 		.string	"hel"
 1107               	.LC1:
 1108 0004 2020 2020 		.string	"    "
 1108      00
 1109               		.text
 1110               	.global	main
 1112               	main:
 1113               	.LFB23:
 1114               	.LM150:
 1115               	/* prologue: function */
 1116               	/* frame size = 0 */
 1117               	.LM151:
 1118 0476 87B1      		in r24,39-32
 1119 0478 8164      		ori r24,lo8(65)
 1120 047a 87B9      		out 39-32,r24
 1121               	.LM152:
 1122 047c 88B1      		in r24,40-32
 1123 047e 8164      		ori r24,lo8(65)
 1124 0480 88B9      		out 40-32,r24
 1125               	.LM153:
 1126 0482 80E0      		ldi r24,lo8(.LC0)
 1127 0484 90E0      		ldi r25,hi8(.LC0)
 1128 0486 0E94 0000 		call lcd_string
 1129               	.LM154:
 1130 048a 0E94 0000 		call lcd_init
 1131               	.LBB206:
 1132               	.LBB207:
 1133               	.LM155:
 1134 048e 8091 0101 		lds r24,257
 1135 0492 8063      		ori r24,lo8(48)
 1136 0494 8093 0101 		sts 257,r24
 1137               	.LM156:
 1138 0498 8091 0A01 		lds r24,266
 1139 049c 8360      		ori r24,lo8(3)
 1140 049e 8093 0A01 		sts 266,r24
 1141               	.LBE207:
 1142               	.LBE206:
 1143               	.LBB208:
 1144               	.LBB209:
 1145               	.LM157:
 1146 04a2 87E0      		ldi r24,lo8(7)
 1147 04a4 8093 8100 		sts 129,r24
 1148               	.LM158:
 1149 04a8 5698      		cbi 42-32,6
 1150               	.LM159:
 1151 04aa 5E9A      		sbi 43-32,6
 1152               	.L53:
 1153               	.LBE209:
 1154               	.LBE208:
 1155               	.LM160:
 1156 04ac 80E0      		ldi r24,lo8(0)
 1157 04ae 0E94 0000 		call lcd_gotoxy1
 1158               	.LM161:
 1159 04b2 6091 8400 		lds r22,132
 1160 04b6 7091 8500 		lds r23,(132)+1
 1161 04ba 80E0      		ldi r24,lo8(0)
 1162 04bc 90E0      		ldi r25,hi8(0)
 1163 04be 0E94 0000 		call lcd_showvalue
 1164               	.LM162:
 1165 04c2 80E0      		ldi r24,lo8(.LC1)
 1166 04c4 90E0      		ldi r25,hi8(.LC1)
 1167 04c6 0E94 0000 		call lcd_string
 1168 04ca 00C0      		rjmp .L53
 1169               	.LFE23:
 1171               	.global	lcd_showvaluef
 1173               	lcd_showvaluef:
 1174               	.LFB15:
 1175               	.LM163:
 1176               	.LVL62:
 1177 04cc EF92      		push r14
 1178 04ce FF92      		push r15
 1179 04d0 0F93      		push r16
 1180 04d2 1F93      		push r17
 1181 04d4 DF93      		push r29
 1182 04d6 CF93      		push r28
 1183 04d8 00D0      		rcall .
 1184 04da 00D0      		rcall .
 1185 04dc CDB7      		in r28,__SP_L__
 1186 04de DEB7      		in r29,__SP_H__
 1187               	/* prologue: function */
 1188               	/* frame size = 4 */
 1189 04e0 7B01      		movw r14,r22
 1190 04e2 8C01      		movw r16,r24
 1191               	.LM164:
 1192 04e4 0E94 0000 		call __fixunssfsi
 1193               	.LVL63:
 1194 04e8 0E94 0000 		call lcd_showvalue
 1195               	.LM165:
 1196 04ec C801      		movw r24,r16
 1197 04ee B701      		movw r22,r14
 1198 04f0 AE01      		movw r20,r28
 1199 04f2 4F5F      		subi r20,lo8(-(1))
 1200 04f4 5F4F      		sbci r21,hi8(-(1))
 1201 04f6 0E94 0000 		call modf
 1202 04fa 7B01      		movw r14,r22
 1203 04fc 8C01      		movw r16,r24
 1204               	.LVL64:
 1205               	.LM166:
 1206 04fe 8EE2      		ldi r24,lo8(46)
 1207 0500 0E94 0000 		call lcd_char
 1208               	.LM167:
 1209 0504 C801      		movw r24,r16
 1210 0506 B701      		movw r22,r14
 1211 0508 20E0      		ldi r18,lo8(0x47c35000)
 1212 050a 30E5      		ldi r19,hi8(0x47c35000)
 1213 050c 43EC      		ldi r20,hlo8(0x47c35000)
 1214 050e 57E4      		ldi r21,hhi8(0x47c35000)
 1215 0510 0E94 0000 		call __mulsf3
 1216 0514 0E94 0000 		call __fixunssfsi
 1217 0518 0E94 0000 		call lcd_showvalue
 1218               	/* epilogue start */
 1219               	.LM168:
 1220 051c 0F90      		pop __tmp_reg__
 1221 051e 0F90      		pop __tmp_reg__
 1222 0520 0F90      		pop __tmp_reg__
 1223 0522 0F90      		pop __tmp_reg__
 1224 0524 CF91      		pop r28
 1225 0526 DF91      		pop r29
 1226 0528 1F91      		pop r17
 1227 052a 0F91      		pop r16
 1228 052c FF90      		pop r15
 1229 052e EF90      		pop r14
 1230               	.LVL65:
 1231 0530 0895      		ret
 1232               	.LFE15:
 1234               	.global	k
 1235               	.global	k
 1236               		.section .bss
 1239               	k:
 1240 0000 00        		.skip 1,0
 1241               	.global	j
 1242               	.global	j
 1245               	j:
 1246 0001 00        		.skip 1,0
 1247               	.global	save
 1248               	.global	save
 1251               	save:
 1252 0002 00        		.skip 1,0
 1253               	.global	ch
 1254               		.data
 1257               	ch:
 1258 0009 30        		.byte	48
 1259 000a 31        		.byte	49
 1260 000b 32        		.byte	50
 1261 000c 33        		.byte	51
 1262 000d 34        		.byte	52
 1263 000e 35        		.byte	53
 1264 000f 36        		.byte	54
 1265 0010 37        		.byte	55
 1266 0011 38        		.byte	56
 1267 0012 39        		.byte	57
 1268               	.global	tenthousand
 1269               	.global	tenthousand
 1270               		.section .bss
 1273               	tenthousand:
 1274 0003 00        		.skip 1,0
 1275               	.global	thousand
 1276               	.global	thousand
 1279               	thousand:
 1280 0004 00        		.skip 1,0
 1281               	.global	hundred
 1282               	.global	hundred
 1285               	hundred:
 1286 0005 00        		.skip 1,0
 1287               	.global	ten
 1288               	.global	ten
 1291               	ten:
 1292 0006 00        		.skip 1,0
 1293               	.global	one
 1294               	.global	one
 1297               	one:
 1298 0007 00        		.skip 1,0
 1443               	.Letext0:
DEFINED SYMBOLS
                            *ABS*:00000000 main.c
C:\Users\YATEEN~1\AppData\Local\Temp/cctxAsMV.s:2      *ABS*:0000003f __SREG__
C:\Users\YATEEN~1\AppData\Local\Temp/cctxAsMV.s:3      *ABS*:0000003e __SP_H__
C:\Users\YATEEN~1\AppData\Local\Temp/cctxAsMV.s:4      *ABS*:0000003d __SP_L__
C:\Users\YATEEN~1\AppData\Local\Temp/cctxAsMV.s:5      *ABS*:00000034 __CCP__
C:\Users\YATEEN~1\AppData\Local\Temp/cctxAsMV.s:6      *ABS*:00000000 __tmp_reg__
C:\Users\YATEEN~1\AppData\Local\Temp/cctxAsMV.s:7      *ABS*:00000001 __zero_reg__
C:\Users\YATEEN~1\AppData\Local\Temp/cctxAsMV.s:18     .text:00000000 toggleE
C:\Users\YATEEN~1\AppData\Local\Temp/cctxAsMV.s:56     .text:0000000e dely_ns
C:\Users\YATEEN~1\AppData\Local\Temp/cctxAsMV.s:1239   .bss:00000000 k
C:\Users\YATEEN~1\AppData\Local\Temp/cctxAsMV.s:1245   .bss:00000001 j
C:\Users\YATEEN~1\AppData\Local\Temp/cctxAsMV.s:82     .text:00000028 lcd_exit
C:\Users\YATEEN~1\AppData\Local\Temp/cctxAsMV.s:1251   .bss:00000002 save
C:\Users\YATEEN~1\AppData\Local\Temp/cctxAsMV.s:97     .text:00000030 WaitMs
C:\Users\YATEEN~1\AppData\Local\Temp/cctxAsMV.s:136    .text:0000004c lcd_char
C:\Users\YATEEN~1\AppData\Local\Temp/cctxAsMV.s:297    .text:000000c4 lcd_showvalueh
C:\Users\YATEEN~1\AppData\Local\Temp/cctxAsMV.s:367    .text:0000012e lcd_showvalue
C:\Users\YATEEN~1\AppData\Local\Temp/cctxAsMV.s:596    .text:000002a2 lcd_cmd
C:\Users\YATEEN~1\AppData\Local\Temp/cctxAsMV.s:757    .text:00000316 lcd_gotoxy2
C:\Users\YATEEN~1\AppData\Local\Temp/cctxAsMV.s:774    .text:0000031e lcd_gotoxy1
C:\Users\YATEEN~1\AppData\Local\Temp/cctxAsMV.s:791    .text:00000326 lcd_string
C:\Users\YATEEN~1\AppData\Local\Temp/cctxAsMV.s:987    .text:000003dc lcd_init
C:\Users\YATEEN~1\AppData\Local\Temp/cctxAsMV.s:1063   .text:00000454 port_init
C:\Users\YATEEN~1\AppData\Local\Temp/cctxAsMV.s:1087   .text:0000046a timer_init
C:\Users\YATEEN~1\AppData\Local\Temp/cctxAsMV.s:1112   .text:00000476 main
C:\Users\YATEEN~1\AppData\Local\Temp/cctxAsMV.s:1173   .text:000004cc lcd_showvaluef
C:\Users\YATEEN~1\AppData\Local\Temp/cctxAsMV.s:1257   .data:00000009 ch
C:\Users\YATEEN~1\AppData\Local\Temp/cctxAsMV.s:1273   .bss:00000003 tenthousand
C:\Users\YATEEN~1\AppData\Local\Temp/cctxAsMV.s:1279   .bss:00000004 thousand
C:\Users\YATEEN~1\AppData\Local\Temp/cctxAsMV.s:1285   .bss:00000005 hundred
C:\Users\YATEEN~1\AppData\Local\Temp/cctxAsMV.s:1291   .bss:00000006 ten
C:\Users\YATEEN~1\AppData\Local\Temp/cctxAsMV.s:1297   .bss:00000007 one

UNDEFINED SYMBOLS
__udivmodhi4
__udivmodsi4
__mulsi3
__fixunssfsi
modf
__mulsf3
__do_copy_data
__do_clear_bss
