   1               		.file	"main.c"
   2               	__SREG__ = 0x3f
   3               	__SP_H__ = 0x3e
   4               	__SP_L__ = 0x3d
   5               	__CCP__  = 0x34
   6               	__tmp_reg__ = 0
   7               	__zero_reg__ = 1
  15               	.Ltext0:
  16               	.global	compute_duty_cycle
  18               	compute_duty_cycle:
  19               	.LFB7:
  20               	.LM1:
  21               	.LVL0:
  22               	/* prologue: function */
  23               	/* frame size = 0 */
  24 0000 FC01      		movw r30,r24
  25               	.LM2:
  26 0002 6133      		cpi r22,lo8(49)
  27 0004 01F4      		brne .L2
  28               	.LVL1:
  29               	.LM3:
  30 0006 8091 8600 		lds r24,134
  31 000a 9091 8700 		lds r25,(134)+1
  32 000e 00C0      		rjmp .L8
  33               	.LVL2:
  34               	.L2:
  35               	.LM4:
  36 0010 6333      		cpi r22,lo8(51)
  37 0012 01F4      		brne .L4
  38               	.LM5:
  39 0014 8091 9600 		lds r24,150
  40 0018 9091 9700 		lds r25,(150)+1
  41 001c 00C0      		rjmp .L8
  42               	.LVL3:
  43               	.L4:
  44               	.LM6:
  45 001e 6433      		cpi r22,lo8(52)
  46 0020 01F4      		brne .L5
  47               	.LM7:
  48 0022 8091 A600 		lds r24,166
  49 0026 9091 A700 		lds r25,(166)+1
  50 002a 00C0      		rjmp .L8
  51               	.LVL4:
  52               	.L5:
  53               	.LM8:
  54 002c 6533      		cpi r22,lo8(53)
  55 002e 01F4      		brne .L6
  56               	.LM9:
  57 0030 8091 2601 		lds r24,294
  58 0034 9091 2701 		lds r25,(294)+1
  59               	.L8:
  60 0038 64E6      		ldi r22,lo8(100)
  61 003a 70E0      		ldi r23,hi8(100)
  62               	.LVL5:
  63 003c 0E94 0000 		call __udivmodhi4
  64 0040 E69F      		mul r30,r22
  65 0042 9001      		movw r18,r0
  66 0044 E79F      		mul r30,r23
  67 0046 300D      		add r19,r0
  68 0048 F69F      		mul r31,r22
  69 004a 300D      		add r19,r0
  70 004c 1124      		clr r1
  71               	.LM10:
  72 004e C901      		movw r24,r18
  73 0050 0895      		ret
  74               	.LVL6:
  75               	.L6:
  76 0052 0895      		ret
  77               	.LFE7:
  79               	.global	ExecuteSeeSaw
  81               	ExecuteSeeSaw:
  82               	.LFB23:
  83               	.LM11:
  84               	/* prologue: function */
  85               	/* frame size = 0 */
  86               	.LM12:
  87 0054 139A      		sbi 34-32,3
  88 0056 20E0      		ldi r18,lo8(0)
  89 0058 30E0      		ldi r19,hi8(0)
  90               	.LVL7:
  91               	.LBB41:
  92               	.LBB42:
  93               	.LBB43:
  94               	.LBB44:
  95               	.LBB45:
  96               	.LM13:
  97 005a 40E7      		ldi r20,lo8(368)
  98 005c 51E0      		ldi r21,hi8(368)
  99               	.LVL8:
 100               	.L12:
 101               	.LBE45:
 102               	.LBE44:
 103               	.LBE43:
 104               	.LBE42:
 105               	.LM14:
 106 005e 119A      		sbi 34-32,1
 107 0060 80E1      		ldi r24,lo8(10000)
 108 0062 97E2      		ldi r25,hi8(10000)
 109               	.LVL9:
 110               	.L10:
 111               	.LBB49:
 112               	.LBB48:
 113               	.LBB47:
 114               	.LBB46:
 115               	.LM15:
 116 0064 FA01      		movw r30,r20
 117               	.LVL10:
 118               	/* #APP */
 119               	 ;  105 "c:/winavr-20100110/lib/gcc/../../avr/include/util/delay_basic.h" 1
 120 0066 3197      		1: sbiw r30,1
 121 0068 01F4      		brne 1b
 122               	 ;  0 "" 2
 123               	/* #NOAPP */
 124               	.LBE46:
 125               	.LBE47:
 126               	.LM16:
 127 006a 0197      		sbiw r24,1
 128               	.LM17:
 129 006c 01F4      		brne .L10
 130               	.LBE48:
 131               	.LBE49:
 132               	.LM18:
 133 006e 1198      		cbi 34-32,1
 134 0070 80E1      		ldi r24,lo8(10000)
 135 0072 97E2      		ldi r25,hi8(10000)
 136               	.LVL11:
 137               	.L11:
 138               	.LBB50:
 139               	.LBB51:
 140               	.LBB52:
 141               	.LBB53:
 142               	.LM19:
 143 0074 FA01      		movw r30,r20
 144               	.LVL12:
 145               	/* #APP */
 146               	 ;  105 "c:/winavr-20100110/lib/gcc/../../avr/include/util/delay_basic.h" 1
 147 0076 3197      		1: sbiw r30,1
 148 0078 01F4      		brne 1b
 149               	 ;  0 "" 2
 150               	/* #NOAPP */
 151               	.LBE53:
 152               	.LBE52:
 153               	.LM20:
 154 007a 0197      		sbiw r24,1
 155               	.LM21:
 156 007c 01F4      		brne .L11
 157               	.LBE51:
 158               	.LBE50:
 159               	.LM22:
 160 007e 2F5F      		subi r18,lo8(-(1))
 161 0080 3F4F      		sbci r19,hi8(-(1))
 162 0082 2330      		cpi r18,3
 163 0084 3105      		cpc r19,__zero_reg__
 164 0086 01F4      		brne .L12
 165               	.LBE41:
 166               	.LM23:
 167 0088 1398      		cbi 34-32,3
 168               	.LM24:
 169 008a 1198      		cbi 34-32,1
 170               	/* epilogue start */
 171               	.LM25:
 172 008c 0895      		ret
 173               	.LFE23:
 175               	.global	ADCInit
 177               	ADCInit:
 178               	.LFB24:
 179               	.LM26:
 180               	/* prologue: function */
 181               	/* frame size = 0 */
 182               	.LM27:
 183 008e AAE7      		ldi r26,lo8(122)
 184 0090 B0E0      		ldi r27,hi8(122)
 185 0092 8C91      		ld r24,X
 186 0094 8068      		ori r24,lo8(-128)
 187 0096 8C93      		st X,r24
 188               	.LM28:
 189 0098 ECE7      		ldi r30,lo8(124)
 190 009a F0E0      		ldi r31,hi8(124)
 191 009c 8081      		ld r24,Z
 192 009e 8260      		ori r24,lo8(2)
 193 00a0 8083      		st Z,r24
 194               	.LM29:
 195 00a2 8C91      		ld r24,X
 196 00a4 8760      		ori r24,lo8(7)
 197 00a6 8C93      		st X,r24
 198               	.LM30:
 199 00a8 8081      		ld r24,Z
 200 00aa 8062      		ori r24,lo8(32)
 201 00ac 8083      		st Z,r24
 202               	.LM31:
 203 00ae 8C91      		ld r24,X
 204 00b0 8064      		ori r24,lo8(64)
 205 00b2 8C93      		st X,r24
 206               	/* epilogue start */
 207               	.LM32:
 208 00b4 0895      		ret
 209               	.LFE24:
 211               	.global	ADCConvert
 213               	ADCConvert:
 214               	.LFB25:
 215               	.LM33:
 216               	/* prologue: function */
 217               	/* frame size = 0 */
 218               	.LM34:
 219 00b6 EAE7      		ldi r30,lo8(122)
 220 00b8 F0E0      		ldi r31,hi8(122)
 221 00ba 8081      		ld r24,Z
 222 00bc 8064      		ori r24,lo8(64)
 223 00be 8083      		st Z,r24
 224               	.LM35:
 225 00c0 8091 7900 		lds r24,121
 226               	.LM36:
 227 00c4 90E0      		ldi r25,lo8(0)
 228               	/* epilogue start */
 229 00c6 0895      		ret
 230               	.LFE25:
 232               	.global	ProcessADC
 234               	ProcessADC:
 235               	.LFB27:
 236               	.LM37:
 237               	.LVL13:
 238               	/* prologue: function */
 239               	/* frame size = 0 */
 240               	.LM38:
 241 00c8 63E0      		ldi r22,lo8(3)
 242 00ca 0E94 0000 		call __udivmodqi4
 243               	.LVL14:
 244 00ce 90E0      		ldi r25,lo8(0)
 245 00d0 4496      		adiw r24,20
 246 00d2 9093 0000 		sts (speed)+1,r25
 247 00d6 8093 0000 		sts speed,r24
 248               	.LM39:
 249 00da 8535      		cpi r24,85
 250 00dc 9105      		cpc r25,__zero_reg__
 251 00de 04F0      		brlt .L23
 252               	.LM40:
 253 00e0 85E5      		ldi r24,lo8(85)
 254 00e2 90E0      		ldi r25,hi8(85)
 255 00e4 9093 0000 		sts (speed)+1,r25
 256 00e8 8093 0000 		sts speed,r24
 257               	.L23:
 258 00ec 0895      		ret
 259               	.LFE27:
 261               	.global	ProcessPINB
 263               	ProcessPINB:
 264               	.LFB30:
 265               	.LM41:
 266               	.LVL15:
 267               	/* prologue: function */
 268               	/* frame size = 0 */
 269               	/* epilogue start */
 270               	.LM42:
 271 00ee 0895      		ret
 272               	.LFE30:
 274               	.global	UartReceive
 276               	UartReceive:
 277               	.LFB33:
 278               	.LM43:
 279               	/* prologue: function */
 280               	/* frame size = 0 */
 281               	.L27:
 282               	.LM44:
 283 00f0 8091 D000 		lds r24,208
 284 00f4 87FF      		sbrs r24,7
 285 00f6 00C0      		rjmp .L27
 286               	.LM45:
 287 00f8 8091 D600 		lds r24,214
 288               	/* epilogue start */
 289               	.LM46:
 290 00fc 0895      		ret
 291               	.LFE33:
 293               	.global	UartInit
 295               	UartInit:
 296               	.LFB34:
 297               	.LM47:
 298               	/* prologue: function */
 299               	/* frame size = 0 */
 300               	.LM48:
 301 00fe E1E0      		ldi r30,lo8(257)
 302 0100 F1E0      		ldi r31,hi8(257)
 303 0102 8081      		ld r24,Z
 304 0104 8260      		ori r24,lo8(2)
 305 0106 8083      		st Z,r24
 306               	.LM49:
 307 0108 8081      		ld r24,Z
 308 010a 8E7F      		andi r24,lo8(-2)
 309 010c 8083      		st Z,r24
 310               	.LM50:
 311 010e E2E0      		ldi r30,lo8(258)
 312 0110 F1E0      		ldi r31,hi8(258)
 313 0112 8081      		ld r24,Z
 314 0114 8260      		ori r24,lo8(2)
 315 0116 8083      		st Z,r24
 316               	.LM51:
 317 0118 8081      		ld r24,Z
 318 011a 8E7F      		andi r24,lo8(-2)
 319 011c 8083      		st Z,r24
 320               	.LM52:
 321 011e E1ED      		ldi r30,lo8(209)
 322 0120 F0E0      		ldi r31,hi8(209)
 323 0122 8081      		ld r24,Z
 324 0124 8861      		ori r24,lo8(24)
 325 0126 8083      		st Z,r24
 326               	.LM53:
 327 0128 E2ED      		ldi r30,lo8(210)
 328 012a F0E0      		ldi r31,hi8(210)
 329 012c 8081      		ld r24,Z
 330 012e 8660      		ori r24,lo8(6)
 331 0130 8083      		st Z,r24
 332               	.LM54:
 333 0132 E0ED      		ldi r30,lo8(208)
 334 0134 F0E0      		ldi r31,hi8(208)
 335 0136 8081      		ld r24,Z
 336 0138 8260      		ori r24,lo8(2)
 337 013a 8083      		st Z,r24
 338               	.LM55:
 339 013c 8FEB      		ldi r24,lo8(191)
 340 013e 90E0      		ldi r25,hi8(191)
 341 0140 9093 D500 		sts (212)+1,r25
 342 0144 8093 D400 		sts 212,r24
 343               	/* epilogue start */
 344               	.LM56:
 345 0148 0895      		ret
 346               	.LFE34:
 348               	.global	UartTransmit
 350               	UartTransmit:
 351               	.LFB35:
 352               	.LM57:
 353               	.LVL16:
 354               	/* prologue: function */
 355               	/* frame size = 0 */
 356 014a 982F      		mov r25,r24
 357               	.LVL17:
 358               	.L33:
 359               	.LM58:
 360 014c 8091 D000 		lds r24,208
 361 0150 85FF      		sbrs r24,5
 362 0152 00C0      		rjmp .L33
 363               	.LM59:
 364 0154 9093 D600 		sts 214,r25
 365               	/* epilogue start */
 366               	.LM60:
 367 0158 0895      		ret
 368               	.LFE35:
 370               	.global	pid
 372               	pid:
 373               	.LFB26:
 374               	.LM61:
 375 015a 8F92      		push r8
 376 015c 9F92      		push r9
 377 015e AF92      		push r10
 378 0160 BF92      		push r11
 379 0162 CF92      		push r12
 380 0164 DF92      		push r13
 381 0166 EF92      		push r14
 382 0168 FF92      		push r15
 383 016a 0F93      		push r16
 384 016c 1F93      		push r17
 385               	/* prologue: function */
 386               	/* frame size = 0 */
 387               	.LM62:
 388 016e 359B      		sbis 38-32,5
 389 0170 00C0      		rjmp .L37
 390               	.LM63:
 391 0172 83E0      		ldi r24,lo8(3)
 392 0174 00C0      		rjmp .L44
 393               	.L37:
 394               	.LM64:
 395 0176 349B      		sbis 38-32,4
 396 0178 00C0      		rjmp .L39
 397               	.L45:
 398               	.LM65:
 399 017a 82E0      		ldi r24,lo8(2)
 400               	.L44:
 401 017c 8093 0000 		sts err,r24
 402 0180 00C0      		rjmp .L38
 403               	.L39:
 404               	.LM66:
 405 0182 3199      		sbic 38-32,1
 406 0184 00C0      		rjmp .L45
 407               	.L40:
 408               	.LM67:
 409 0186 3299      		sbic 38-32,2
 410 0188 00C0      		rjmp .L45
 411               	.L41:
 412               	.LM68:
 413 018a 339B      		sbis 38-32,3
 414 018c 00C0      		rjmp .L42
 415               	.LM69:
 416 018e 81E0      		ldi r24,lo8(1)
 417 0190 00C0      		rjmp .L44
 418               	.L42:
 419               	.LM70:
 420 0192 1092 0000 		sts err,__zero_reg__
 421               	.L38:
 422               	.LM71:
 423 0196 8090 0000 		lds r8,err
 424 019a 8091 0000 		lds r24,prev_err
 425 019e E82C      		mov r14,r8
 426 01a0 E81A      		sub r14,r24
 427 01a2 E092 0000 		sts inst_err,r14
 428               	.LM72:
 429 01a6 9090 0000 		lds r9,acc_err
 430 01aa 682D      		mov r22,r8
 431 01ac 70E0      		ldi r23,lo8(0)
 432 01ae 8827      		clr r24
 433 01b0 77FD      		sbrc r23,7
 434 01b2 8095      		com r24
 435 01b4 982F      		mov r25,r24
 436 01b6 0E94 0000 		call __floatsisf
 437 01ba 2091 0000 		lds r18,p
 438 01be 3091 0000 		lds r19,(p)+1
 439 01c2 4091 0000 		lds r20,(p)+2
 440 01c6 5091 0000 		lds r21,(p)+3
 441 01ca 0E94 0000 		call __mulsf3
 442 01ce 5B01      		movw r10,r22
 443 01d0 6C01      		movw r12,r24
 444 01d2 692D      		mov r22,r9
 445 01d4 70E0      		ldi r23,lo8(0)
 446 01d6 8827      		clr r24
 447 01d8 77FD      		sbrc r23,7
 448 01da 8095      		com r24
 449 01dc 982F      		mov r25,r24
 450 01de 0E94 0000 		call __floatsisf
 451 01e2 2091 0000 		lds r18,i
 452 01e6 3091 0000 		lds r19,(i)+1
 453 01ea 4091 0000 		lds r20,(i)+2
 454 01ee 5091 0000 		lds r21,(i)+3
 455 01f2 0E94 0000 		call __mulsf3
 456 01f6 9B01      		movw r18,r22
 457 01f8 AC01      		movw r20,r24
 458 01fa C601      		movw r24,r12
 459 01fc B501      		movw r22,r10
 460 01fe 0E94 0000 		call __addsf3
 461 0202 5B01      		movw r10,r22
 462 0204 6C01      		movw r12,r24
 463 0206 FF24      		clr r15
 464 0208 0027      		clr r16
 465 020a F7FC      		sbrc r15,7
 466 020c 0095      		com r16
 467 020e 102F      		mov r17,r16
 468 0210 C801      		movw r24,r16
 469 0212 B701      		movw r22,r14
 470 0214 0E94 0000 		call __floatsisf
 471 0218 2091 0000 		lds r18,d
 472 021c 3091 0000 		lds r19,(d)+1
 473 0220 4091 0000 		lds r20,(d)+2
 474 0224 5091 0000 		lds r21,(d)+3
 475 0228 0E94 0000 		call __mulsf3
 476 022c 9B01      		movw r18,r22
 477 022e AC01      		movw r20,r24
 478 0230 C601      		movw r24,r12
 479 0232 B501      		movw r22,r10
 480 0234 0E94 0000 		call __addsf3
 481 0238 9B01      		movw r18,r22
 482 023a AC01      		movw r20,r24
 483 023c 2093 0000 		sts corr,r18
 484 0240 3093 0000 		sts (corr)+1,r19
 485 0244 4093 0000 		sts (corr)+2,r20
 486 0248 5093 0000 		sts (corr)+3,r21
 487               	.LM73:
 488 024c 980C      		add r9,r8
 489 024e 9092 0000 		sts acc_err,r9
 490               	.LM74:
 491 0252 8092 0000 		sts prev_err,r8
 492               	.LM75:
 493 0256 21E0      		ldi r18,lo8(1)
 494 0258 2093 0000 		sts PidStarted,r18
 495               	.LM76:
 496 025c 2091 0501 		lds r18,261
 497 0260 2D7F      		andi r18,lo8(-3)
 498 0262 2093 0501 		sts 261,r18
 499               	.LM77:
 500 0266 2091 0501 		lds r18,261
 501 026a 2160      		ori r18,lo8(1)
 502 026c 2093 0501 		sts 261,r18
 503               	.LM78:
 504 0270 2091 0501 		lds r18,261
 505 0274 2860      		ori r18,lo8(8)
 506 0276 2093 0501 		sts 261,r18
 507               	.LM79:
 508 027a 2091 0501 		lds r18,261
 509 027e 2B7F      		andi r18,lo8(-5)
 510 0280 2093 0501 		sts 261,r18
 511               	.LM80:
 512 0284 262F      		mov r18,r22
 513 0286 B901      		movw r22,r18
 514 0288 0E94 0000 		call ceil
 515 028c 0E94 0000 		call __fixsfsi
 516 0290 625A      		subi r22,lo8(-(350))
 517 0292 7E4F      		sbci r23,hi8(-(350))
 518 0294 7093 9B00 		sts (154)+1,r23
 519 0298 6093 9A00 		sts 154,r22
 520 029c 6E55      		subi r22,lo8(-(-350))
 521 029e 7140      		sbci r23,hi8(-(-350))
 522               	.LM81:
 523 02a0 20E9      		ldi r18,lo8(400)
 524 02a2 31E0      		ldi r19,hi8(400)
 525 02a4 261B      		sub r18,r22
 526 02a6 370B      		sbc r19,r23
 527 02a8 3093 9900 		sts (152)+1,r19
 528 02ac 2093 9800 		sts 152,r18
 529               	/* epilogue start */
 530               	.LM82:
 531 02b0 1F91      		pop r17
 532 02b2 0F91      		pop r16
 533 02b4 FF90      		pop r15
 534 02b6 EF90      		pop r14
 535 02b8 DF90      		pop r13
 536 02ba CF90      		pop r12
 537 02bc BF90      		pop r11
 538 02be AF90      		pop r10
 539 02c0 9F90      		pop r9
 540 02c2 8F90      		pop r8
 541 02c4 0895      		ret
 542               	.LFE26:
 544               	.global	PWM
 546               	PWM:
 547               	.LFB6:
 548               	.LM83:
 549               	.LVL18:
 550 02c6 BF92      		push r11
 551 02c8 CF92      		push r12
 552 02ca DF92      		push r13
 553 02cc EF92      		push r14
 554 02ce FF92      		push r15
 555 02d0 0F93      		push r16
 556               	.LVL19:
 557 02d2 1F93      		push r17
 558 02d4 CF93      		push r28
 559 02d6 DF93      		push r29
 560               	/* prologue: function */
 561               	/* frame size = 0 */
 562 02d8 B62E      		mov r11,r22
 563 02da 6A01      		movw r12,r20
 564 02dc E901      		movw r28,r18
 565               	.LM84:
 566 02de 90E0      		ldi r25,lo8(0)
 567 02e0 0E94 0000 		call toupper
 568               	.LVL20:
 569 02e4 182F      		mov r17,r24
 570               	.LM85:
 571 02e6 8B2D      		mov r24,r11
 572 02e8 90E0      		ldi r25,lo8(0)
 573 02ea 0E94 0000 		call toupper
 574 02ee B82E      		mov r11,r24
 575               	.LVL21:
 576               	.LM86:
 577 02f0 CC0C      		lsl r12
 578 02f2 DD1C      		rol r13
 579 02f4 EE24      		clr r14
 580 02f6 FF24      		clr r15
 581 02f8 60E0      		ldi r22,lo8(14745600)
 582 02fa 70E0      		ldi r23,hi8(14745600)
 583 02fc 81EE      		ldi r24,hlo8(14745600)
 584 02fe 90E0      		ldi r25,hhi8(14745600)
 585 0300 A701      		movw r20,r14
 586 0302 9601      		movw r18,r12
 587               	.LVL22:
 588 0304 0E94 0000 		call __udivmodsi4
 589               	.LM87:
 590 0308 1133      		cpi r17,lo8(49)
 591 030a 01F0      		breq .+2
 592 030c 00C0      		rjmp .L47
 593               	.LM88:
 594 030e 3093 8700 		sts (134)+1,r19
 595 0312 2093 8600 		sts 134,r18
 596               	.LM89:
 597 0316 CE01      		movw r24,r28
 598 0318 61E3      		ldi r22,lo8(49)
 599 031a 0E94 0000 		call compute_duty_cycle
 600 031e 9C01      		movw r18,r24
 601               	.LVL23:
 602               	.LM90:
 603 0320 88EA      		ldi r24,lo8(-88)
 604 0322 8093 8000 		sts 128,r24
 605               	.LM91:
 606 0326 81E1      		ldi r24,lo8(17)
 607 0328 8093 8100 		sts 129,r24
 608               	.LM92:
 609 032c 81E4      		ldi r24,lo8(65)
 610 032e B816      		cp r11,r24
 611 0330 01F4      		brne .L48
 612               	.LM93:
 613 0332 259A      		sbi 36-32,5
 614               	.LM94:
 615 0334 3093 8900 		sts (136)+1,r19
 616 0338 2093 8800 		sts 136,r18
 617               	.LM95:
 618 033c 8091 0A01 		lds r24,266
 619 0340 8460      		ori r24,lo8(4)
 620 0342 8093 0A01 		sts 266,r24
 621               	.LM96:
 622 0346 0023      		tst r16
 623               	.LVL24:
 624 0348 01F4      		brne .L49
 625               	.LM97:
 626 034a 8091 0B01 		lds r24,267
 627 034e 8B7F      		andi r24,lo8(-5)
 628 0350 00C0      		rjmp .L84
 629               	.L49:
 630               	.LM98:
 631 0352 0130      		cpi r16,lo8(1)
 632 0354 01F4      		brne .L51
 633               	.LM99:
 634 0356 8091 0B01 		lds r24,267
 635 035a 8460      		ori r24,lo8(4)
 636               	.L84:
 637 035c 8093 0B01 		sts 267,r24
 638 0360 00C0      		rjmp .L83
 639               	.L51:
 640               	.LM100:
 641 0362 0230      		cpi r16,lo8(2)
 642 0364 01F0      		breq .+2
 643 0366 00C0      		rjmp .L83
 644               	.LM101:
 645 0368 8091 0B01 		lds r24,267
 646 036c 94E0      		ldi r25,lo8(4)
 647 036e 00C0      		rjmp .L87
 648               	.LVL25:
 649               	.L48:
 650               	.LM102:
 651 0370 82E4      		ldi r24,lo8(66)
 652 0372 B816      		cp r11,r24
 653 0374 01F4      		brne .L52
 654               	.LM103:
 655 0376 269A      		sbi 36-32,6
 656               	.LM104:
 657 0378 3093 8B00 		sts (138)+1,r19
 658 037c 2093 8A00 		sts 138,r18
 659               	.LM105:
 660 0380 8091 0A01 		lds r24,266
 661 0384 8064      		ori r24,lo8(64)
 662 0386 8093 0A01 		sts 266,r24
 663               	.LM106:
 664 038a 0023      		tst r16
 665               	.LVL26:
 666 038c 01F4      		brne .L53
 667               	.LM107:
 668 038e 8091 0B01 		lds r24,267
 669 0392 8F7B      		andi r24,lo8(-65)
 670 0394 00C0      		rjmp .L84
 671               	.L53:
 672               	.LM108:
 673 0396 0130      		cpi r16,lo8(1)
 674 0398 01F4      		brne .L54
 675               	.LM109:
 676 039a 8091 0B01 		lds r24,267
 677 039e 8064      		ori r24,lo8(64)
 678 03a0 00C0      		rjmp .L84
 679               	.L54:
 680               	.LM110:
 681 03a2 0230      		cpi r16,lo8(2)
 682 03a4 01F0      		breq .+2
 683 03a6 00C0      		rjmp .L83
 684               	.LM111:
 685 03a8 8091 0B01 		lds r24,267
 686 03ac 90E4      		ldi r25,lo8(64)
 687               	.L87:
 688 03ae 8927      		eor r24,r25
 689 03b0 00C0      		rjmp .L84
 690               	.LVL27:
 691               	.L52:
 692               	.LM112:
 693 03b2 279A      		sbi 36-32,7
 694               	.LM113:
 695 03b4 3093 8D00 		sts (140)+1,r19
 696 03b8 2093 8C00 		sts 140,r18
 697               	.LM114:
 698 03bc 8091 0A01 		lds r24,266
 699 03c0 8068      		ori r24,lo8(-128)
 700 03c2 8093 0A01 		sts 266,r24
 701               	.LM115:
 702 03c6 0023      		tst r16
 703               	.LVL28:
 704 03c8 01F4      		brne .L55
 705               	.LM116:
 706 03ca 8091 0B01 		lds r24,267
 707 03ce 8F77      		andi r24,lo8(127)
 708 03d0 00C0      		rjmp .L84
 709               	.L55:
 710               	.LM117:
 711 03d2 0130      		cpi r16,lo8(1)
 712 03d4 01F4      		brne .L56
 713               	.LM118:
 714 03d6 8091 0B01 		lds r24,267
 715 03da 8068      		ori r24,lo8(-128)
 716 03dc 00C0      		rjmp .L84
 717               	.L56:
 718               	.LM119:
 719 03de 0230      		cpi r16,lo8(2)
 720 03e0 01F0      		breq .+2
 721 03e2 00C0      		rjmp .L83
 722               	.LM120:
 723 03e4 8091 0B01 		lds r24,267
 724 03e8 8058      		subi r24,lo8(-(-128))
 725 03ea 00C0      		rjmp .L84
 726               	.LVL29:
 727               	.L47:
 728               	.LM121:
 729 03ec 1333      		cpi r17,lo8(51)
 730 03ee 01F0      		breq .+2
 731 03f0 00C0      		rjmp .L57
 732               	.LM122:
 733 03f2 88EA      		ldi r24,lo8(-88)
 734 03f4 8093 9000 		sts 144,r24
 735               	.LM123:
 736 03f8 81E1      		ldi r24,lo8(17)
 737 03fa 8093 9100 		sts 145,r24
 738               	.LM124:
 739 03fe 3093 9700 		sts (150)+1,r19
 740 0402 2093 9600 		sts 150,r18
 741               	.LM125:
 742 0406 CE01      		movw r24,r28
 743 0408 63E3      		ldi r22,lo8(51)
 744 040a 0E94 0000 		call compute_duty_cycle
 745               	.LM126:
 746 040e 21E4      		ldi r18,lo8(65)
 747 0410 B216      		cp r11,r18
 748 0412 01F4      		brne .L58
 749               	.LM127:
 750 0414 6B9A      		sbi 45-32,3
 751               	.LM128:
 752 0416 9093 9900 		sts (152)+1,r25
 753 041a 8093 9800 		sts 152,r24
 754               	.LVL30:
 755               	.LM129:
 756 041e 8091 0101 		lds r24,257
 757               	.LVL31:
 758 0422 8064      		ori r24,lo8(64)
 759 0424 8093 0101 		sts 257,r24
 760               	.LM130:
 761 0428 0023      		tst r16
 762               	.LVL32:
 763 042a 01F4      		brne .L59
 764               	.LM131:
 765 042c 8091 0201 		lds r24,258
 766 0430 8F7B      		andi r24,lo8(-65)
 767 0432 00C0      		rjmp .L86
 768               	.L59:
 769               	.LM132:
 770 0434 0130      		cpi r16,lo8(1)
 771 0436 01F4      		brne .L60
 772               	.LM133:
 773 0438 8091 0201 		lds r24,258
 774 043c 8064      		ori r24,lo8(64)
 775               	.L86:
 776 043e 8093 0201 		sts 258,r24
 777 0442 00C0      		rjmp .L83
 778               	.L60:
 779               	.LM134:
 780 0444 0230      		cpi r16,lo8(2)
 781 0446 01F0      		breq .+2
 782 0448 00C0      		rjmp .L83
 783               	.LM135:
 784 044a 8091 0201 		lds r24,258
 785 044e 90E4      		ldi r25,lo8(64)
 786 0450 8927      		eor r24,r25
 787 0452 00C0      		rjmp .L86
 788               	.LVL33:
 789               	.L58:
 790               	.LM136:
 791 0454 22E4      		ldi r18,lo8(66)
 792 0456 B216      		cp r11,r18
 793 0458 01F4      		brne .L61
 794               	.LM137:
 795 045a 6C9A      		sbi 45-32,4
 796               	.LM138:
 797 045c 9093 9B00 		sts (154)+1,r25
 798 0460 8093 9A00 		sts 154,r24
 799               	.LVL34:
 800               	.LM139:
 801 0464 8091 0A01 		lds r24,266
 802               	.LVL35:
 803 0468 8068      		ori r24,lo8(-128)
 804 046a 8093 0A01 		sts 266,r24
 805               	.LM140:
 806 046e 0023      		tst r16
 807               	.LVL36:
 808 0470 01F4      		brne .L62
 809               	.LM141:
 810 0472 8091 0201 		lds r24,258
 811 0476 8F77      		andi r24,lo8(127)
 812 0478 00C0      		rjmp .L86
 813               	.L62:
 814               	.LM142:
 815 047a 0130      		cpi r16,lo8(1)
 816 047c 01F4      		brne .L63
 817               	.LM143:
 818 047e 8091 0201 		lds r24,258
 819 0482 8068      		ori r24,lo8(-128)
 820 0484 00C0      		rjmp .L86
 821               	.L63:
 822               	.LM144:
 823 0486 0230      		cpi r16,lo8(2)
 824 0488 01F0      		breq .+2
 825 048a 00C0      		rjmp .L83
 826               	.LM145:
 827 048c 8091 0201 		lds r24,258
 828 0490 8058      		subi r24,lo8(-(-128))
 829 0492 00C0      		rjmp .L86
 830               	.LVL37:
 831               	.L61:
 832               	.LM146:
 833 0494 6D9A      		sbi 45-32,5
 834               	.LM147:
 835 0496 9093 9D00 		sts (156)+1,r25
 836 049a 8093 9C00 		sts 156,r24
 837               	.LVL38:
 838               	.LM148:
 839 049e 9B9A      		sbi 51-32,3
 840               	.LM149:
 841 04a0 0023      		tst r16
 842               	.LVL39:
 843 04a2 01F4      		brne .L64
 844               	.LM150:
 845 04a4 A398      		cbi 52-32,3
 846 04a6 00C0      		rjmp .L83
 847               	.L64:
 848               	.LM151:
 849 04a8 0130      		cpi r16,lo8(1)
 850 04aa 01F4      		brne .L65
 851               	.LM152:
 852 04ac A39A      		sbi 52-32,3
 853 04ae 00C0      		rjmp .L83
 854               	.L65:
 855               	.LM153:
 856 04b0 0230      		cpi r16,lo8(2)
 857 04b2 01F0      		breq .+2
 858 04b4 00C0      		rjmp .L83
 859               	.LM154:
 860 04b6 84B3      		in r24,52-32
 861               	.LVL40:
 862 04b8 98E0      		ldi r25,lo8(8)
 863 04ba 00C0      		rjmp .L88
 864               	.LVL41:
 865               	.L57:
 866               	.LM155:
 867 04bc 1433      		cpi r17,lo8(52)
 868 04be 01F0      		breq .+2
 869 04c0 00C0      		rjmp .L66
 870               	.LM156:
 871 04c2 3093 A700 		sts (166)+1,r19
 872 04c6 2093 A600 		sts 166,r18
 873               	.LM157:
 874 04ca CE01      		movw r24,r28
 875 04cc 64E3      		ldi r22,lo8(52)
 876 04ce 0E94 0000 		call compute_duty_cycle
 877 04d2 9C01      		movw r18,r24
 878               	.LVL42:
 879               	.LM158:
 880 04d4 88EA      		ldi r24,lo8(-88)
 881 04d6 8093 A000 		sts 160,r24
 882               	.LM159:
 883 04da 81E1      		ldi r24,lo8(17)
 884 04dc 8093 A100 		sts 161,r24
 885               	.LM160:
 886 04e0 81E4      		ldi r24,lo8(65)
 887 04e2 B816      		cp r11,r24
 888 04e4 01F4      		brne .L67
 889               	.LM161:
 890 04e6 8091 0101 		lds r24,257
 891 04ea 8860      		ori r24,lo8(8)
 892 04ec 8093 0101 		sts 257,r24
 893               	.LM162:
 894 04f0 3093 A900 		sts (168)+1,r19
 895 04f4 2093 A800 		sts 168,r18
 896               	.LM163:
 897 04f8 9C9A      		sbi 51-32,4
 898               	.LM164:
 899 04fa 0023      		tst r16
 900               	.LVL43:
 901 04fc 01F4      		brne .L68
 902               	.LM165:
 903 04fe A498      		cbi 52-32,4
 904 0500 00C0      		rjmp .L83
 905               	.L68:
 906               	.LM166:
 907 0502 0130      		cpi r16,lo8(1)
 908 0504 01F4      		brne .L69
 909               	.LM167:
 910 0506 A49A      		sbi 52-32,4
 911 0508 00C0      		rjmp .L83
 912               	.L69:
 913               	.LM168:
 914 050a 0230      		cpi r16,lo8(2)
 915 050c 01F0      		breq .+2
 916 050e 00C0      		rjmp .L83
 917               	.LM169:
 918 0510 84B3      		in r24,52-32
 919 0512 90E1      		ldi r25,lo8(16)
 920 0514 00C0      		rjmp .L88
 921               	.LVL44:
 922               	.L67:
 923               	.LM170:
 924 0516 82E4      		ldi r24,lo8(66)
 925 0518 B816      		cp r11,r24
 926 051a 01F4      		brne .L70
 927               	.LM171:
 928 051c 8091 0101 		lds r24,257
 929 0520 8061      		ori r24,lo8(16)
 930 0522 8093 0101 		sts 257,r24
 931               	.LM172:
 932 0526 3093 AB00 		sts (170)+1,r19
 933 052a 2093 AA00 		sts 170,r18
 934               	.LM173:
 935 052e 8091 0A01 		lds r24,266
 936 0532 8160      		ori r24,lo8(1)
 937 0534 8093 0A01 		sts 266,r24
 938               	.LM174:
 939 0538 0023      		tst r16
 940               	.LVL45:
 941 053a 01F4      		brne .L71
 942               	.LM175:
 943 053c 8091 0B01 		lds r24,267
 944 0540 8E7F      		andi r24,lo8(-2)
 945 0542 00C0      		rjmp .L84
 946               	.L71:
 947               	.LM176:
 948 0544 0130      		cpi r16,lo8(1)
 949 0546 01F4      		brne .L72
 950               	.LM177:
 951 0548 8091 0B01 		lds r24,267
 952 054c 8160      		ori r24,lo8(1)
 953 054e 00C0      		rjmp .L84
 954               	.L72:
 955               	.LM178:
 956 0550 0230      		cpi r16,lo8(2)
 957 0552 01F0      		breq .+2
 958 0554 00C0      		rjmp .L83
 959               	.LM179:
 960 0556 8091 0B01 		lds r24,267
 961 055a 91E0      		ldi r25,lo8(1)
 962 055c 00C0      		rjmp .L87
 963               	.LVL46:
 964               	.L70:
 965               	.LM180:
 966 055e 8091 0101 		lds r24,257
 967 0562 8062      		ori r24,lo8(32)
 968 0564 8093 0101 		sts 257,r24
 969               	.LM181:
 970 0568 3093 AD00 		sts (172)+1,r19
 971 056c 2093 AC00 		sts 172,r18
 972               	.LM182:
 973 0570 8091 0A01 		lds r24,266
 974 0574 8260      		ori r24,lo8(2)
 975 0576 8093 0A01 		sts 266,r24
 976               	.LM183:
 977 057a 0023      		tst r16
 978               	.LVL47:
 979 057c 01F4      		brne .L73
 980               	.LM184:
 981 057e 8091 0B01 		lds r24,267
 982 0582 8D7F      		andi r24,lo8(-3)
 983 0584 00C0      		rjmp .L84
 984               	.L73:
 985               	.LM185:
 986 0586 0130      		cpi r16,lo8(1)
 987 0588 01F4      		brne .L74
 988               	.LM186:
 989 058a 8091 0B01 		lds r24,267
 990 058e 8260      		ori r24,lo8(2)
 991 0590 00C0      		rjmp .L84
 992               	.L74:
 993               	.LM187:
 994 0592 0230      		cpi r16,lo8(2)
 995 0594 01F0      		breq .+2
 996 0596 00C0      		rjmp .L83
 997               	.LM188:
 998 0598 8091 0B01 		lds r24,267
 999 059c 8027      		eor r24,r16
 1000 059e 00C0      		rjmp .L84
 1001               	.LVL48:
 1002               	.L66:
 1003               	.LM189:
 1004 05a0 1533      		cpi r17,lo8(53)
 1005 05a2 01F0      		breq .+2
 1006 05a4 00C0      		rjmp .L83
 1007               	.LM190:
 1008 05a6 3093 2701 		sts (294)+1,r19
 1009 05aa 2093 2601 		sts 294,r18
 1010               	.LM191:
 1011 05ae CE01      		movw r24,r28
 1012 05b0 65E3      		ldi r22,lo8(53)
 1013 05b2 0E94 0000 		call compute_duty_cycle
 1014 05b6 9C01      		movw r18,r24
 1015               	.LVL49:
 1016               	.LM192:
 1017 05b8 88EA      		ldi r24,lo8(-88)
 1018 05ba 8093 2001 		sts 288,r24
 1019               	.LM193:
 1020 05be 81E1      		ldi r24,lo8(17)
 1021 05c0 8093 2101 		sts 289,r24
 1022               	.LM194:
 1023 05c4 81E4      		ldi r24,lo8(65)
 1024 05c6 B816      		cp r11,r24
 1025 05c8 01F4      		brne .L75
 1026               	.LM195:
 1027 05ca 8091 0A01 		lds r24,266
 1028 05ce 8860      		ori r24,lo8(8)
 1029 05d0 8093 0A01 		sts 266,r24
 1030               	.LM196:
 1031 05d4 3093 2901 		sts (296)+1,r19
 1032 05d8 2093 2801 		sts 296,r18
 1033               	.LM197:
 1034 05dc 989A      		sbi 51-32,0
 1035               	.LM198:
 1036 05de 0023      		tst r16
 1037               	.LVL50:
 1038 05e0 01F4      		brne .L76
 1039               	.LM199:
 1040 05e2 A098      		cbi 52-32,0
 1041 05e4 00C0      		rjmp .L83
 1042               	.L76:
 1043               	.LM200:
 1044 05e6 0130      		cpi r16,lo8(1)
 1045 05e8 01F4      		brne .L77
 1046               	.LM201:
 1047 05ea A09A      		sbi 52-32,0
 1048 05ec 00C0      		rjmp .L83
 1049               	.L77:
 1050               	.LM202:
 1051 05ee 0230      		cpi r16,lo8(2)
 1052 05f0 01F4      		brne .L83
 1053               	.LM203:
 1054 05f2 84B3      		in r24,52-32
 1055 05f4 91E0      		ldi r25,lo8(1)
 1056 05f6 00C0      		rjmp .L88
 1057               	.LVL51:
 1058               	.L75:
 1059               	.LM204:
 1060 05f8 82E4      		ldi r24,lo8(66)
 1061 05fa B816      		cp r11,r24
 1062 05fc 01F4      		brne .L78
 1063               	.LM205:
 1064 05fe 8091 0A01 		lds r24,266
 1065 0602 8061      		ori r24,lo8(16)
 1066 0604 8093 0A01 		sts 266,r24
 1067               	.LM206:
 1068 0608 3093 2B01 		sts (298)+1,r19
 1069 060c 2093 2A01 		sts 298,r18
 1070               	.LM207:
 1071 0610 999A      		sbi 51-32,1
 1072               	.LM208:
 1073 0612 0023      		tst r16
 1074               	.LVL52:
 1075 0614 01F4      		brne .L79
 1076               	.LM209:
 1077 0616 A198      		cbi 52-32,1
 1078 0618 00C0      		rjmp .L83
 1079               	.L79:
 1080               	.LM210:
 1081 061a 0130      		cpi r16,lo8(1)
 1082 061c 01F4      		brne .L80
 1083               	.LM211:
 1084 061e A19A      		sbi 52-32,1
 1085 0620 00C0      		rjmp .L83
 1086               	.L80:
 1087               	.LM212:
 1088 0622 0230      		cpi r16,lo8(2)
 1089 0624 01F4      		brne .L83
 1090               	.LM213:
 1091 0626 84B3      		in r24,52-32
 1092 0628 8027      		eor r24,r16
 1093 062a 00C0      		rjmp .L85
 1094               	.LVL53:
 1095               	.L78:
 1096               	.LM214:
 1097 062c 8091 0A01 		lds r24,266
 1098 0630 8062      		ori r24,lo8(32)
 1099 0632 8093 0A01 		sts 266,r24
 1100               	.LM215:
 1101 0636 3093 2D01 		sts (300)+1,r19
 1102 063a 2093 2C01 		sts 300,r18
 1103               	.LM216:
 1104 063e 9A9A      		sbi 51-32,2
 1105               	.LM217:
 1106 0640 0023      		tst r16
 1107               	.LVL54:
 1108 0642 01F4      		brne .L81
 1109               	.LM218:
 1110 0644 A298      		cbi 52-32,2
 1111 0646 00C0      		rjmp .L83
 1112               	.L81:
 1113               	.LM219:
 1114 0648 0130      		cpi r16,lo8(1)
 1115 064a 01F4      		brne .L82
 1116               	.LM220:
 1117 064c A29A      		sbi 52-32,2
 1118 064e 00C0      		rjmp .L83
 1119               	.L82:
 1120               	.LM221:
 1121 0650 0230      		cpi r16,lo8(2)
 1122 0652 01F4      		brne .L83
 1123               	.LM222:
 1124 0654 84B3      		in r24,52-32
 1125 0656 94E0      		ldi r25,lo8(4)
 1126               	.L88:
 1127 0658 8927      		eor r24,r25
 1128               	.L85:
 1129 065a 84BB      		out 52-32,r24
 1130               	.LVL55:
 1131               	.L83:
 1132               	/* epilogue start */
 1133               	.LM223:
 1134 065c DF91      		pop r29
 1135 065e CF91      		pop r28
 1136               	.LVL56:
 1137 0660 1F91      		pop r17
 1138 0662 0F91      		pop r16
 1139               	.LVL57:
 1140 0664 FF90      		pop r15
 1141 0666 EF90      		pop r14
 1142 0668 DF90      		pop r13
 1143 066a CF90      		pop r12
 1144 066c BF90      		pop r11
 1145 066e 0895      		ret
 1146               	.LFE6:
 1148               	.global	Pully2Down
 1150               	Pully2Down:
 1151               	.LFB22:
 1152               	.LM224:
 1153 0670 0F93      		push r16
 1154               	/* prologue: function */
 1155               	/* frame size = 0 */
 1156               	.LM225:
 1157 0672 85E3      		ldi r24,lo8(53)
 1158 0674 61E4      		ldi r22,lo8(65)
 1159 0676 40E1      		ldi r20,lo8(10000)
 1160 0678 57E2      		ldi r21,hi8(10000)
 1161 067a 24E6      		ldi r18,lo8(100)
 1162 067c 30E0      		ldi r19,hi8(100)
 1163 067e 01E0      		ldi r16,lo8(1)
 1164 0680 0E94 0000 		call PWM
 1165               	/* epilogue start */
 1166               	.LM226:
 1167 0684 0F91      		pop r16
 1168 0686 0895      		ret
 1169               	.LFE22:
 1171               	.global	Pully2Up
 1173               	Pully2Up:
 1174               	.LFB21:
 1175               	.LM227:
 1176 0688 0F93      		push r16
 1177               	/* prologue: function */
 1178               	/* frame size = 0 */
 1179               	.LM228:
 1180 068a 85E3      		ldi r24,lo8(53)
 1181 068c 61E4      		ldi r22,lo8(65)
 1182 068e 40E1      		ldi r20,lo8(10000)
 1183 0690 57E2      		ldi r21,hi8(10000)
 1184 0692 24E6      		ldi r18,lo8(100)
 1185 0694 30E0      		ldi r19,hi8(100)
 1186 0696 00E0      		ldi r16,lo8(0)
 1187 0698 0E94 0000 		call PWM
 1188               	/* epilogue start */
 1189               	.LM229:
 1190 069c 0F91      		pop r16
 1191 069e 0895      		ret
 1192               	.LFE21:
 1194               	.global	Pully2Stop
 1196               	Pully2Stop:
 1197               	.LFB20:
 1198               	.LM230:
 1199 06a0 0F93      		push r16
 1200               	/* prologue: function */
 1201               	/* frame size = 0 */
 1202               	.LM231:
 1203 06a2 85E3      		ldi r24,lo8(53)
 1204 06a4 61E4      		ldi r22,lo8(65)
 1205 06a6 40E1      		ldi r20,lo8(10000)
 1206 06a8 57E2      		ldi r21,hi8(10000)
 1207 06aa 22E0      		ldi r18,lo8(2)
 1208 06ac 30E0      		ldi r19,hi8(2)
 1209 06ae 00E0      		ldi r16,lo8(0)
 1210 06b0 0E94 0000 		call PWM
 1211               	/* epilogue start */
 1212               	.LM232:
 1213 06b4 0F91      		pop r16
 1214 06b6 0895      		ret
 1215               	.LFE20:
 1217               	.global	MainPullyDown
 1219               	MainPullyDown:
 1220               	.LFB19:
 1221               	.LM233:
 1222 06b8 0F93      		push r16
 1223               	/* prologue: function */
 1224               	/* frame size = 0 */
 1225               	.LM234:
 1226 06ba 84E3      		ldi r24,lo8(52)
 1227 06bc 62E4      		ldi r22,lo8(66)
 1228 06be 40E1      		ldi r20,lo8(10000)
 1229 06c0 57E2      		ldi r21,hi8(10000)
 1230 06c2 24E6      		ldi r18,lo8(100)
 1231 06c4 30E0      		ldi r19,hi8(100)
 1232 06c6 01E0      		ldi r16,lo8(1)
 1233 06c8 0E94 0000 		call PWM
 1234               	/* epilogue start */
 1235               	.LM235:
 1236 06cc 0F91      		pop r16
 1237 06ce 0895      		ret
 1238               	.LFE19:
 1240               	.global	MainPullyUp
 1242               	MainPullyUp:
 1243               	.LFB18:
 1244               	.LM236:
 1245 06d0 0F93      		push r16
 1246               	/* prologue: function */
 1247               	/* frame size = 0 */
 1248               	.LM237:
 1249 06d2 84E3      		ldi r24,lo8(52)
 1250 06d4 62E4      		ldi r22,lo8(66)
 1251 06d6 40E1      		ldi r20,lo8(10000)
 1252 06d8 57E2      		ldi r21,hi8(10000)
 1253 06da 24E6      		ldi r18,lo8(100)
 1254 06dc 30E0      		ldi r19,hi8(100)
 1255 06de 00E0      		ldi r16,lo8(0)
 1256 06e0 0E94 0000 		call PWM
 1257               	/* epilogue start */
 1258               	.LM238:
 1259 06e4 0F91      		pop r16
 1260 06e6 0895      		ret
 1261               	.LFE18:
 1263               	.global	MainPullyStop
 1265               	MainPullyStop:
 1266               	.LFB17:
 1267               	.LM239:
 1268 06e8 0F93      		push r16
 1269               	/* prologue: function */
 1270               	/* frame size = 0 */
 1271               	.LM240:
 1272 06ea 84E3      		ldi r24,lo8(52)
 1273 06ec 62E4      		ldi r22,lo8(66)
 1274 06ee 40E1      		ldi r20,lo8(10000)
 1275 06f0 57E2      		ldi r21,hi8(10000)
 1276 06f2 2AE0      		ldi r18,lo8(10)
 1277 06f4 30E0      		ldi r19,hi8(10)
 1278 06f6 00E0      		ldi r16,lo8(0)
 1279 06f8 0E94 0000 		call PWM
 1280               	/* epilogue start */
 1281               	.LM241:
 1282 06fc 0F91      		pop r16
 1283 06fe 0895      		ret
 1284               	.LFE17:
 1286               	.global	RightStop
 1288               	RightStop:
 1289               	.LFB16:
 1290               	.LM242:
 1291 0700 0F93      		push r16
 1292               	/* prologue: function */
 1293               	/* frame size = 0 */
 1294               	.LM243:
 1295 0702 E5E0      		ldi r30,lo8(261)
 1296 0704 F1E0      		ldi r31,hi8(261)
 1297 0706 8081      		ld r24,Z
 1298 0708 8860      		ori r24,lo8(8)
 1299 070a 8083      		st Z,r24
 1300               	.LM244:
 1301 070c 8081      		ld r24,Z
 1302 070e 8B7F      		andi r24,lo8(-5)
 1303 0710 8083      		st Z,r24
 1304               	.LM245:
 1305 0712 83E3      		ldi r24,lo8(51)
 1306 0714 62E4      		ldi r22,lo8(66)
 1307 0716 40E1      		ldi r20,lo8(10000)
 1308 0718 57E2      		ldi r21,hi8(10000)
 1309 071a 24E1      		ldi r18,lo8(20)
 1310 071c 30E0      		ldi r19,hi8(20)
 1311 071e 00E0      		ldi r16,lo8(0)
 1312 0720 0E94 0000 		call PWM
 1313               	/* epilogue start */
 1314               	.LM246:
 1315 0724 0F91      		pop r16
 1316 0726 0895      		ret
 1317               	.LFE16:
 1319               	.global	RightRev
 1321               	RightRev:
 1322               	.LFB15:
 1323               	.LM247:
 1324               	.LVL58:
 1325 0728 0F93      		push r16
 1326               	/* prologue: function */
 1327               	/* frame size = 0 */
 1328 072a 9C01      		movw r18,r24
 1329               	.LM248:
 1330 072c E5E0      		ldi r30,lo8(261)
 1331 072e F1E0      		ldi r31,hi8(261)
 1332 0730 8081      		ld r24,Z
 1333               	.LVL59:
 1334 0732 8460      		ori r24,lo8(4)
 1335 0734 8083      		st Z,r24
 1336               	.LM249:
 1337 0736 8081      		ld r24,Z
 1338 0738 877F      		andi r24,lo8(-9)
 1339 073a 8083      		st Z,r24
 1340               	.LM250:
 1341 073c 83E3      		ldi r24,lo8(51)
 1342 073e 62E4      		ldi r22,lo8(66)
 1343 0740 40E1      		ldi r20,lo8(10000)
 1344 0742 57E2      		ldi r21,hi8(10000)
 1345 0744 00E0      		ldi r16,lo8(0)
 1346 0746 0E94 0000 		call PWM
 1347               	.LVL60:
 1348               	/* epilogue start */
 1349               	.LM251:
 1350 074a 0F91      		pop r16
 1351 074c 0895      		ret
 1352               	.LFE15:
 1354               	.global	RightFwd
 1356               	RightFwd:
 1357               	.LFB14:
 1358               	.LM252:
 1359               	.LVL61:
 1360 074e 0F93      		push r16
 1361               	/* prologue: function */
 1362               	/* frame size = 0 */
 1363 0750 9C01      		movw r18,r24
 1364               	.LM253:
 1365 0752 E5E0      		ldi r30,lo8(261)
 1366 0754 F1E0      		ldi r31,hi8(261)
 1367 0756 8081      		ld r24,Z
 1368               	.LVL62:
 1369 0758 8860      		ori r24,lo8(8)
 1370 075a 8083      		st Z,r24
 1371               	.LM254:
 1372 075c 8081      		ld r24,Z
 1373 075e 8B7F      		andi r24,lo8(-5)
 1374 0760 8083      		st Z,r24
 1375               	.LM255:
 1376 0762 83E3      		ldi r24,lo8(51)
 1377 0764 62E4      		ldi r22,lo8(66)
 1378 0766 40E1      		ldi r20,lo8(10000)
 1379 0768 57E2      		ldi r21,hi8(10000)
 1380 076a 00E0      		ldi r16,lo8(0)
 1381 076c 0E94 0000 		call PWM
 1382               	.LVL63:
 1383               	/* epilogue start */
 1384               	.LM256:
 1385 0770 0F91      		pop r16
 1386 0772 0895      		ret
 1387               	.LFE14:
 1389               	.global	LeftStop
 1391               	LeftStop:
 1392               	.LFB13:
 1393               	.LM257:
 1394 0774 0F93      		push r16
 1395               	/* prologue: function */
 1396               	/* frame size = 0 */
 1397               	.LM258:
 1398 0776 E5E0      		ldi r30,lo8(261)
 1399 0778 F1E0      		ldi r31,hi8(261)
 1400 077a 8081      		ld r24,Z
 1401 077c 8160      		ori r24,lo8(1)
 1402 077e 8083      		st Z,r24
 1403               	.LM259:
 1404 0780 8081      		ld r24,Z
 1405 0782 8D7F      		andi r24,lo8(-3)
 1406 0784 8083      		st Z,r24
 1407               	.LM260:
 1408 0786 83E3      		ldi r24,lo8(51)
 1409 0788 61E4      		ldi r22,lo8(65)
 1410 078a 40E1      		ldi r20,lo8(10000)
 1411 078c 57E2      		ldi r21,hi8(10000)
 1412 078e 24E1      		ldi r18,lo8(20)
 1413 0790 30E0      		ldi r19,hi8(20)
 1414 0792 00E0      		ldi r16,lo8(0)
 1415 0794 0E94 0000 		call PWM
 1416               	/* epilogue start */
 1417               	.LM261:
 1418 0798 0F91      		pop r16
 1419 079a 0895      		ret
 1420               	.LFE13:
 1422               	.global	LeftRev
 1424               	LeftRev:
 1425               	.LFB12:
 1426               	.LM262:
 1427               	.LVL64:
 1428 079c 0F93      		push r16
 1429               	/* prologue: function */
 1430               	/* frame size = 0 */
 1431 079e 9C01      		movw r18,r24
 1432               	.LM263:
 1433 07a0 E5E0      		ldi r30,lo8(261)
 1434 07a2 F1E0      		ldi r31,hi8(261)
 1435 07a4 8081      		ld r24,Z
 1436               	.LVL65:
 1437 07a6 8260      		ori r24,lo8(2)
 1438 07a8 8083      		st Z,r24
 1439               	.LM264:
 1440 07aa 8081      		ld r24,Z
 1441 07ac 8E7F      		andi r24,lo8(-2)
 1442 07ae 8083      		st Z,r24
 1443               	.LM265:
 1444 07b0 83E3      		ldi r24,lo8(51)
 1445 07b2 61E4      		ldi r22,lo8(65)
 1446 07b4 40E1      		ldi r20,lo8(10000)
 1447 07b6 57E2      		ldi r21,hi8(10000)
 1448 07b8 00E0      		ldi r16,lo8(0)
 1449 07ba 0E94 0000 		call PWM
 1450               	.LVL66:
 1451               	/* epilogue start */
 1452               	.LM266:
 1453 07be 0F91      		pop r16
 1454 07c0 0895      		ret
 1455               	.LFE12:
 1457               	.global	LeftFwd
 1459               	LeftFwd:
 1460               	.LFB11:
 1461               	.LM267:
 1462               	.LVL67:
 1463 07c2 0F93      		push r16
 1464               	/* prologue: function */
 1465               	/* frame size = 0 */
 1466 07c4 9C01      		movw r18,r24
 1467               	.LM268:
 1468 07c6 E5E0      		ldi r30,lo8(261)
 1469 07c8 F1E0      		ldi r31,hi8(261)
 1470 07ca 8081      		ld r24,Z
 1471               	.LVL68:
 1472 07cc 8160      		ori r24,lo8(1)
 1473 07ce 8083      		st Z,r24
 1474               	.LM269:
 1475 07d0 8081      		ld r24,Z
 1476 07d2 8D7F      		andi r24,lo8(-3)
 1477 07d4 8083      		st Z,r24
 1478               	.LM270:
 1479 07d6 83E3      		ldi r24,lo8(51)
 1480 07d8 61E4      		ldi r22,lo8(65)
 1481 07da 40E1      		ldi r20,lo8(10000)
 1482 07dc 57E2      		ldi r21,hi8(10000)
 1483 07de 00E0      		ldi r16,lo8(0)
 1484 07e0 0E94 0000 		call PWM
 1485               	.LVL69:
 1486               	/* epilogue start */
 1487               	.LM271:
 1488 07e4 0F91      		pop r16
 1489 07e6 0895      		ret
 1490               	.LFE11:
 1492               	.global	ProcessPINA
 1494               	ProcessPINA:
 1495               	.LFB31:
 1496               	.LM272:
 1497               	.LVL70:
 1498 07e8 CF93      		push r28
 1499 07ea DF93      		push r29
 1500               	/* prologue: function */
 1501               	/* frame size = 0 */
 1502               	.LM273:
 1503 07ec C82F      		mov r28,r24
 1504 07ee 80FD      		sbrc r24,0
 1505 07f0 00C0      		rjmp .L114
 1506               	.LVL71:
 1507               	.LM274:
 1508 07f2 0E94 0000 		call pid
 1509 07f6 00C0      		rjmp .L115
 1510               	.L114:
 1511               	.LM275:
 1512 07f8 8091 0000 		lds r24,PidStarted
 1513 07fc 8130      		cpi r24,lo8(1)
 1514 07fe 01F4      		brne .L115
 1515               	.LM276:
 1516 0800 1092 0000 		sts PidStarted,__zero_reg__
 1517               	.LM277:
 1518 0804 0E94 0000 		call LeftStop
 1519               	.LM278:
 1520 0808 0E94 0000 		call RightStop
 1521               	.L115:
 1522               	.LM279:
 1523 080c C1FD      		sbrc r28,1
 1524 080e 00C0      		rjmp .L116
 1525               	.LM280:
 1526 0810 0E94 0000 		call ExecuteSeeSaw
 1527               	.L116:
 1528               	.LM281:
 1529 0814 C2FD      		sbrc r28,2
 1530 0816 00C0      		rjmp .L117
 1531               	.LM282:
 1532 0818 81E0      		ldi r24,lo8(1)
 1533 081a 8093 0000 		sts EncoderStarted,r24
 1534               	.LM283:
 1535 081e 8091 8400 		lds r24,132
 1536 0822 9091 8500 		lds r25,(132)+1
 1537 0826 893C      		cpi r24,201
 1538 0828 9105      		cpc r25,__zero_reg__
 1539 082a 00F4      		brsh .L118
 1540               	.LM284:
 1541 082c 8EE1      		ldi r24,lo8(30)
 1542 082e 90E0      		ldi r25,hi8(30)
 1543 0830 0E94 0000 		call LeftFwd
 1544               	.LM285:
 1545 0834 8EE1      		ldi r24,lo8(30)
 1546 0836 90E0      		ldi r25,hi8(30)
 1547 0838 0E94 0000 		call RightFwd
 1548               	.L118:
 1549               	.LM286:
 1550 083c 8091 8400 		lds r24,132
 1551 0840 9091 8500 		lds r25,(132)+1
 1552 0844 883C      		cpi r24,200
 1553 0846 9105      		cpc r25,__zero_reg__
 1554 0848 00F0      		brlo .L119
 1555 084a 8091 8400 		lds r24,132
 1556 084e 9091 8500 		lds r25,(132)+1
 1557 0852 835C      		subi r24,lo8(451)
 1558 0854 9140      		sbci r25,hi8(451)
 1559 0856 00F4      		brsh .L119
 1560               	.LM287:
 1561 0858 84E4      		ldi r24,lo8(68)
 1562 085a 90E0      		ldi r25,hi8(68)
 1563 085c 0E94 0000 		call RightFwd
 1564               	.LM288:
 1565 0860 83E2      		ldi r24,lo8(35)
 1566 0862 90E0      		ldi r25,hi8(35)
 1567 0864 0E94 0000 		call LeftFwd
 1568               	.L119:
 1569               	.LM289:
 1570 0868 8091 8400 		lds r24,132
 1571 086c 9091 8500 		lds r25,(132)+1
 1572 0870 825C      		subi r24,lo8(450)
 1573 0872 9140      		sbci r25,hi8(450)
 1574 0874 00F0      		brlo .L120
 1575 0876 8091 8400 		lds r24,132
 1576 087a 9091 8500 		lds r25,(132)+1
 1577 087e 8150      		subi r24,lo8(1025)
 1578 0880 9440      		sbci r25,hi8(1025)
 1579 0882 00F4      		brsh .L120
 1580               	.LM290:
 1581 0884 8091 8400 		lds r24,132
 1582 0888 9091 8500 		lds r25,(132)+1
 1583 088c 64E1      		ldi r22,lo8(20)
 1584 088e 70E0      		ldi r23,hi8(20)
 1585 0890 0E94 0000 		call __udivmodhi4
 1586 0894 CB01      		movw r24,r22
 1587 0896 8C96      		adiw r24,44
 1588 0898 0E94 0000 		call LeftFwd
 1589               	.LM291:
 1590 089c 8091 8400 		lds r24,132
 1591 08a0 9091 8500 		lds r25,(132)+1
 1592 08a4 67E3      		ldi r22,lo8(55)
 1593 08a6 70E0      		ldi r23,hi8(55)
 1594 08a8 0E94 0000 		call __udivmodhi4
 1595 08ac CB01      		movw r24,r22
 1596 08ae CA96      		adiw r24,58
 1597 08b0 0E94 0000 		call RightFwd
 1598               	.L120:
 1599               	.LM292:
 1600 08b4 8091 8400 		lds r24,132
 1601 08b8 9091 8500 		lds r25,(132)+1
 1602 08bc 8050      		subi r24,lo8(1024)
 1603 08be 9440      		sbci r25,hi8(1024)
 1604 08c0 00F0      		brlo .L122
 1605 08c2 00C0      		rjmp .L123
 1606               	.L117:
 1607               	.LM293:
 1608 08c4 8091 0000 		lds r24,EncoderStarted
 1609 08c8 8130      		cpi r24,lo8(1)
 1610 08ca 01F4      		brne .L122
 1611               	.LM294:
 1612 08cc 1092 0000 		sts EncoderStarted,__zero_reg__
 1613               	.L123:
 1614               	.LM295:
 1615 08d0 0E94 0000 		call LeftStop
 1616               	.LM296:
 1617 08d4 0E94 0000 		call RightStop
 1618               	.L122:
 1619               	/* epilogue start */
 1620               	.LM297:
 1621 08d8 DF91      		pop r29
 1622 08da CF91      		pop r28
 1623 08dc 0895      		ret
 1624               	.LFE31:
 1626               	.global	ProcessPINC
 1628               	ProcessPINC:
 1629               	.LFB29:
 1630               	.LM298:
 1631               	.LVL72:
 1632 08de 1F93      		push r17
 1633 08e0 CF93      		push r28
 1634 08e2 DF93      		push r29
 1635               	/* prologue: function */
 1636               	/* frame size = 0 */
 1637 08e4 182F      		mov r17,r24
 1638               	.LM299:
 1639 08e6 C82F      		mov r28,r24
 1640 08e8 D0E0      		ldi r29,lo8(0)
 1641 08ea CE01      		movw r24,r28
 1642               	.LVL73:
 1643 08ec 8170      		andi r24,lo8(1)
 1644 08ee 9070      		andi r25,hi8(1)
 1645 08f0 10FD      		sbrc r17,0
 1646 08f2 00C0      		rjmp .L125
 1647               	.LVL74:
 1648 08f4 11FF      		sbrs r17,1
 1649 08f6 00C0      		rjmp .L127
 1650               	.LM300:
 1651 08f8 8091 0000 		lds r24,speed
 1652 08fc 9091 0000 		lds r25,(speed)+1
 1653 0900 0E94 0000 		call LeftFwd
 1654 0904 00C0      		rjmp .L138
 1655               	.L125:
 1656               	.LM301:
 1657 0906 8823      		tst r24
 1658 0908 01F0      		breq .L127
 1659 090a 11FD      		sbrc r17,1
 1660 090c 00C0      		rjmp .L127
 1661               	.LM302:
 1662 090e 8091 0000 		lds r24,speed
 1663 0912 9091 0000 		lds r25,(speed)+1
 1664 0916 0E94 0000 		call LeftRev
 1665               	.L138:
 1666               	.LM303:
 1667 091a 81E0      		ldi r24,lo8(1)
 1668 091c 8093 0000 		sts LeftStarted,r24
 1669 0920 00C0      		rjmp .L126
 1670               	.L127:
 1671               	.LM304:
 1672 0922 CE01      		movw r24,r28
 1673 0924 8370      		andi r24,lo8(3)
 1674 0926 9070      		andi r25,hi8(3)
 1675 0928 0397      		sbiw r24,3
 1676 092a 01F4      		brne .L126
 1677               	.LM305:
 1678 092c 8091 0000 		lds r24,LeftStarted
 1679 0930 8130      		cpi r24,lo8(1)
 1680 0932 01F4      		brne .L126
 1681               	.LM306:
 1682 0934 0E94 0000 		call LeftStop
 1683               	.LM307:
 1684 0938 1092 0000 		sts LeftStarted,__zero_reg__
 1685               	.L126:
 1686 093c CE01      		movw r24,r28
 1687 093e 8870      		andi r24,lo8(8)
 1688 0940 9070      		andi r25,hi8(8)
 1689               	.LM308:
 1690 0942 C2FD      		sbrc r28,2
 1691 0944 00C0      		rjmp .L128
 1692 0946 892B      		or r24,r25
 1693 0948 01F0      		breq .L129
 1694               	.LM309:
 1695 094a 8091 0000 		lds r24,speed
 1696 094e 9091 0000 		lds r25,(speed)+1
 1697 0952 0E94 0000 		call RightRev
 1698 0956 00C0      		rjmp .L139
 1699               	.L128:
 1700               	.LM310:
 1701 0958 892B      		or r24,r25
 1702 095a 01F4      		brne .L130
 1703               	.LM311:
 1704 095c 8091 0000 		lds r24,speed
 1705 0960 9091 0000 		lds r25,(speed)+1
 1706 0964 0E94 0000 		call RightFwd
 1707               	.L139:
 1708               	.LM312:
 1709 0968 81E0      		ldi r24,lo8(1)
 1710 096a 8093 0000 		sts RightStarted,r24
 1711 096e 00C0      		rjmp .L129
 1712               	.L130:
 1713               	.LM313:
 1714 0970 8091 0000 		lds r24,RightStarted
 1715 0974 8130      		cpi r24,lo8(1)
 1716 0976 01F4      		brne .L129
 1717               	.LM314:
 1718 0978 0E94 0000 		call RightStop
 1719               	.LM315:
 1720 097c 1092 0000 		sts RightStarted,__zero_reg__
 1721               	.L129:
 1722 0980 CE01      		movw r24,r28
 1723 0982 8072      		andi r24,lo8(32)
 1724 0984 9070      		andi r25,hi8(32)
 1725               	.LM316:
 1726 0986 C4FD      		sbrc r28,4
 1727 0988 00C0      		rjmp .L131
 1728 098a 892B      		or r24,r25
 1729 098c 01F0      		breq .L132
 1730               	.LM317:
 1731 098e 81E0      		ldi r24,lo8(1)
 1732 0990 8093 0000 		sts MainPullyStarted,r24
 1733               	.LM318:
 1734 0994 0E94 0000 		call MainPullyUp
 1735 0998 00C0      		rjmp .L132
 1736               	.L131:
 1737               	.LM319:
 1738 099a 892B      		or r24,r25
 1739 099c 01F4      		brne .L133
 1740               	.LM320:
 1741 099e 81E0      		ldi r24,lo8(1)
 1742 09a0 8093 0000 		sts MainPullyStarted,r24
 1743               	.LM321:
 1744 09a4 0E94 0000 		call MainPullyDown
 1745 09a8 00C0      		rjmp .L132
 1746               	.L133:
 1747               	.LM322:
 1748 09aa 1092 0000 		sts MainPullyStarted,__zero_reg__
 1749               	.LM323:
 1750 09ae 0E94 0000 		call MainPullyStop
 1751               	.L132:
 1752               	.LM324:
 1753 09b2 C6FD      		sbrc r28,6
 1754 09b4 00C0      		rjmp .L134
 1755 09b6 17FF      		sbrs r17,7
 1756 09b8 00C0      		rjmp .L137
 1757               	.LVL75:
 1758               	.LM325:
 1759 09ba 8091 0000 		lds r24,Pully2Started
 1760 09be 8823      		tst r24
 1761 09c0 01F4      		brne .L137
 1762               	.LM326:
 1763 09c2 81E0      		ldi r24,lo8(1)
 1764 09c4 8093 0000 		sts Pully2Started,r24
 1765               	.LM327:
 1766 09c8 0E94 0000 		call Pully2Up
 1767 09cc 00C0      		rjmp .L137
 1768               	.LVL76:
 1769               	.L134:
 1770 09ce 8091 0000 		lds r24,Pully2Started
 1771               	.LM328:
 1772 09d2 17FD      		sbrc r17,7
 1773 09d4 00C0      		rjmp .L136
 1774               	.LVL77:
 1775               	.LM329:
 1776 09d6 8823      		tst r24
 1777 09d8 01F4      		brne .L137
 1778               	.LM330:
 1779 09da 81E0      		ldi r24,lo8(1)
 1780 09dc 8093 0000 		sts Pully2Started,r24
 1781               	.LM331:
 1782 09e0 0E94 0000 		call Pully2Down
 1783 09e4 00C0      		rjmp .L137
 1784               	.L136:
 1785               	.LM332:
 1786 09e6 8130      		cpi r24,lo8(1)
 1787 09e8 01F4      		brne .L137
 1788               	.LM333:
 1789 09ea 0E94 0000 		call Pully2Stop
 1790               	.LM334:
 1791 09ee 1092 0000 		sts Pully2Started,__zero_reg__
 1792               	.L137:
 1793               	/* epilogue start */
 1794               	.LM335:
 1795 09f2 DF91      		pop r29
 1796 09f4 CF91      		pop r28
 1797 09f6 1F91      		pop r17
 1798               	.LVL78:
 1799 09f8 0895      		ret
 1800               	.LFE29:
 1802               	.global	DiscLeft
 1804               	DiscLeft:
 1805               	.LFB10:
 1806               	.LM336:
 1807               	.LVL79:
 1808 09fa 0F93      		push r16
 1809               	/* prologue: function */
 1810               	/* frame size = 0 */
 1811 09fc 282F      		mov r18,r24
 1812               	.LM337:
 1813 09fe 84E3      		ldi r24,lo8(52)
 1814               	.LVL80:
 1815 0a00 61E4      		ldi r22,lo8(65)
 1816 0a02 40E1      		ldi r20,lo8(10000)
 1817 0a04 57E2      		ldi r21,hi8(10000)
 1818 0a06 30E0      		ldi r19,lo8(0)
 1819 0a08 00E0      		ldi r16,lo8(0)
 1820 0a0a 0E94 0000 		call PWM
 1821               	.LVL81:
 1822               	/* epilogue start */
 1823               	.LM338:
 1824 0a0e 0F91      		pop r16
 1825 0a10 0895      		ret
 1826               	.LFE10:
 1828               	.global	DiscRight
 1830               	DiscRight:
 1831               	.LFB9:
 1832               	.LM339:
 1833               	.LVL82:
 1834 0a12 0F93      		push r16
 1835               	/* prologue: function */
 1836               	/* frame size = 0 */
 1837 0a14 282F      		mov r18,r24
 1838               	.LM340:
 1839 0a16 84E3      		ldi r24,lo8(52)
 1840               	.LVL83:
 1841 0a18 61E4      		ldi r22,lo8(65)
 1842 0a1a 40E1      		ldi r20,lo8(10000)
 1843 0a1c 57E2      		ldi r21,hi8(10000)
 1844 0a1e 30E0      		ldi r19,lo8(0)
 1845 0a20 01E0      		ldi r16,lo8(1)
 1846 0a22 0E94 0000 		call PWM
 1847               	.LVL84:
 1848               	/* epilogue start */
 1849               	.LM341:
 1850 0a26 0F91      		pop r16
 1851 0a28 0895      		ret
 1852               	.LFE9:
 1854               	.global	DiscStop
 1856               	DiscStop:
 1857               	.LFB8:
 1858               	.LM342:
 1859 0a2a 0F93      		push r16
 1860               	/* prologue: function */
 1861               	/* frame size = 0 */
 1862               	.LM343:
 1863 0a2c 84E3      		ldi r24,lo8(52)
 1864 0a2e 61E4      		ldi r22,lo8(65)
 1865 0a30 40E1      		ldi r20,lo8(10000)
 1866 0a32 57E2      		ldi r21,hi8(10000)
 1867 0a34 20E0      		ldi r18,lo8(0)
 1868 0a36 30E0      		ldi r19,hi8(0)
 1869 0a38 02E0      		ldi r16,lo8(2)
 1870 0a3a 0E94 0000 		call PWM
 1871               	/* epilogue start */
 1872               	.LM344:
 1873 0a3e 0F91      		pop r16
 1874 0a40 0895      		ret
 1875               	.LFE8:
 1877               	.global	ProcessPIND
 1879               	ProcessPIND:
 1880               	.LFB28:
 1881               	.LM345:
 1882               	.LVL85:
 1883               	/* prologue: function */
 1884               	/* frame size = 0 */
 1885               	.LM346:
 1886 0a42 86FD      		sbrc r24,6
 1887 0a44 00C0      		rjmp .L147
 1888 0a46 87FF      		sbrs r24,7
 1889 0a48 00C0      		rjmp .L150
 1890               	.LM347:
 1891 0a4a 81E0      		ldi r24,lo8(1)
 1892               	.LVL86:
 1893 0a4c 8093 0000 		sts DiscStarted,r24
 1894               	.LM348:
 1895 0a50 84E6      		ldi r24,lo8(100)
 1896 0a52 0E94 0000 		call DiscRight
 1897 0a56 0895      		ret
 1898               	.LVL87:
 1899               	.L147:
 1900               	.LM349:
 1901 0a58 87FD      		sbrc r24,7
 1902 0a5a 00C0      		rjmp .L149
 1903               	.LM350:
 1904 0a5c 81E0      		ldi r24,lo8(1)
 1905               	.LVL88:
 1906 0a5e 8093 0000 		sts DiscStarted,r24
 1907               	.LM351:
 1908 0a62 84E6      		ldi r24,lo8(100)
 1909 0a64 0E94 0000 		call DiscLeft
 1910 0a68 0895      		ret
 1911               	.LVL89:
 1912               	.L149:
 1913               	.LM352:
 1914 0a6a 8091 0000 		lds r24,DiscStarted
 1915               	.LVL90:
 1916 0a6e 8130      		cpi r24,lo8(1)
 1917 0a70 01F4      		brne .L150
 1918               	.LM353:
 1919 0a72 0E94 0000 		call DiscStop
 1920               	.LM354:
 1921 0a76 1092 0000 		sts DiscStarted,__zero_reg__
 1922               	.LVL91:
 1923               	.L150:
 1924 0a7a 0895      		ret
 1925               	.LFE28:
 1927               	.global	main
 1929               	main:
 1930               	.LFB32:
 1931               	.LM355:
 1932 0a7c DF92      		push r13
 1933 0a7e EF92      		push r14
 1934 0a80 FF92      		push r15
 1935 0a82 0F93      		push r16
 1936 0a84 1F93      		push r17
 1937               	/* prologue: function */
 1938               	/* frame size = 0 */
 1939               	.LM356:
 1940 0a86 0E94 0000 		call UartInit
 1941               	.LM357:
 1942 0a8a 0E94 0000 		call ADCInit
 1943               	.LM358:
 1944 0a8e 8FEF      		ldi r24,lo8(-1)
 1945 0a90 8093 0401 		sts 260,r24
 1946               	.LM359:
 1947 0a94 1092 0501 		sts 261,__zero_reg__
 1948               	.LM360:
 1949 0a98 17B8      		out 39-32,__zero_reg__
 1950               	.LM361:
 1951 0a9a 88B9      		out 40-32,r24
 1952               	.LM362:
 1953 0a9c 809A      		sbi 48-32,0
 1954               	.LM363:
 1955 0a9e 8898      		cbi 49-32,0
 1956               	.LM364:
 1957 0aa0 5698      		cbi 42-32,6
 1958               	.LM365:
 1959 0aa2 4E9A      		sbi 41-32,6
 1960               	.LM366:
 1961 0aa4 87E0      		ldi r24,lo8(7)
 1962 0aa6 8093 8100 		sts 129,r24
 1963               	.LM367:
 1964 0aaa 1092 8500 		sts (132)+1,__zero_reg__
 1965 0aae 1092 8400 		sts 132,__zero_reg__
 1966               	.LBB54:
 1967               	.LBB55:
 1968               	.LM368:
 1969 0ab2 32E3      		ldi r19,lo8(50)
 1970 0ab4 D32E      		mov r13,r19
 1971               	.LBE55:
 1972               	.LBE54:
 1973               	.LBB57:
 1974               	.LBB58:
 1975 0ab6 2CE3      		ldi r18,lo8(60)
 1976 0ab8 E22E      		mov r14,r18
 1977               	.LBE58:
 1978               	.LBE57:
 1979               	.LBB60:
 1980               	.LBB61:
 1981 0aba 96E4      		ldi r25,lo8(70)
 1982 0abc F92E      		mov r15,r25
 1983               	.LBE61:
 1984               	.LBE60:
 1985               	.LBB63:
 1986               	.LBB64:
 1987 0abe 00E5      		ldi r16,lo8(80)
 1988               	.LBE64:
 1989               	.LBE63:
 1990               	.LBB66:
 1991               	.LBB67:
 1992 0ac0 1AE5      		ldi r17,lo8(90)
 1993               	.L174:
 1994               	.LBE67:
 1995               	.LBE66:
 1996               	.LBB69:
 1997               	.LBB56:
 1998               	.LM369:
 1999 0ac2 8091 D000 		lds r24,208
 2000 0ac6 85FF      		sbrs r24,5
 2001 0ac8 00C0      		rjmp .L174
 2002               	.LM370:
 2003 0aca D092 D600 		sts 214,r13
 2004               	.L153:
 2005               	.LBE56:
 2006               	.LBE69:
 2007               	.LBB70:
 2008               	.LBB71:
 2009               	.LM371:
 2010 0ace 8091 D000 		lds r24,208
 2011 0ad2 87FF      		sbrs r24,7
 2012 0ad4 00C0      		rjmp .L153
 2013               	.LM372:
 2014 0ad6 8091 D600 		lds r24,214
 2015               	.LBE71:
 2016               	.LBE70:
 2017               	.LM373:
 2018 0ada 0E94 0000 		call ProcessPINA
 2019               	.L154:
 2020               	.LBB72:
 2021               	.LBB59:
 2022               	.LM374:
 2023 0ade 8091 D000 		lds r24,208
 2024 0ae2 85FF      		sbrs r24,5
 2025 0ae4 00C0      		rjmp .L154
 2026               	.LM375:
 2027 0ae6 E092 D600 		sts 214,r14
 2028               	.L155:
 2029               	.LBE59:
 2030               	.LBE72:
 2031               	.LBB73:
 2032               	.LBB74:
 2033               	.LM376:
 2034 0aea 8091 D000 		lds r24,208
 2035 0aee 87FF      		sbrs r24,7
 2036 0af0 00C0      		rjmp .L155
 2037               	.LM377:
 2038 0af2 8091 D600 		lds r24,214
 2039               	.L156:
 2040               	.LBE74:
 2041               	.LBE73:
 2042               	.LBB75:
 2043               	.LBB62:
 2044               	.LM378:
 2045 0af6 8091 D000 		lds r24,208
 2046 0afa 85FF      		sbrs r24,5
 2047 0afc 00C0      		rjmp .L156
 2048               	.LM379:
 2049 0afe F092 D600 		sts 214,r15
 2050               	.L157:
 2051               	.LBE62:
 2052               	.LBE75:
 2053               	.LBB76:
 2054               	.LBB77:
 2055               	.LM380:
 2056 0b02 8091 D000 		lds r24,208
 2057 0b06 87FF      		sbrs r24,7
 2058 0b08 00C0      		rjmp .L157
 2059               	.LM381:
 2060 0b0a 8091 D600 		lds r24,214
 2061               	.LBE77:
 2062               	.LBE76:
 2063               	.LM382:
 2064 0b0e 0E94 0000 		call ProcessPINC
 2065               	.L158:
 2066               	.LBB78:
 2067               	.LBB65:
 2068               	.LM383:
 2069 0b12 8091 D000 		lds r24,208
 2070 0b16 85FF      		sbrs r24,5
 2071 0b18 00C0      		rjmp .L158
 2072               	.LM384:
 2073 0b1a 0093 D600 		sts 214,r16
 2074               	.L159:
 2075               	.LBE65:
 2076               	.LBE78:
 2077               	.LBB79:
 2078               	.LBB80:
 2079               	.LM385:
 2080 0b1e 8091 D000 		lds r24,208
 2081 0b22 87FF      		sbrs r24,7
 2082 0b24 00C0      		rjmp .L159
 2083               	.LM386:
 2084 0b26 8091 D600 		lds r24,214
 2085               	.LBE80:
 2086               	.LBE79:
 2087               	.LM387:
 2088 0b2a 0E94 0000 		call ProcessPIND
 2089               	.L160:
 2090               	.LBB81:
 2091               	.LBB68:
 2092               	.LM388:
 2093 0b2e 8091 D000 		lds r24,208
 2094 0b32 85FF      		sbrs r24,5
 2095 0b34 00C0      		rjmp .L160
 2096               	.LM389:
 2097 0b36 1093 D600 		sts 214,r17
 2098               	.L161:
 2099               	.LBE68:
 2100               	.LBE81:
 2101               	.LBB82:
 2102               	.LBB83:
 2103               	.LM390:
 2104 0b3a 8091 D000 		lds r24,208
 2105 0b3e 87FF      		sbrs r24,7
 2106 0b40 00C0      		rjmp .L161
 2107               	.LM391:
 2108 0b42 8091 D600 		lds r24,214
 2109               	.LBE83:
 2110               	.LBE82:
 2111               	.LM392:
 2112 0b46 0E94 0000 		call ProcessADC
 2113 0b4a 00C0      		rjmp .L174
 2114               	.LFE32:
 2116               	.global	speed
 2117               		.data
 2120               	speed:
 2121 0000 1400      		.word	20
 2122               	.global	DiscStarted
 2123               	.global	DiscStarted
 2124               		.section .bss
 2127               	DiscStarted:
 2128 0000 00        		.skip 1,0
 2129               	.global	MainPullyStarted
 2130               	.global	MainPullyStarted
 2133               	MainPullyStarted:
 2134 0001 00        		.skip 1,0
 2135               	.global	Pully2Started
 2136               	.global	Pully2Started
 2139               	Pully2Started:
 2140 0002 00        		.skip 1,0
 2141               	.global	RightStarted
 2142               	.global	RightStarted
 2145               	RightStarted:
 2146 0003 00        		.skip 1,0
 2147               	.global	LeftStarted
 2148               	.global	LeftStarted
 2151               	LeftStarted:
 2152 0004 00        		.skip 1,0
 2153               	.global	PidStarted
 2154               	.global	PidStarted
 2157               	PidStarted:
 2158 0005 00        		.skip 1,0
 2159               	.global	data
 2160               	.global	data
 2163               	data:
 2164 0006 00        		.skip 1,0
 2165               	.global	err
 2166               	.global	err
 2169               	err:
 2170 0007 00        		.skip 1,0
 2171               	.global	acc_err
 2172               	.global	acc_err
 2175               	acc_err:
 2176 0008 00        		.skip 1,0
 2177               	.global	inst_err
 2178               	.global	inst_err
 2181               	inst_err:
 2182 0009 00        		.skip 1,0
 2183               	.global	prev_err
 2184               	.global	prev_err
 2187               	prev_err:
 2188 000a 00        		.skip 1,0
 2189               	.global	p
 2190               		.data
 2193               	p:
 2194 0002 00        		.byte	0
 2195 0003 00        		.byte	0
 2196 0004 88        		.byte	-120
 2197 0005 41        		.byte	65
 2198               	.global	i
 2201               	i:
 2202 0006 0A        		.byte	10
 2203 0007 D7        		.byte	-41
 2204 0008 23        		.byte	35
 2205 0009 3C        		.byte	60
 2206               	.global	d
 2209               	d:
 2210 000a 0A        		.byte	10
 2211 000b D7        		.byte	-41
 2212 000c 23        		.byte	35
 2213 000d BC        		.byte	-68
 2214               	.global	corr
 2215               	.global	corr
 2216               		.section .bss
 2219               	corr:
 2220 000b 0000 0000 		.skip 4,0
 2221               	.global	EncoderStarted
 2222               	.global	EncoderStarted
 2225               	EncoderStarted:
 2226 000f 00        		.skip 1,0
 2227               		.comm temp,2,1
 2484               	.Letext0:
DEFINED SYMBOLS
                            *ABS*:00000000 main.c
C:\Users\YATEEN~1\AppData\Local\Temp/cc8mBRpg.s:2      *ABS*:0000003f __SREG__
C:\Users\YATEEN~1\AppData\Local\Temp/cc8mBRpg.s:3      *ABS*:0000003e __SP_H__
C:\Users\YATEEN~1\AppData\Local\Temp/cc8mBRpg.s:4      *ABS*:0000003d __SP_L__
C:\Users\YATEEN~1\AppData\Local\Temp/cc8mBRpg.s:5      *ABS*:00000034 __CCP__
C:\Users\YATEEN~1\AppData\Local\Temp/cc8mBRpg.s:6      *ABS*:00000000 __tmp_reg__
C:\Users\YATEEN~1\AppData\Local\Temp/cc8mBRpg.s:7      *ABS*:00000001 __zero_reg__
C:\Users\YATEEN~1\AppData\Local\Temp/cc8mBRpg.s:18     .text:00000000 compute_duty_cycle
C:\Users\YATEEN~1\AppData\Local\Temp/cc8mBRpg.s:81     .text:00000054 ExecuteSeeSaw
C:\Users\YATEEN~1\AppData\Local\Temp/cc8mBRpg.s:177    .text:0000008e ADCInit
C:\Users\YATEEN~1\AppData\Local\Temp/cc8mBRpg.s:213    .text:000000b6 ADCConvert
C:\Users\YATEEN~1\AppData\Local\Temp/cc8mBRpg.s:234    .text:000000c8 ProcessADC
C:\Users\YATEEN~1\AppData\Local\Temp/cc8mBRpg.s:2120   .data:00000000 speed
C:\Users\YATEEN~1\AppData\Local\Temp/cc8mBRpg.s:263    .text:000000ee ProcessPINB
C:\Users\YATEEN~1\AppData\Local\Temp/cc8mBRpg.s:276    .text:000000f0 UartReceive
C:\Users\YATEEN~1\AppData\Local\Temp/cc8mBRpg.s:295    .text:000000fe UartInit
C:\Users\YATEEN~1\AppData\Local\Temp/cc8mBRpg.s:350    .text:0000014a UartTransmit
C:\Users\YATEEN~1\AppData\Local\Temp/cc8mBRpg.s:372    .text:0000015a pid
C:\Users\YATEEN~1\AppData\Local\Temp/cc8mBRpg.s:2169   .bss:00000007 err
C:\Users\YATEEN~1\AppData\Local\Temp/cc8mBRpg.s:2187   .bss:0000000a prev_err
C:\Users\YATEEN~1\AppData\Local\Temp/cc8mBRpg.s:2181   .bss:00000009 inst_err
C:\Users\YATEEN~1\AppData\Local\Temp/cc8mBRpg.s:2175   .bss:00000008 acc_err
C:\Users\YATEEN~1\AppData\Local\Temp/cc8mBRpg.s:2193   .data:00000002 p
C:\Users\YATEEN~1\AppData\Local\Temp/cc8mBRpg.s:2201   .data:00000006 i
C:\Users\YATEEN~1\AppData\Local\Temp/cc8mBRpg.s:2209   .data:0000000a d
C:\Users\YATEEN~1\AppData\Local\Temp/cc8mBRpg.s:2219   .bss:0000000b corr
C:\Users\YATEEN~1\AppData\Local\Temp/cc8mBRpg.s:2157   .bss:00000005 PidStarted
C:\Users\YATEEN~1\AppData\Local\Temp/cc8mBRpg.s:546    .text:000002c6 PWM
C:\Users\YATEEN~1\AppData\Local\Temp/cc8mBRpg.s:1150   .text:00000670 Pully2Down
C:\Users\YATEEN~1\AppData\Local\Temp/cc8mBRpg.s:1173   .text:00000688 Pully2Up
C:\Users\YATEEN~1\AppData\Local\Temp/cc8mBRpg.s:1196   .text:000006a0 Pully2Stop
C:\Users\YATEEN~1\AppData\Local\Temp/cc8mBRpg.s:1219   .text:000006b8 MainPullyDown
C:\Users\YATEEN~1\AppData\Local\Temp/cc8mBRpg.s:1242   .text:000006d0 MainPullyUp
C:\Users\YATEEN~1\AppData\Local\Temp/cc8mBRpg.s:1265   .text:000006e8 MainPullyStop
C:\Users\YATEEN~1\AppData\Local\Temp/cc8mBRpg.s:1288   .text:00000700 RightStop
C:\Users\YATEEN~1\AppData\Local\Temp/cc8mBRpg.s:1321   .text:00000728 RightRev
C:\Users\YATEEN~1\AppData\Local\Temp/cc8mBRpg.s:1356   .text:0000074e RightFwd
C:\Users\YATEEN~1\AppData\Local\Temp/cc8mBRpg.s:1391   .text:00000774 LeftStop
C:\Users\YATEEN~1\AppData\Local\Temp/cc8mBRpg.s:1424   .text:0000079c LeftRev
C:\Users\YATEEN~1\AppData\Local\Temp/cc8mBRpg.s:1459   .text:000007c2 LeftFwd
C:\Users\YATEEN~1\AppData\Local\Temp/cc8mBRpg.s:1494   .text:000007e8 ProcessPINA
C:\Users\YATEEN~1\AppData\Local\Temp/cc8mBRpg.s:2225   .bss:0000000f EncoderStarted
C:\Users\YATEEN~1\AppData\Local\Temp/cc8mBRpg.s:1628   .text:000008de ProcessPINC
C:\Users\YATEEN~1\AppData\Local\Temp/cc8mBRpg.s:2151   .bss:00000004 LeftStarted
C:\Users\YATEEN~1\AppData\Local\Temp/cc8mBRpg.s:2145   .bss:00000003 RightStarted
C:\Users\YATEEN~1\AppData\Local\Temp/cc8mBRpg.s:2133   .bss:00000001 MainPullyStarted
C:\Users\YATEEN~1\AppData\Local\Temp/cc8mBRpg.s:2139   .bss:00000002 Pully2Started
C:\Users\YATEEN~1\AppData\Local\Temp/cc8mBRpg.s:1804   .text:000009fa DiscLeft
C:\Users\YATEEN~1\AppData\Local\Temp/cc8mBRpg.s:1830   .text:00000a12 DiscRight
C:\Users\YATEEN~1\AppData\Local\Temp/cc8mBRpg.s:1856   .text:00000a2a DiscStop
C:\Users\YATEEN~1\AppData\Local\Temp/cc8mBRpg.s:1879   .text:00000a42 ProcessPIND
C:\Users\YATEEN~1\AppData\Local\Temp/cc8mBRpg.s:2127   .bss:00000000 DiscStarted
C:\Users\YATEEN~1\AppData\Local\Temp/cc8mBRpg.s:1929   .text:00000a7c main
C:\Users\YATEEN~1\AppData\Local\Temp/cc8mBRpg.s:2163   .bss:00000006 data
                            *COM*:00000002 temp

UNDEFINED SYMBOLS
__udivmodhi4
__udivmodqi4
__floatsisf
__mulsf3
__addsf3
ceil
__fixsfsi
toupper
__udivmodsi4
__do_copy_data
__do_clear_bss
